ccollections
defaultdict
p0
(c__builtin__
list
p1
tp2
Rp3
I0
(lp4
S'AB de Villiers'
p5
aS'MS Dhoni'
p6
aS'Shaun Marsh'
p7
aS'David Miller'
p8
aS'Robin Uthappa'
p9
aS'Shane Watson'
p10
aS'Shikhar Dhawan'
p11
aS'Eoin Morgan'
p12
aS'Kevin Pietersen'
p13
asI1
(lp14
S'Varun Aaron'
p15
aS'Yuzvendra Chahal'
p16
aS'Sarfaraz Khan'
p17
aS'Harshal Patel'
p18
aS'Mitchell Starc'
p19
aS'Kyle Abbott'
p20
aS'Samuel Badree'
p21
aS'Ashish Nehra'
p22
aS'Imran Tahir'
p23
aS'Zaheer Khan'
p24
aS'Mohammed Shami'
p25
aS'Anureet Singh'
p26
aS'Parvinder Awana'
p27
aS'Mitchell Johnson'
p28
aS'Karanveer Singh'
p29
aS'Kuldeep Yadav'
p30
aS'Morne Morkel'
p31
aS'Jasprit Bumrah'
p32
aS'Ben Hilfenhaus'
p33
aS'Pragyan Ojha'
p34
aS'Ankit Sharma'
p35
aS'Dhawal Kulkarni'
p36
aS'Bhuvneshwar Kumar'
p37
aS'Dale Steyn'
p38
asI2
(lp39
S'Dinesh Karthik'
p40
aS'Faf du Plessis'
p41
aS'Quinton de Kock'
p42
aS'Albie Morkel'
p43
aS'Yuvraj Singh'
p44
aS'Virender Sehwag'
p45
aS'Azhar Mahmood'
p46
aS'Manish Pandey'
p47
aS'Parthiv Patel'
p48
aS'Ajinkya Rahane'
p49
asI3
(lp50
S'Ravichandran Ashwin'
p51
aS'Pawan Negi'
p52
aS'Amit Mishra'
p53
aS'Axar Patel'
p54
aS'Brad Hogg'
p55
aS'Sunil Narine'
p56
aS'Lasith Malinga'
p57
aS'Ben Cutting'
p58
aS'Chris Morris'
p59
aS'Praveen Kumar'
p60
asI4
(lp61
S'S Badrinath'
p62
aS'Darren Sammy'
p63
aS'Ravindra Jadeja'
p64
aS'Angelo Mathews'
p65
aS'Manoj Tiwary'
p66
aS'George Bailey'
p67
aS'Glenn Maxwell'
p68
aS'Wriddhiman Saha'
p69
aS'Johan Botha'
p70
aS'Andre Russell'
p71
aS'Aiden Blizzard'
p72
aS'Sanju Samson'
p73
aS'Steven Smith'
p74
aS'Moises Henriques'
p75
aS'Naman Ojha'
p76
aS'Kane Williamson'
p77
asI5
(lp78
S'Chris Gayle'
p79
asI6
(lp80
S'Virat Kohli'
p81
aS'Dwayne Bravo'
p82
aS'Brendon McCullum'
p83
aS'Suresh Raina'
p84
aS'Jean-Paul Duminy'
p85
aS'Gautam Gambhir'
p86
aS'Rohit Sharma'
p87
aS'Kieron Pollard'
p88
aS'David Warner'
p89
asI7
(lp90
S'Mayank Agarwal'
p91
aS'Piyush Chawla'
p92
aS'Corey Anderson'
p93
aS'Unmukt Chand'
p94
aS'Harbhajan Singh'
p95
aS'Stuart Binny'
p96
aS'Rajat Bhatia'
p97
aS'James Faulkner'
p98
aS'Lokesh Rahul'
p99
as.