ccollections
defaultdict
p0
(c__builtin__
list
p1
tp2
Rp3
I0
(lp4
S'Varun Aaron'
p5
aS'Harshal Patel'
p6
aS'Pawan Negi'
p7
aS'Suresh Raina'
p8
aS'Jean-Paul Duminy'
p9
aS'Mohammed Shami'
p10
aS'Yuvraj Singh'
p11
aS'Parvinder Awana'
p12
aS'Glenn Maxwell'
p13
aS'Axar Patel'
p14
aS'Stuart Binny'
p15
aS'Ben Cutting'
p16
asI1
(lp17
S'Chris Gayle'
p18
aS'Yuzvendra Chahal'
p19
aS'Mitchell Starc'
p20
aS'Kyle Abbott'
p21
aS'Angelo Mathews'
p22
aS'Mitchell Johnson'
p23
aS'Jasprit Bumrah'
p24
aS'Ben Hilfenhaus'
p25
aS'Dhawal Kulkarni'
p26
aS'Moises Henriques'
p27
aS'Bhuvneshwar Kumar'
p28
asI2
(lp29
S'Ravichandran Ashwin'
p30
aS'Albie Morkel'
p31
aS'Azhar Mahmood'
p32
aS'Sunil Narine'
p33
aS'Harbhajan Singh'
p34
aS'Lasith Malinga'
p35
asI3
(lp36
S'Darren Sammy'
p37
aS'Samuel Badree'
p38
aS'Ravindra Jadeja'
p39
aS'Ashish Nehra'
p40
aS'Imran Tahir'
p41
aS'Zaheer Khan'
p42
aS'Brad Hogg'
p43
aS'Pragyan Ojha'
p44
aS'Rajat Bhatia'
p45
aS'James Faulkner'
p46
aS'Chris Morris'
p47
asI4
(lp48
S'S Badrinath'
p49
aS'AB de Villiers'
p50
aS'Dinesh Karthik'
p51
aS'Sarfaraz Khan'
p52
aS'MS Dhoni'
p53
aS'Brendon McCullum'
p54
aS'Mayank Agarwal'
p55
aS'Quinton de Kock'
p56
aS'Manoj Tiwary'
p57
aS'George Bailey'
p58
aS'Karanveer Singh'
p59
aS'Shaun Marsh'
p60
aS'David Miller'
p61
aS'Wriddhiman Saha'
p62
aS'Gautam Gambhir'
p63
aS'Manish Pandey'
p64
aS'Robin Uthappa'
p65
aS'Aiden Blizzard'
p66
aS'Unmukt Chand'
p67
aS'Parthiv Patel'
p68
aS'Ajinkya Rahane'
p69
aS'Sanju Samson'
p70
aS'David Warner'
p71
aS'Shikhar Dhawan'
p72
aS'Eoin Morgan'
p73
aS'Naman Ojha'
p74
aS'Lokesh Rahul'
p75
asI5
(lp76
S'Dwayne Bravo'
p77
asI6
(lp78
S'Amit Mishra'
p79
aS'Johan Botha'
p80
aS'Piyush Chawla'
p81
aS'Morne Morkel'
p82
aS'Andre Russell'
p83
aS'Kieron Pollard'
p84
aS'Shane Watson'
p85
aS'Praveen Kumar'
p86
aS'Dale Steyn'
p87
asI7
(lp88
S'Virat Kohli '
p89
aS'Faf du Plessis'
p90
aS'Anureet Singh'
p91
aS'Virender Sehwag'
p92
aS'Kuldeep Yadav'
p93
aS'Rohit Sharma'
p94
aS'Corey Anderson'
p95
aS'Ankit Sharma'
p96
aS'Steven Smith'
p97
aS'Kevin Pietersen'
p98
aS'Kane Williamson'
p99
as.