(dp0
S'Lokesh Rahul'
p1
(dp2
S'Imran Tahir'
p3
(lp4
I6
aI6
aI0
aI0
aI0
aI0
aI0
aI0
aI6
aI12
aI0
asS'Yuzvendra Chahal'
p5
(lp6
I2
aI6
aI0
aI0
aI1
aI0
aI0
aI0
aI10
aI9
aI0
asS'Ashish Nehra'
p7
(lp8
I4
aI0
aI0
aI0
aI1
aI0
aI0
aI0
aI4
aI5
aI0
asS'Darren Sammy'
p9
(lp10
I0
aI2
aI1
aI0
aI1
aI0
aI0
aI0
aI8
aI4
aI0
asS'Anureet Singh'
p11
(lp12
I1
aI1
aI1
aI0
aI0
aI0
aI1
aI0
aI9
aI4
aI0
asS'Varun Aaron'
p13
(lp14
I0
aI3
aI0
aI0
aI1
aI0
aI1
aI0
aI13
aI5
aI0
asS'Dhawal Kulkarni'
p15
(lp16
I2
aI0
aI0
aI0
aI0
aI0
aI0
aI0
aI0
aI2
aI0
asS'Harbhajan Singh'
p17
(lp18
I3
aI3
aI0
aI1
aI0
aI0
aI0
aI0
aI6
aI7
aI0
asS'Yuvraj Singh'
p19
(lp20
I2
aI4
aI0
aI0
aI0
aI0
aI2
aI0
aI16
aI8
aI0
asS'Amit Mishra'
p21
(lp22
I2
aI8
aI0
aI0
aI0
aI0
aI2
aI0
aI20
aI12
aI0
asS'Angelo Mathews'
p23
(lp24
I4
aI0
aI2
aI0
aI0
aI0
aI0
aI0
aI4
aI6
aI0
asS'Jean-Paul Duminy'
p25
(lp26
I2
aI2
aI0
aI0
aI0
aI0
aI0
aI0
aI2
aI4
aI0
assS'Varun Aaron'
p27
(dp28
S'Bhuvneshwar Kumar'
p29
(lp30
I2
aI0
aI0
aI0
aI0
aI0
aI1
aI0
aI6
aI3
aI0
assS'Ashish Nehra'
p31
(dp32
S'Lasith Malinga'
p33
(lp34
I1
aI0
aI0
aI0
aI0
aI0
aI0
aI0
aI0
aI1
aI0
asS'Brad Hogg'
p35
(lp36
I1
aI0
aI0
aI0
aI0
aI0
aI0
aI0
aI0
aI1
aI0
asS'Andre Russell'
p37
(lp38
I2
aI1
aI0
aI0
aI0
aI0
aI0
aI0
aI1
aI3
aI0
asS'Mitchell Starc'
p39
(lp40
I3
aI0
aI0
aI0
aI0
aI0
aI0
aI0
aI0
aI3
aI0
assS'Suresh Raina'
p41
(dp42
S'Harbhajan Singh'
p43
(lp44
I14
aI16
aI1
aI0
aI2
aI0
aI4
aI0
aI50
aI37
aI0
asS'Karanveer Singh'
p45
(lp46
I3
aI0
aI0
aI0
aI0
aI0
aI0
aI0
aI0
aI3
aI0
asS'Shikhar Dhawan'
p47
(lp48
I0
aI1
aI0
aI0
aI0
aI0
aI0
aI0
aI1
aI1
aI0
asS'Anureet Singh'
p49
(lp50
I4
aI8
aI0
aI0
aI3
aI0
aI0
aI0
aI20
aI15
aI0
asS'Virat Kohli'
p51
(lp52
I1
aI2
aI0
aI0
aI0
aI0
aI0
aI0
aI2
aI3
aI0
asS'Mitchell Starc'
p53
(lp54
I2
aI1
aI0
aI0
aI0
aI0
aI0
aI0
aI1
aI3
aI0
asS'Axar Patel'
p55
(lp56
I0
aI10
aI0
aI0
aI2
aI0
aI0
aI0
aI18
aI12
aI0
asS'Glenn Maxwell'
p57
(lp58
I2
aI1
aI0
aI0
aI0
aI0
aI0
aI0
aI1
aI3
aI0
asS'Andre Russell'
p59
(lp60
I5
aI1
aI0
aI0
aI1
aI0
aI0
aI0
aI5
aI7
aI0
asS'Kieron Pollard'
p61
(lp62
I5
aI10
aI1
aI0
aI4
aI0
aI0
aI0
aI28
aI20
aI0
asS'Harshal Patel'
p63
(lp64
I22
aI7
aI2
aI0
aI5
aI0
aI0
aI0
aI31
aI36
aI0
asS'Moises Henriques'
p65
(lp66
I2
aI2
aI0
aI0
aI0
aI0
aI0
aI0
aI2
aI4
aI0
asS'Albie Morkel'
p67
(lp68
I1
aI0
aI1
aI0
aI1
aI0
aI0
aI0
aI6
aI3
aI0
asS'Ankit Sharma'
p69
(lp70
I0
aI1
aI1
aI0
aI0
aI0
aI0
aI0
aI3
aI2
aI0
asS'Brad Hogg'
p71
(lp72
I5
aI2
aI0
aI0
aI0
aI0
aI0
aI0
aI2
aI7
aI0
asS'Chris Morris'
p73
(lp74
I8
aI0
aI2
aI0
aI0
aI0
aI0
aI0
aI4
aI10
aI0
asS'Lasith Malinga'
p75
(lp76
I0
aI8
aI0
aI0
aI0
aI0
aI0
aI0
aI8
aI8
aI0
asS'Yuzvendra Chahal'
p77
(lp78
I7
aI6
aI1
aI0
aI2
aI0
aI7
aI0
aI58
aI23
aI0
asS'Bhuvneshwar Kumar'
p79
(lp80
I4
aI3
aI0
aI0
aI1
aI0
aI1
aI0
aI13
aI9
aI0
asS'Mitchell Johnson'
p81
(lp82
I1
aI3
aI0
aI0
aI0
aI0
aI0
aI0
aI3
aI4
aI0
asS'Piyush Chawla'
p83
(lp84
I1
aI0
aI0
aI0
aI0
aI0
aI1
aI0
aI6
aI2
aI0
asS'Praveen Kumar'
p85
(lp86
I1
aI0
aI0
aI0
aI0
aI0
aI1
aI0
aI6
aI2
aI0
assS'Dinesh Karthik'
p87
(dp88
S'Lasith Malinga'
p89
(lp90
I2
aI0
aI0
aI0
aI0
aI0
aI0
aI0
aI0
aI2
aI0
asS'Stuart Binny'
p91
(lp92
I3
aI1
aI0
aI0
aI2
aI0
aI1
aI0
aI15
aI7
aI0
asS'Ashish Nehra'
p93
(lp94
I2
aI2
aI0
aI0
aI1
aI0
aI0
aI0
aI6
aI5
aI0
asS'Chris Morris'
p95
(lp96
I1
aI0
aI1
aI0
aI0
aI0
aI1
aI0
aI8
aI3
aI0
asS'Morne Morkel'
p97
(lp98
I1
aI0
aI0
aI0
aI0
aI0
aI0
aI0
aI0
aI1
aI0
asS'Dwayne Bravo'
p99
(lp100
I5
aI0
aI0
aI0
aI0
aI0
aI0
aI0
aI0
aI5
aI0
asS'Pawan Negi'
p101
(lp102
I2
aI2
aI0
aI0
aI1
aI0
aI0
aI0
aI6
aI5
aI0
asS'Harbhajan Singh'
p103
(lp104
I0
aI2
aI0
aI0
aI0
aI0
aI0
aI0
aI2
aI2
aI0
asS'James Faulkner'
p105
(lp106
I1
aI1
aI0
aI0
aI1
aI0
aI0
aI0
aI5
aI3
aI0
asS'Axar Patel'
p107
(lp108
I0
aI1
aI0
aI0
aI0
aI0
aI0
aI0
aI1
aI1
aI0
asS'Bhuvneshwar Kumar'
p109
(lp110
I0
aI1
aI0
aI0
aI0
aI0
aI0
aI0
aI1
aI1
aI0
asS'Ravichandran Ashwin'
p111
(lp112
I4
aI2
aI1
aI0
aI2
aI0
aI0
aI0
aI12
aI9
aI0
asS'Andre Russell'
p113
(lp114
I3
aI1
aI0
aI0
aI1
aI0
aI0
aI0
aI5
aI5
aI0
asS'Praveen Kumar'
p115
(lp116
I3
aI3
aI0
aI0
aI1
aI0
aI0
aI0
aI7
aI7
aI0
asS'Ravindra Jadeja'
p117
(lp118
I1
aI3
aI0
aI0
aI0
aI0
aI0
aI0
aI3
aI4
aI0
asS'Suresh Raina'
p119
(lp120
I2
aI3
aI1
aI0
aI3
aI0
aI0
aI0
aI17
aI9
aI0
assS'Steven Smith'
p121
(dp122
S'Lasith Malinga'
p123
(lp124
I11
aI10
aI9
aI0
aI12
aI0
aI0
aI0
aI76
aI42
aI0
asS'Dwayne Bravo'
p125
(lp126
I2
aI0
aI0
aI0
aI0
aI0
aI0
aI0
aI0
aI2
aI0
asS'Moises Henriques'
p127
(lp128
I1
aI3
aI1
aI0
aI3
aI0
aI0
aI0
aI17
aI8
aI0
asS'Anureet Singh'
p129
(lp130
I1
aI1
aI0
aI0
aI0
aI0
aI0
aI0
aI1
aI2
aI0
asS'Harshal Patel'
p131
(lp132
I0
aI4
aI1
aI0
aI0
aI0
aI0
aI0
aI6
aI5
aI0
asS'Virat Kohli'
p133
(lp134
I1
aI3
aI0
aI0
aI0
aI0
aI0
aI0
aI3
aI4
aI0
asS'Pawan Negi'
p135
(lp136
I0
aI2
aI1
aI0
aI0
aI0
aI0
aI0
aI4
aI3
aI0
asS'Harbhajan Singh'
p137
(lp138
I0
aI4
aI1
aI0
aI1
aI0
aI0
aI0
aI10
aI6
aI0
asS'Bhuvneshwar Kumar'
p139
(lp140
I1
aI1
aI0
aI0
aI0
aI0
aI0
aI0
aI1
aI2
aI0
asS'Mitchell Starc'
p141
(lp142
I3
aI1
aI0
aI0
aI1
aI0
aI0
aI0
aI5
aI5
aI0
asS'Piyush Chawla'
p143
(lp144
I1
aI2
aI0
aI0
aI0
aI0
aI0
aI0
aI2
aI3
aI0
asS'Axar Patel'
p145
(lp146
I3
aI1
aI0
aI0
aI2
aI0
aI0
aI0
aI9
aI6
aI0
asS'Corey Anderson'
p147
(lp148
I10
aI4
aI4
aI0
aI0
aI0
aI0
aI0
aI12
aI18
aI0
asS'Angelo Mathews'
p149
(lp150
I0
aI2
aI0
aI0
aI1
aI0
aI0
aI0
aI6
aI3
aI0
asS'Andre Russell'
p151
(lp152
I2
aI2
aI0
aI0
aI2
aI0
aI0
aI0
aI10
aI6
aI0
asS'Karanveer Singh'
p153
(lp154
I1
aI4
aI0
aI0
aI2
aI0
aI0
aI0
aI12
aI7
aI0
asS'Amit Mishra'
p155
(lp156
I2
aI0
aI0
aI0
aI0
aI0
aI0
aI0
aI0
aI2
aI0
asS'Yuzvendra Chahal'
p157
(lp158
I2
aI5
aI1
aI0
aI0
aI0
aI0
aI0
aI7
aI8
aI0
asS'Praveen Kumar'
p159
(lp160
I3
aI3
aI0
aI0
aI2
aI0
aI0
aI0
aI11
aI8
aI0
asS'Ravindra Jadeja'
p161
(lp162
I4
aI4
aI0
aI0
aI0
aI0
aI0
aI0
aI4
aI8
aI0
asS'Mitchell Johnson'
p163
(lp164
I2
aI0
aI0
aI0
aI0
aI0
aI0
aI0
aI0
aI2
aI0
assS'Manoj Tiwary'
p165
(dp166
S'Andre Russell'
p167
(lp168
I5
aI6
aI0
aI0
aI2
aI0
aI0
aI0
aI14
aI13
aI0
asS'Brad Hogg'
p169
(lp170
I2
aI1
aI0
aI0
aI0
aI0
aI0
aI0
aI1
aI3
aI0
asS'Piyush Chawla'
p171
(lp172
I7
aI10
aI0
aI0
aI0
aI0
aI1
aI0
aI16
aI18
aI0
asS'Sunil Narine'
p173
(lp174
I9
aI6
aI0
aI0
aI4
aI0
aI0
aI0
aI22
aI19
aI0
asS'Morne Morkel'
p175
(lp176
I8
aI2
aI0
aI0
aI4
aI0
aI0
aI0
aI18
aI14
aI0
assS'Dwayne Bravo'
p177
(dp178
S'Bhuvneshwar Kumar'
p179
(lp180
I1
aI3
aI0
aI0
aI2
aI0
aI0
aI0
aI11
aI6
aI0
asS'Kieron Pollard'
p181
(lp182
I0
aI1
aI2
aI0
aI2
aI0
aI2
aI0
aI25
aI7
aI0
asS'Chris Morris'
p183
(lp184
I2
aI10
aI0
aI0
aI3
aI0
aI0
aI0
aI22
aI15
aI0
asS'Brad Hogg'
p185
(lp186
I3
aI3
aI0
aI0
aI1
aI0
aI0
aI0
aI7
aI7
aI0
asS'Moises Henriques'
p187
(lp188
I2
aI1
aI0
aI0
aI0
aI0
aI0
aI0
aI1
aI3
aI0
asS'Albie Morkel'
p189
(lp190
I1
aI2
aI0
aI0
aI0
aI0
aI0
aI0
aI2
aI3
aI0
asS'Harbhajan Singh'
p191
(lp192
I3
aI4
aI1
aI0
aI0
aI0
aI0
aI0
aI6
aI8
aI0
asS'James Faulkner'
p193
(lp194
I6
aI5
aI5
aI2
aI1
aI0
aI0
aI0
aI25
aI19
aI0
asS'Mitchell Starc'
p195
(lp196
I3
aI2
aI1
aI0
aI2
aI0
aI0
aI0
aI12
aI8
aI0
asS'Shane Watson'
p197
(lp198
I2
aI2
aI0
aI0
aI6
aI0
aI0
aI0
aI26
aI10
aI0
asS'Yuvraj Singh'
p199
(lp200
I2
aI0
aI0
aI0
aI0
aI0
aI0
aI0
aI0
aI2
aI0
asS'Ankit Sharma'
p201
(lp202
I4
aI4
aI0
aI0
aI0
aI0
aI0
aI0
aI4
aI8
aI0
asS'Amit Mishra'
p203
(lp204
I1
aI1
aI0
aI0
aI0
aI0
aI0
aI0
aI1
aI2
aI0
asS'Andre Russell'
p205
(lp206
I6
aI3
aI0
aI0
aI2
aI0
aI0
aI0
aI11
aI11
aI0
asS'Praveen Kumar'
p207
(lp208
I1
aI5
aI0
aI0
aI0
aI0
aI0
aI0
aI5
aI6
aI0
asS'Piyush Chawla'
p209
(lp210
I8
aI2
aI0
aI0
aI1
aI0
aI0
aI0
aI6
aI11
aI0
assS'Pawan Negi'
p211
(dp212
S'Lasith Malinga'
p213
(lp214
I2
aI2
aI0
aI0
aI0
aI0
aI0
aI0
aI2
aI4
aI0
asS'Yuzvendra Chahal'
p215
(lp216
I0
aI1
aI0
aI0
aI0
aI0
aI1
aI0
aI7
aI2
aI0
asS'Andre Russell'
p217
(lp218
I0
aI1
aI1
aI0
aI1
aI0
aI0
aI0
aI7
aI3
aI0
asS'Harshal Patel'
p219
(lp220
I0
aI1
aI2
aI0
aI0
aI0
aI1
aI0
aI11
aI4
aI0
asS'Brad Hogg'
p221
(lp222
I2
aI1
aI0
aI0
aI0
aI0
aI1
aI0
aI7
aI4
aI0
asS'Moises Henriques'
p223
(lp224
I3
aI0
aI0
aI0
aI0
aI0
aI0
aI0
aI0
aI3
aI0
asS'Bhuvneshwar Kumar'
p225
(lp226
I1
aI0
aI0
aI0
aI0
aI0
aI0
aI0
aI0
aI1
aI0
asS'Mitchell Starc'
p227
(lp228
I1
aI2
aI0
aI0
aI0
aI0
aI0
aI0
aI2
aI3
aI0
asS'Chris Morris'
p229
(lp230
I1
aI1
aI0
aI0
aI0
aI0
aI0
aI0
aI1
aI2
aI0
asS'Praveen Kumar'
p231
(lp232
I0
aI3
aI0
aI0
aI0
aI0
aI0
aI0
aI3
aI3
aI0
asS'Zaheer Khan'
p233
(lp234
I3
aI0
aI1
aI0
aI0
aI0
aI0
aI0
aI2
aI4
aI0
asS'Shane Watson'
p235
(lp236
I0
aI1
aI0
aI0
aI0
aI0
aI0
aI0
aI1
aI1
aI0
assS'Johan Botha'
p237
(dp238
S'Anureet Singh'
p239
(lp240
I1
aI0
aI0
aI0
aI0
aI0
aI0
aI0
aI0
aI1
aI0
asS'Moises Henriques'
p241
(lp242
I0
aI2
aI0
aI0
aI0
aI0
aI0
aI0
aI2
aI2
aI0
asS'Bhuvneshwar Kumar'
p243
(lp244
I1
aI0
aI0
aI0
aI0
aI0
aI1
aI0
aI6
aI2
aI0
asS'Axar Patel'
p245
(lp246
I0
aI2
aI0
aI0
aI0
aI0
aI0
aI0
aI2
aI2
aI0
asS'Dale Steyn'
p247
(lp248
I1
aI0
aI0
aI0
aI1
aI0
aI0
aI0
aI4
aI2
aI0
asS'Zaheer Khan'
p249
(lp250
I0
aI1
aI0
aI0
aI4
aI0
aI0
aI0
aI17
aI5
aI0
assS'MS Dhoni'
p251
(dp252
S'Harbhajan Singh'
p253
(lp254
I3
aI6
aI0
aI0
aI1
aI0
aI1
aI0
aI16
aI11
aI0
asS'Karanveer Singh'
p255
(lp256
I2
aI2
aI4
aI0
aI0
aI0
aI1
aI0
aI16
aI9
aI0
asS'Jean-Paul Duminy'
p257
(lp258
I0
aI1
aI1
aI0
aI0
aI0
aI0
aI0
aI3
aI2
aI0
asS'Stuart Binny'
p259
(lp260
I8
aI2
aI0
aI0
aI2
aI0
aI0
aI0
aI10
aI12
aI0
asS'Anureet Singh'
p261
(lp262
I3
aI5
aI2
aI0
aI1
aI0
aI2
aI0
aI25
aI13
aI0
asS'James Faulkner'
p263
(lp264
I9
aI8
aI0
aI0
aI3
aI0
aI1
aI0
aI26
aI21
aI0
asS'Mitchell Starc'
p265
(lp266
I2
aI5
aI2
aI0
aI2
aI0
aI0
aI0
aI17
aI11
aI0
asS'Axar Patel'
p267
(lp268
I2
aI2
aI1
aI0
aI0
aI0
aI1
aI0
aI10
aI6
aI0
asS'Amit Mishra'
p269
(lp270
I1
aI2
aI0
aI0
aI0
aI0
aI0
aI0
aI2
aI3
aI0
asS'Yuzvendra Chahal'
p271
(lp272
I7
aI7
aI0
aI0
aI0
aI0
aI1
aI0
aI13
aI15
aI0
asS'Imran Tahir'
p273
(lp274
I2
aI4
aI1
aI0
aI0
aI0
aI0
aI0
aI6
aI7
aI0
asS'Kieron Pollard'
p275
(lp276
I2
aI2
aI0
aI0
aI0
aI0
aI0
aI0
aI2
aI4
aI0
asS'Harshal Patel'
p277
(lp278
I7
aI6
aI2
aI0
aI2
aI0
aI0
aI0
aI18
aI17
aI0
asS'Shikhar Dhawan'
p279
(lp280
I3
aI0
aI0
aI0
aI0
aI0
aI0
aI0
aI0
aI3
aI0
asS'Moises Henriques'
p281
(lp282
I1
aI2
aI1
aI0
aI0
aI0
aI0
aI0
aI4
aI4
aI0
asS'Albie Morkel'
p283
(lp284
I2
aI3
aI0
aI0
aI1
aI0
aI0
aI0
aI7
aI6
aI0
asS'Brad Hogg'
p285
(lp286
I1
aI0
aI0
aI0
aI0
aI0
aI0
aI0
aI0
aI1
aI0
asS'Chris Morris'
p287
(lp288
I9
aI5
aI2
aI0
aI2
aI0
aI0
aI0
aI17
aI18
aI0
asS'Lasith Malinga'
p289
(lp290
I5
aI3
aI1
aI0
aI0
aI0
aI1
aI0
aI11
aI10
aI0
asS'Andre Russell'
p291
(lp292
I3
aI1
aI0
aI0
aI0
aI0
aI0
aI0
aI1
aI4
aI0
asS'Bhuvneshwar Kumar'
p293
(lp294
I1
aI2
aI1
aI0
aI0
aI0
aI1
aI0
aI10
aI5
aI0
asS'Yuvraj Singh'
p295
(lp296
I3
aI2
aI1
aI0
aI1
aI0
aI1
aI0
aI14
aI8
aI0
asS'Mitchell Johnson'
p297
(lp298
I1
aI0
aI0
aI0
aI2
aI0
aI0
aI0
aI8
aI3
aI0
asS'Piyush Chawla'
p299
(lp300
I2
aI3
aI0
aI0
aI0
aI0
aI0
aI0
aI3
aI5
aI0
asS'Praveen Kumar'
p301
(lp302
I0
aI2
aI0
aI0
aI0
aI0
aI0
aI0
aI2
aI2
aI0
asS'Zaheer Khan'
p303
(lp304
I1
aI0
aI0
aI0
aI0
aI0
aI0
aI0
aI0
aI1
aI0
asS'Shane Watson'
p305
(lp306
I8
aI4
aI0
aI0
aI2
aI0
aI0
aI0
aI12
aI14
aI0
assS'Faf du Plessis'
p307
(dp308
S'Harbhajan Singh'
p309
(lp310
I7
aI13
aI1
aI0
aI3
aI0
aI1
aI0
aI33
aI25
aI0
asS'Jean-Paul Duminy'
p311
(lp312
I3
aI0
aI2
aI0
aI1
aI0
aI0
aI0
aI8
aI6
aI0
asS'Rajat Bhatia'
p313
(lp314
I1
aI4
aI0
aI0
aI0
aI0
aI0
aI0
aI4
aI5
aI0
asS'Shikhar Dhawan'
p315
(lp316
I4
aI1
aI2
aI0
aI1
aI0
aI0
aI0
aI9
aI8
aI0
asS'Anureet Singh'
p317
(lp318
I1
aI2
aI0
aI0
aI0
aI0
aI0
aI0
aI2
aI3
aI0
asS'Virat Kohli'
p319
(lp320
I0
aI2
aI1
aI0
aI0
aI0
aI0
aI0
aI4
aI3
aI0
asS'James Faulkner'
p321
(lp322
I0
aI2
aI0
aI0
aI0
aI0
aI0
aI0
aI2
aI2
aI0
asS'Mitchell Starc'
p323
(lp324
I0
aI4
aI0
aI2
aI4
aI0
aI0
aI0
aI26
aI10
aI0
asS'Axar Patel'
p325
(lp326
I3
aI6
aI1
aI0
aI2
aI0
aI1
aI0
aI22
aI13
aI0
asS'Glenn Maxwell'
p327
(lp328
I1
aI1
aI0
aI0
aI1
aI0
aI0
aI0
aI5
aI3
aI0
asS'Amit Mishra'
p329
(lp330
I2
aI4
aI2
aI0
aI0
aI0
aI0
aI0
aI8
aI8
aI0
asS'Yuzvendra Chahal'
p331
(lp332
I5
aI8
aI1
aI0
aI0
aI0
aI0
aI0
aI10
aI14
aI0
asS'Imran Tahir'
p333
(lp334
I1
aI2
aI1
aI0
aI0
aI0
aI0
aI0
aI4
aI4
aI0
asS'Kieron Pollard'
p335
(lp336
I1
aI3
aI0
aI0
aI0
aI0
aI0
aI0
aI3
aI4
aI0
asS'Harshal Patel'
p337
(lp338
I4
aI3
aI0
aI0
aI0
aI0
aI0
aI0
aI3
aI7
aI0
asS'Moises Henriques'
p339
(lp340
I3
aI4
aI0
aI0
aI2
aI0
aI0
aI0
aI12
aI9
aI0
asS'Albie Morkel'
p341
(lp342
I4
aI4
aI1
aI0
aI3
aI0
aI0
aI0
aI18
aI12
aI0
asS'Ankit Sharma'
p343
(lp344
I9
aI3
aI0
aI1
aI2
aI0
aI0
aI0
aI14
aI15
aI0
asS'Brad Hogg'
p345
(lp346
I4
aI5
aI0
aI0
aI2
aI0
aI0
aI0
aI13
aI11
aI0
asS'Chris Morris'
p347
(lp348
I1
aI3
aI0
aI0
aI0
aI0
aI0
aI0
aI3
aI4
aI0
asS'Lasith Malinga'
p349
(lp350
I8
aI6
aI0
aI0
aI0
aI0
aI0
aI0
aI6
aI14
aI0
asS'Andre Russell'
p351
(lp352
I0
aI4
aI1
aI0
aI0
aI0
aI0
aI0
aI6
aI5
aI0
asS'Yuvraj Singh'
p353
(lp354
I2
aI5
aI0
aI0
aI1
aI0
aI0
aI0
aI9
aI8
aI0
asS'Piyush Chawla'
p355
(lp356
I4
aI6
aI2
aI0
aI3
aI0
aI0
aI0
aI22
aI15
aI0
asS'Praveen Kumar'
p357
(lp358
I0
aI2
aI1
aI0
aI1
aI0
aI0
aI0
aI8
aI4
aI0
assS'Sanju Samson'
p359
(dp360
S'Lasith Malinga'
p361
(lp362
I0
aI4
aI0
aI0
aI1
aI0
aI1
aI0
aI14
aI6
aI0
asS'Ashish Nehra'
p363
(lp364
I0
aI2
aI0
aI0
aI0
aI0
aI0
aI0
aI2
aI2
aI0
asS'Andre Russell'
p365
(lp366
I2
aI1
aI0
aI0
aI1
aI0
aI0
aI0
aI5
aI4
aI0
asS'Anureet Singh'
p367
(lp368
I1
aI3
aI0
aI1
aI2
aI0
aI0
aI0
aI14
aI7
aI0
asS'Harshal Patel'
p369
(lp370
I3
aI2
aI0
aI0
aI0
aI0
aI0
aI0
aI2
aI5
aI0
asS'Moises Henriques'
p371
(lp372
I0
aI1
aI0
aI0
aI0
aI0
aI0
aI0
aI1
aI1
aI0
asS'Dwayne Bravo'
p373
(lp374
I1
aI5
aI0
aI0
aI0
aI0
aI2
aI0
aI17
aI8
aI0
asS'Pawan Negi'
p375
(lp376
I1
aI1
aI0
aI0
aI1
aI0
aI0
aI0
aI5
aI3
aI0
asS'Harbhajan Singh'
p377
(lp378
I6
aI6
aI2
aI0
aI3
aI0
aI0
aI0
aI22
aI17
aI0
asS'Bhuvneshwar Kumar'
p379
(lp380
I11
aI6
aI2
aI0
aI0
aI0
aI2
aI0
aI22
aI21
aI0
asS'Angelo Mathews'
p381
(lp382
I3
aI1
aI0
aI0
aI0
aI0
aI0
aI0
aI1
aI4
aI0
asS'Yuzvendra Chahal'
p383
(lp384
I3
aI0
aI1
aI0
aI0
aI0
aI0
aI0
aI2
aI4
aI0
asS'Praveen Kumar'
p385
(lp386
I12
aI4
aI8
aI0
aI4
aI0
aI0
aI0
aI36
aI28
aI0
asS'Ravindra Jadeja'
p387
(lp388
I2
aI2
aI0
aI0
aI0
aI0
aI0
aI0
aI2
aI4
aI0
assS'Dale Steyn'
p389
(dp390
S'Lasith Malinga'
p391
(lp392
I1
aI1
aI0
aI0
aI0
aI0
aI0
aI0
aI1
aI2
aI0
asS'Kieron Pollard'
p393
(lp394
I1
aI2
aI1
aI0
aI1
aI0
aI0
aI0
aI8
aI5
aI0
asS'Andre Russell'
p395
(lp396
I0
aI1
aI0
aI0
aI0
aI0
aI0
aI0
aI1
aI1
aI0
assS'Karanveer Singh'
p397
(dp398
S'Mitchell Starc'
p399
(lp400
I3
aI1
aI1
aI0
aI0
aI0
aI0
aI0
aI3
aI5
aI0
asS'Dwayne Bravo'
p401
(lp402
I2
aI2
aI0
aI0
aI0
aI0
aI0
aI0
aI2
aI4
aI0
asS'Chris Morris'
p403
(lp404
I2
aI1
aI0
aI0
aI1
aI0
aI0
aI0
aI5
aI4
aI0
asS'Harshal Patel'
p405
(lp406
I1
aI1
aI0
aI0
aI0
aI0
aI0
aI0
aI1
aI2
aI0
assS'Eoin Morgan'
p407
(dp408
S'Lasith Malinga'
p409
(lp410
I2
aI0
aI0
aI0
aI0
aI0
aI0
aI0
aI0
aI2
aI0
asS'Stuart Binny'
p411
(lp412
I6
aI6
aI2
aI0
aI2
aI0
aI0
aI0
aI18
aI16
aI0
asS'Ashish Nehra'
p413
(lp414
I0
aI1
aI0
aI0
aI0
aI0
aI0
aI0
aI1
aI1
aI0
asS'Chris Morris'
p415
(lp416
I0
aI1
aI1
aI0
aI2
aI0
aI1
aI0
aI17
aI5
aI0
asS'Suresh Raina'
p417
(lp418
I4
aI3
aI0
aI0
aI0
aI0
aI0
aI0
aI3
aI7
aI0
asS'Brad Hogg'
p419
(lp420
I1
aI0
aI0
aI0
aI0
aI0
aI0
aI0
aI0
aI1
aI0
asS'Glenn Maxwell'
p421
(lp422
I1
aI1
aI0
aI0
aI1
aI0
aI2
aI0
aI17
aI5
aI0
asS'Dhawal Kulkarni'
p423
(lp424
I10
aI2
aI0
aI0
aI0
aI0
aI0
aI0
aI2
aI12
aI0
asS'Dwayne Bravo'
p425
(lp426
I1
aI5
aI0
aI0
aI0
aI0
aI0
aI0
aI5
aI6
aI0
asS'Pawan Negi'
p427
(lp428
I1
aI1
aI0
aI0
aI0
aI0
aI1
aI0
aI7
aI3
aI0
asS'Johan Botha'
p429
(lp430
I2
aI2
aI0
aI0
aI0
aI0
aI0
aI0
aI2
aI4
aI0
asS'James Faulkner'
p431
(lp432
I6
aI8
aI0
aI0
aI0
aI0
aI2
aI0
aI20
aI16
aI0
asS'Mitchell Starc'
p433
(lp434
I2
aI1
aI1
aI0
aI0
aI0
aI1
aI0
aI9
aI5
aI0
asS'Shane Watson'
p435
(lp436
I2
aI1
aI2
aI0
aI1
aI0
aI2
aI0
aI21
aI8
aI0
asS'Amit Mishra'
p437
(lp438
I1
aI3
aI0
aI0
aI0
aI0
aI0
aI0
aI3
aI4
aI0
asS'Jean-Paul Duminy'
p439
(lp440
I4
aI4
aI0
aI0
aI1
aI0
aI0
aI0
aI8
aI9
aI0
asS'Zaheer Khan'
p441
(lp442
I1
aI2
aI0
aI0
aI1
aI0
aI0
aI0
aI6
aI4
aI0
asS'Piyush Chawla'
p443
(lp444
I2
aI2
aI0
aI0
aI0
aI0
aI0
aI0
aI2
aI4
aI0
assS'Angelo Mathews'
p445
(dp446
S'Lasith Malinga'
p447
(lp448
I0
aI1
aI0
aI0
aI1
aI0
aI0
aI0
aI5
aI2
aI0
asS'Stuart Binny'
p449
(lp450
I2
aI0
aI0
aI0
aI1
aI0
aI0
aI0
aI4
aI3
aI0
asS'Piyush Chawla'
p451
(lp452
I0
aI6
aI0
aI0
aI1
aI0
aI0
aI0
aI10
aI7
aI0
asS'Chris Morris'
p453
(lp454
I1
aI3
aI0
aI0
aI0
aI0
aI0
aI0
aI3
aI4
aI0
asS'Anureet Singh'
p455
(lp456
I0
aI2
aI0
aI0
aI0
aI0
aI0
aI0
aI2
aI2
aI0
asS'Varun Aaron'
p457
(lp458
I1
aI0
aI0
aI0
aI0
aI0
aI0
aI0
aI0
aI1
aI0
asS'Harshal Patel'
p459
(lp460
I2
aI1
aI0
aI0
aI0
aI0
aI0
aI0
aI1
aI3
aI0
asS'Morne Morkel'
p461
(lp462
I0
aI2
aI0
aI0
aI0
aI0
aI0
aI0
aI2
aI2
aI0
asS'Harbhajan Singh'
p463
(lp464
I0
aI1
aI0
aI0
aI0
aI0
aI0
aI0
aI1
aI1
aI0
asS'James Faulkner'
p465
(lp466
I5
aI2
aI3
aI0
aI2
aI0
aI1
aI0
aI22
aI13
aI0
asS'Brad Hogg'
p467
(lp468
I0
aI1
aI1
aI0
aI0
aI0
aI1
aI0
aI9
aI3
aI0
asS'Shane Watson'
p469
(lp470
I4
aI0
aI1
aI0
aI1
aI0
aI0
aI0
aI6
aI6
aI0
asS'Axar Patel'
p471
(lp472
I2
aI2
aI0
aI0
aI2
aI0
aI0
aI0
aI10
aI6
aI0
asS'Sunil Narine'
p473
(lp474
I2
aI5
aI2
aI0
aI2
aI0
aI4
aI0
aI41
aI15
aI0
asS'Andre Russell'
p475
(lp476
I10
aI3
aI0
aI0
aI1
aI0
aI0
aI0
aI7
aI14
aI0
asS'Praveen Kumar'
p477
(lp478
I0
aI4
aI0
aI0
aI0
aI0
aI2
aI0
aI16
aI6
aI0
asS'Bhuvneshwar Kumar'
p479
(lp480
I2
aI10
aI0
aI0
aI0
aI0
aI0
aI0
aI10
aI12
aI0
asS'Rajat Bhatia'
p481
(lp482
I0
aI1
aI0
aI0
aI0
aI0
aI0
aI0
aI1
aI1
aI0
assS'Quinton de Kock'
p483
(dp484
S'Harshal Patel'
p485
(lp486
I3
aI3
aI0
aI0
aI2
aI0
aI0
aI0
aI11
aI8
aI0
asS'Moises Henriques'
p487
(lp488
I1
aI1
aI0
aI0
aI1
aI0
aI0
aI0
aI5
aI3
aI0
asS'Bhuvneshwar Kumar'
p489
(lp490
I1
aI2
aI0
aI0
aI1
aI0
aI0
aI0
aI6
aI4
aI0
asS'Mitchell Starc'
p491
(lp492
I3
aI2
aI0
aI0
aI1
aI0
aI0
aI0
aI6
aI6
aI0
asS'Chris Gayle'
p493
(lp494
I3
aI3
aI0
aI0
aI0
aI0
aI0
aI0
aI3
aI6
aI0
asS'Yuzvendra Chahal'
p495
(lp496
I1
aI0
aI0
aI0
aI0
aI0
aI0
aI0
aI0
aI1
aI0
asS'Praveen Kumar'
p497
(lp498
I2
aI0
aI0
aI0
aI3
aI0
aI0
aI0
aI12
aI5
aI0
assS'Jean-Paul Duminy'
p499
(dp500
S'Dhawal Kulkarni'
p501
(lp502
I0
aI4
aI1
aI0
aI0
aI0
aI0
aI0
aI6
aI5
aI0
asS'Dwayne Bravo'
p503
(lp504
I0
aI2
aI0
aI0
aI0
aI0
aI0
aI0
aI2
aI2
aI0
asS'Harbhajan Singh'
p505
(lp506
I6
aI7
aI2
aI0
aI0
aI0
aI0
aI0
aI11
aI15
aI0
asS'Dale Steyn'
p507
(lp508
I8
aI6
aI0
aI0
aI2
aI0
aI2
aI0
aI26
aI18
aI0
asS'Rajat Bhatia'
p509
(lp510
I2
aI3
aI1
aI0
aI1
aI0
aI1
aI0
aI15
aI8
aI0
asS'Stuart Binny'
p511
(lp512
I1
aI0
aI0
aI0
aI1
aI0
aI1
aI0
aI10
aI3
aI0
asS'Chris Morris'
p513
(lp514
I1
aI3
aI1
aI0
aI0
aI0
aI2
aI0
aI17
aI7
aI0
asS'Anureet Singh'
p515
(lp516
I6
aI2
aI0
aI0
aI2
aI0
aI0
aI0
aI10
aI10
aI0
asS'Varun Aaron'
p517
(lp518
I3
aI1
aI0
aI0
aI1
aI0
aI0
aI0
aI5
aI5
aI0
asS'James Faulkner'
p519
(lp520
I8
aI5
aI3
aI0
aI1
aI0
aI1
aI0
aI21
aI18
aI0
asS'Mitchell Starc'
p521
(lp522
I4
aI3
aI4
aI0
aI3
aI0
aI0
aI0
aI23
aI14
aI0
asS'Axar Patel'
p523
(lp524
I2
aI0
aI0
aI0
aI0
aI0
aI0
aI0
aI0
aI2
aI0
asS'Chris Gayle'
p525
(lp526
I1
aI3
aI1
aI0
aI0
aI0
aI1
aI0
aI11
aI6
aI0
asS'Yuzvendra Chahal'
p527
(lp528
I3
aI6
aI0
aI0
aI0
aI0
aI2
aI0
aI18
aI11
aI0
asS'Kieron Pollard'
p529
(lp530
I0
aI4
aI0
aI0
aI1
aI0
aI2
aI0
aI20
aI7
aI0
asS'Harshal Patel'
p531
(lp532
I4
aI4
aI0
aI0
aI2
aI0
aI0
aI0
aI12
aI10
aI0
asS'Shikhar Dhawan'
p533
(lp534
I4
aI4
aI0
aI0
aI0
aI0
aI0
aI0
aI4
aI8
aI0
asS'Moises Henriques'
p535
(lp536
I1
aI2
aI0
aI0
aI0
aI0
aI0
aI0
aI2
aI3
aI0
asS'Brad Hogg'
p537
(lp538
I0
aI2
aI0
aI0
aI0
aI0
aI0
aI0
aI2
aI2
aI0
asS'Sunil Narine'
p539
(lp540
I7
aI4
aI0
aI0
aI1
aI0
aI1
aI0
aI14
aI13
aI0
asS'Johan Botha'
p541
(lp542
I0
aI2
aI0
aI0
aI1
aI0
aI0
aI0
aI6
aI3
aI0
asS'Morne Morkel'
p543
(lp544
I4
aI0
aI0
aI0
aI0
aI0
aI0
aI0
aI0
aI4
aI0
asS'Lasith Malinga'
p545
(lp546
I9
aI4
aI0
aI0
aI1
aI0
aI0
aI0
aI8
aI14
aI0
asS'Jasprit Bumrah'
p547
(lp548
I3
aI5
aI1
aI0
aI1
aI0
aI4
aI0
aI35
aI14
aI0
asS'Bhuvneshwar Kumar'
p549
(lp550
I14
aI1
aI4
aI0
aI0
aI0
aI0
aI0
aI9
aI19
aI0
asS'Mitchell Johnson'
p551
(lp552
I2
aI4
aI0
aI0
aI2
aI0
aI0
aI0
aI12
aI8
aI0
asS'Piyush Chawla'
p553
(lp554
I1
aI3
aI0
aI0
aI0
aI0
aI0
aI0
aI3
aI4
aI0
asS'Praveen Kumar'
p555
(lp556
I3
aI4
aI0
aI0
aI0
aI0
aI0
aI0
aI4
aI7
aI0
asS'Shane Watson'
p557
(lp558
I6
aI2
aI1
aI0
aI0
aI0
aI1
aI0
aI10
aI10
aI0
assS'Brendon McCullum'
p559
(dp560
S'Lasith Malinga'
p561
(lp562
I4
aI4
aI0
aI0
aI6
aI0
aI2
aI0
aI40
aI16
aI0
asS'Bhuvneshwar Kumar'
p563
(lp564
I6
aI2
aI0
aI0
aI0
aI0
aI1
aI0
aI8
aI9
aI0
asS'Piyush Chawla'
p565
(lp566
I3
aI0
aI0
aI0
aI1
aI0
aI0
aI0
aI4
aI4
aI0
asS'Chris Morris'
p567
(lp568
I1
aI0
aI0
aI0
aI1
aI0
aI0
aI0
aI4
aI2
aI0
asS'Anureet Singh'
p569
(lp570
I1
aI3
aI1
aI0
aI0
aI0
aI1
aI0
aI11
aI6
aI0
asS'Harshal Patel'
p571
(lp572
I0
aI1
aI0
aI0
aI0
aI0
aI0
aI0
aI1
aI1
aI0
asS'Brad Hogg'
p573
(lp574
I1
aI0
aI0
aI0
aI0
aI0
aI0
aI0
aI0
aI1
aI0
asS'Harbhajan Singh'
p575
(lp576
I2
aI2
aI2
aI0
aI6
aI0
aI0
aI0
aI30
aI12
aI0
asS'James Faulkner'
p577
(lp578
I6
aI5
aI2
aI0
aI3
aI0
aI0
aI0
aI21
aI16
aI0
asS'Mitchell Starc'
p579
(lp580
I6
aI0
aI1
aI0
aI4
aI0
aI0
aI0
aI18
aI11
aI0
asS'Shane Watson'
p581
(lp582
I3
aI2
aI0
aI0
aI1
aI0
aI1
aI0
aI12
aI7
aI0
asS'Axar Patel'
p583
(lp584
I5
aI2
aI0
aI0
aI2
aI0
aI0
aI0
aI10
aI9
aI0
asS'Mitchell Johnson'
p585
(lp586
I8
aI2
aI1
aI0
aI2
aI0
aI1
aI0
aI18
aI14
aI0
asS'Ankit Sharma'
p587
(lp588
I10
aI5
aI0
aI0
aI5
aI0
aI0
aI0
aI25
aI20
aI0
asS'Yuzvendra Chahal'
p589
(lp590
I9
aI1
aI0
aI0
aI1
aI0
aI0
aI0
aI5
aI11
aI0
asS'Zaheer Khan'
p591
(lp592
I8
aI2
aI0
aI0
aI0
aI0
aI0
aI0
aI2
aI10
aI0
asS'Rajat Bhatia'
p593
(lp594
I4
aI5
aI2
aI0
aI1
aI0
aI1
aI0
aI19
aI13
aI0
assS'Rajat Bhatia'
p595
(dp596
sS'Stuart Binny'
p597
(dp598
S'Imran Tahir'
p599
(lp600
I1
aI1
aI0
aI0
aI0
aI0
aI0
aI0
aI1
aI2
aI0
asS'Lasith Malinga'
p601
(lp602
I0
aI2
aI0
aI0
aI0
aI0
aI0
aI0
aI2
aI2
aI0
asS'Anureet Singh'
p603
(lp604
I0
aI2
aI0
aI0
aI2
aI0
aI2
aI0
aI22
aI6
aI0
asS'Harshal Patel'
p605
(lp606
I3
aI1
aI0
aI0
aI1
aI0
aI0
aI0
aI5
aI5
aI0
asS'Bhuvneshwar Kumar'
p607
(lp608
I0
aI6
aI0
aI0
aI0
aI0
aI0
aI0
aI6
aI6
aI0
asS'Mitchell Starc'
p609
(lp610
I2
aI1
aI0
aI0
aI0
aI0
aI0
aI0
aI1
aI3
aI0
asS'Mitchell Johnson'
p611
(lp612
I8
aI0
aI0
aI0
aI0
aI0
aI0
aI0
aI0
aI8
aI0
asS'Karanveer Singh'
p613
(lp614
I0
aI4
aI0
aI0
aI1
aI0
aI0
aI0
aI8
aI5
aI0
asS'Yuzvendra Chahal'
p615
(lp616
I2
aI2
aI1
aI0
aI1
aI0
aI0
aI0
aI8
aI6
aI0
asS'Praveen Kumar'
p617
(lp618
I0
aI5
aI0
aI0
aI0
aI0
aI0
aI0
aI5
aI5
aI0
assS'Mayank Agarwal'
p619
(dp620
S'Lasith Malinga'
p621
(lp622
I1
aI0
aI0
aI0
aI0
aI0
aI0
aI0
aI0
aI1
aI0
asS'Stuart Binny'
p623
(lp624
I2
aI0
aI0
aI0
aI0
aI0
aI1
aI0
aI6
aI3
aI0
asS'Ashish Nehra'
p625
(lp626
I6
aI0
aI0
aI0
aI2
aI0
aI0
aI0
aI8
aI8
aI0
asS'Anureet Singh'
p627
(lp628
I15
aI9
aI2
aI0
aI7
aI0
aI0
aI0
aI41
aI33
aI0
asS'Harshal Patel'
p629
(lp630
I1
aI4
aI0
aI0
aI0
aI0
aI0
aI0
aI4
aI5
aI0
asS'Varun Aaron'
p631
(lp632
I6
aI5
aI0
aI0
aI1
aI0
aI1
aI0
aI15
aI13
aI0
asS'Shikhar Dhawan'
p633
(lp634
I0
aI8
aI2
aI0
aI2
aI0
aI0
aI0
aI20
aI12
aI0
asS'Glenn Maxwell'
p635
(lp636
I2
aI4
aI0
aI0
aI0
aI0
aI2
aI0
aI16
aI8
aI0
asS'Dhawal Kulkarni'
p637
(lp638
I1
aI0
aI1
aI0
aI4
aI0
aI0
aI0
aI18
aI6
aI0
asS'Bhuvneshwar Kumar'
p639
(lp640
I2
aI0
aI0
aI0
aI0
aI0
aI0
aI0
aI0
aI2
aI0
asS'Mitchell Starc'
p641
(lp642
I5
aI1
aI0
aI0
aI0
aI0
aI0
aI0
aI1
aI6
aI0
asS'Axar Patel'
p643
(lp644
I5
aI18
aI0
aI0
aI0
aI0
aI0
aI0
aI18
aI23
aI0
asS'Mitchell Johnson'
p645
(lp646
I2
aI12
aI0
aI0
aI4
aI0
aI2
aI0
aI40
aI20
aI0
asS'Chris Morris'
p647
(lp648
I2
aI1
aI0
aI0
aI1
aI0
aI0
aI0
aI5
aI4
aI0
asS'Praveen Kumar'
p649
(lp650
I2
aI2
aI0
aI0
aI0
aI0
aI0
aI0
aI2
aI4
aI0
asS'Morne Morkel'
p651
(lp652
I4
aI0
aI0
aI0
aI0
aI0
aI0
aI0
aI0
aI4
aI0
assS'Kane Williamson'
p653
(dp654
S'Dwayne Bravo'
p655
(lp656
I1
aI5
aI0
aI0
aI0
aI0
aI0
aI0
aI5
aI6
aI0
asS'Yuzvendra Chahal'
p657
(lp658
I1
aI3
aI0
aI0
aI0
aI0
aI0
aI0
aI3
aI4
aI0
asS'Ashish Nehra'
p659
(lp660
I1
aI2
aI1
aI0
aI0
aI0
aI0
aI0
aI4
aI4
aI0
asS'Harshal Patel'
p661
(lp662
I3
aI2
aI0
aI0
aI0
aI0
aI0
aI0
aI2
aI5
aI0
asS'Ravindra Jadeja'
p663
(lp664
I0
aI2
aI1
aI0
aI0
aI0
aI0
aI0
aI4
aI3
aI0
assS'Anureet Singh'
p665
(dp666
S'Imran Tahir'
p667
(lp668
I0
aI2
aI0
aI0
aI0
aI0
aI1
aI0
aI8
aI3
aI0
asS'Bhuvneshwar Kumar'
p669
(lp670
I1
aI0
aI0
aI0
aI0
aI0
aI0
aI0
aI0
aI1
aI0
asS'Dwayne Bravo'
p671
(lp672
I3
aI5
aI0
aI0
aI0
aI0
aI0
aI0
aI5
aI8
aI0
asS'Morne Morkel'
p673
(lp674
I2
aI0
aI0
aI0
aI0
aI0
aI0
aI0
aI0
aI2
aI0
asS'Ashish Nehra'
p675
(lp676
I4
aI1
aI0
aI0
aI0
aI0
aI0
aI0
aI1
aI5
aI0
asS'James Faulkner'
p677
(lp678
I1
aI0
aI0
aI0
aI0
aI0
aI0
aI0
aI0
aI1
aI0
asS'Mitchell Starc'
p679
(lp680
I2
aI0
aI0
aI0
aI0
aI0
aI0
aI0
aI0
aI2
aI0
asS'Ravichandran Ashwin'
p681
(lp682
I0
aI2
aI0
aI0
aI0
aI0
aI0
aI0
aI2
aI2
aI0
asS'Chris Morris'
p683
(lp684
I2
aI0
aI0
aI0
aI0
aI0
aI0
aI0
aI0
aI2
aI0
asS'Praveen Kumar'
p685
(lp686
I1
aI0
aI0
aI0
aI0
aI0
aI0
aI0
aI0
aI1
aI0
asS'Ravindra Jadeja'
p687
(lp688
I0
aI1
aI0
aI0
aI0
aI0
aI0
aI0
aI1
aI1
aI0
assS'Morne Morkel'
p689
(dp690
S'Chris Morris'
p691
(lp692
I0
aI2
aI1
aI0
aI0
aI0
aI0
aI0
aI4
aI3
aI0
assS'Gautam Gambhir'
p693
(dp694
S'Ashish Nehra'
p695
(lp696
I3
aI3
aI1
aI0
aI0
aI0
aI1
aI0
aI11
aI8
aI0
asS'Harbhajan Singh'
p697
(lp698
I4
aI9
aI2
aI0
aI6
aI0
aI0
aI0
aI37
aI21
aI0
asS'Moises Henriques'
p699
(lp700
I2
aI1
aI0
aI0
aI1
aI0
aI0
aI0
aI5
aI4
aI0
asS'Dale Steyn'
p701
(lp702
I11
aI5
aI2
aI0
aI2
aI0
aI0
aI0
aI17
aI20
aI0
asS'Angelo Mathews'
p703
(lp704
I4
aI12
aI0
aI0
aI10
aI0
aI0
aI0
aI52
aI26
aI0
asS'Darren Sammy'
p705
(lp706
I1
aI2
aI0
aI0
aI1
aI0
aI0
aI0
aI6
aI4
aI0
asS'Jean-Paul Duminy'
p707
(lp708
I0
aI3
aI0
aI0
aI2
aI0
aI0
aI0
aI11
aI5
aI0
asS'Anureet Singh'
p709
(lp710
I10
aI2
aI0
aI0
aI3
aI0
aI0
aI0
aI14
aI15
aI0
asS'Varun Aaron'
p711
(lp712
I7
aI3
aI1
aI0
aI3
aI0
aI0
aI0
aI17
aI14
aI0
asS'Corey Anderson'
p713
(lp714
I1
aI1
aI0
aI0
aI0
aI0
aI0
aI0
aI1
aI2
aI0
asS'Mitchell Starc'
p715
(lp716
I0
aI1
aI0
aI0
aI1
aI0
aI0
aI0
aI5
aI2
aI0
asS'Axar Patel'
p717
(lp718
I3
aI1
aI0
aI0
aI0
aI0
aI0
aI0
aI1
aI4
aI0
asS'Albie Morkel'
p719
(lp720
I0
aI1
aI0
aI0
aI0
aI0
aI0
aI0
aI1
aI1
aI0
asS'Yuzvendra Chahal'
p721
(lp722
I3
aI3
aI2
aI0
aI1
aI0
aI0
aI0
aI11
aI9
aI0
asS'Imran Tahir'
p723
(lp724
I8
aI16
aI0
aI0
aI0
aI0
aI0
aI0
aI16
aI24
aI0
asS'Harshal Patel'
p725
(lp726
I3
aI4
aI0
aI0
aI0
aI0
aI0
aI0
aI4
aI7
aI0
asS'Pragyan Ojha'
p727
(lp728
I1
aI4
aI2
aI0
aI0
aI0
aI1
aI0
aI14
aI8
aI0
asS'Glenn Maxwell'
p729
(lp730
I0
aI2
aI0
aI0
aI0
aI0
aI0
aI0
aI2
aI2
aI0
asS'Chris Morris'
p731
(lp732
I2
aI1
aI0
aI0
aI0
aI0
aI0
aI0
aI1
aI3
aI0
asS'Lasith Malinga'
p733
(lp734
I4
aI2
aI1
aI0
aI1
aI0
aI0
aI0
aI8
aI8
aI0
asS'Jasprit Bumrah'
p735
(lp736
I3
aI1
aI0
aI0
aI1
aI0
aI0
aI0
aI5
aI5
aI0
asS'Bhuvneshwar Kumar'
p737
(lp738
I2
aI6
aI0
aI0
aI2
aI0
aI0
aI0
aI14
aI10
aI0
asS'Amit Mishra'
p739
(lp740
I0
aI10
aI2
aI0
aI0
aI0
aI0
aI0
aI14
aI12
aI0
asS'Mitchell Johnson'
p741
(lp742
I2
aI2
aI0
aI0
aI0
aI0
aI0
aI0
aI2
aI4
aI0
asS'Praveen Kumar'
p743
(lp744
I2
aI1
aI0
aI0
aI0
aI0
aI0
aI0
aI1
aI3
aI0
asS'Zaheer Khan'
p745
(lp746
I4
aI2
aI0
aI0
aI0
aI0
aI0
aI0
aI2
aI6
aI0
assS'Virat Kohli'
p747
(dp748
S'Ashish Nehra'
p749
(lp750
I17
aI6
aI3
aI0
aI2
aI0
aI1
aI0
aI26
aI29
aI0
asS'Dhawal Kulkarni'
p751
(lp752
I8
aI10
aI3
aI0
aI1
aI0
aI0
aI0
aI20
aI22
aI0
asS'Pawan Negi'
p753
(lp754
I3
aI2
aI3
aI0
aI0
aI0
aI1
aI0
aI14
aI9
aI0
asS'Harbhajan Singh'
p755
(lp756
I6
aI10
aI1
aI0
aI0
aI0
aI3
aI0
aI30
aI20
aI0
asS'Dale Steyn'
p757
(lp758
I1
aI0
aI1
aI0
aI1
aI0
aI0
aI0
aI6
aI3
aI0
asS'Angelo Mathews'
p759
(lp760
I1
aI1
aI0
aI0
aI0
aI0
aI0
aI0
aI1
aI2
aI0
asS'Jean-Paul Duminy'
p761
(lp762
I1
aI2
aI0
aI0
aI0
aI0
aI0
aI0
aI2
aI3
aI0
asS'Anureet Singh'
p763
(lp764
I3
aI3
aI1
aI0
aI3
aI0
aI1
aI0
aI23
aI11
aI0
asS'Morne Morkel'
p765
(lp766
I8
aI1
aI0
aI1
aI0
aI0
aI1
aI0
aI10
aI11
aI0
asS'James Faulkner'
p767
(lp768
I2
aI4
aI2
aI0
aI0
aI0
aI0
aI0
aI8
aI8
aI0
asS'Axar Patel'
p769
(lp770
I2
aI3
aI0
aI0
aI0
aI0
aI1
aI0
aI9
aI6
aI0
asS'Ankit Sharma'
p771
(lp772
I3
aI2
aI0
aI0
aI0
aI0
aI0
aI0
aI2
aI5
aI0
asS'Amit Mishra'
p773
(lp774
I2
aI3
aI0
aI0
aI3
aI0
aI0
aI0
aI15
aI8
aI0
asS'Andre Russell'
p775
(lp776
I1
aI0
aI0
aI0
aI0
aI0
aI0
aI0
aI0
aI1
aI0
asS'Ravindra Jadeja'
p777
(lp778
I12
aI15
aI3
aI0
aI3
aI0
aI2
aI0
aI45
aI35
aI0
asS'Imran Tahir'
p779
(lp780
I0
aI3
aI0
aI0
aI1
aI0
aI0
aI0
aI7
aI4
aI0
asS'Dwayne Bravo'
p781
(lp782
I4
aI3
aI3
aI0
aI4
aI0
aI0
aI0
aI25
aI14
aI0
asS'Moises Henriques'
p783
(lp784
I1
aI2
aI0
aI0
aI0
aI0
aI0
aI0
aI2
aI3
aI0
asS'Glenn Maxwell'
p785
(lp786
I0
aI3
aI0
aI0
aI1
aI0
aI0
aI0
aI7
aI4
aI0
asS'Brad Hogg'
p787
(lp788
I0
aI2
aI0
aI0
aI0
aI0
aI0
aI0
aI2
aI2
aI0
asS'Sunil Narine'
p789
(lp790
I1
aI3
aI0
aI0
aI0
aI0
aI0
aI0
aI3
aI4
aI0
asS'Chris Morris'
p791
(lp792
I1
aI7
aI0
aI0
aI0
aI0
aI0
aI0
aI7
aI8
aI0
asS'Lasith Malinga'
p793
(lp794
I1
aI4
aI0
aI0
aI0
aI0
aI0
aI0
aI4
aI5
aI0
asS'Jasprit Bumrah'
p795
(lp796
I7
aI11
aI3
aI0
aI4
aI0
aI1
aI0
aI39
aI26
aI0
asS'Bhuvneshwar Kumar'
p797
(lp798
I3
aI2
aI0
aI0
aI3
aI0
aI1
aI0
aI20
aI9
aI0
asS'Ravichandran Ashwin'
p799
(lp800
I2
aI4
aI0
aI0
aI2
aI0
aI2
aI0
aI24
aI10
aI0
asS'Mitchell Johnson'
p801
(lp802
I6
aI1
aI1
aI0
aI1
aI0
aI0
aI0
aI7
aI9
aI0
asS'Piyush Chawla'
p803
(lp804
I0
aI2
aI0
aI0
aI0
aI0
aI1
aI0
aI8
aI3
aI0
asS'Praveen Kumar'
p805
(lp806
I6
aI3
aI1
aI0
aI1
aI0
aI2
aI0
aI21
aI13
aI0
asS'Shane Watson'
p807
(lp808
I1
aI5
aI2
aI0
aI0
aI0
aI1
aI0
aI15
aI9
aI0
assS'Sarfaraz Khan'
p809
(dp810
S'Stuart Binny'
p811
(lp812
I1
aI0
aI0
aI0
aI0
aI0
aI0
aI0
aI0
aI1
aI0
asS'Dwayne Bravo'
p813
(lp814
I2
aI4
aI1
aI0
aI2
aI0
aI0
aI0
aI14
aI9
aI0
asS'Anureet Singh'
p815
(lp816
I2
aI4
aI0
aI0
aI1
aI0
aI0
aI0
aI8
aI7
aI0
asS'Suresh Raina'
p817
(lp818
I0
aI1
aI0
aI0
aI0
aI0
aI0
aI0
aI1
aI1
aI0
asS'Dhawal Kulkarni'
p819
(lp820
I0
aI0
aI0
aI0
aI1
aI0
aI0
aI0
aI4
aI1
aI0
asS'Ashish Nehra'
p821
(lp822
I3
aI3
aI0
aI0
aI0
aI0
aI0
aI0
aI3
aI6
aI0
asS'Pawan Negi'
p823
(lp824
I2
aI1
aI1
aI0
aI0
aI0
aI0
aI0
aI3
aI4
aI0
asS'James Faulkner'
p825
(lp826
I0
aI2
aI0
aI0
aI1
aI0
aI0
aI0
aI6
aI3
aI0
asS'Axar Patel'
p827
(lp828
I0
aI4
aI0
aI0
aI0
aI0
aI0
aI0
aI4
aI4
aI0
asS'Chris Morris'
p829
(lp830
I0
aI1
aI0
aI0
aI0
aI0
aI0
aI0
aI1
aI1
aI0
asS'Ravindra Jadeja'
p831
(lp832
I5
aI2
aI4
aI0
aI2
aI0
aI2
aI0
aI30
aI15
aI0
asS'Shane Watson'
p833
(lp834
I0
aI3
aI0
aI0
aI2
aI0
aI0
aI0
aI11
aI5
aI0
assS'Albie Morkel'
p835
(dp836
S'Dwayne Bravo'
p837
(lp838
I3
aI7
aI2
aI0
aI3
aI0
aI1
aI0
aI29
aI16
aI0
asS'Ravichandran Ashwin'
p839
(lp840
I9
aI7
aI1
aI0
aI1
aI0
aI0
aI0
aI13
aI18
aI0
asS'Ashish Nehra'
p841
(lp842
I1
aI4
aI0
aI0
aI0
aI0
aI0
aI0
aI4
aI5
aI0
asS'Pawan Negi'
p843
(lp844
I1
aI1
aI0
aI0
aI0
aI0
aI1
aI0
aI7
aI3
aI0
assS'Naman Ojha'
p845
(dp846
S'Imran Tahir'
p847
(lp848
I2
aI4
aI0
aI0
aI0
aI0
aI0
aI0
aI4
aI6
aI0
asS'Stuart Binny'
p849
(lp850
I2
aI6
aI0
aI0
aI0
aI0
aI0
aI0
aI6
aI8
aI0
asS'Ashish Nehra'
p851
(lp852
I1
aI0
aI0
aI0
aI0
aI0
aI0
aI0
aI0
aI1
aI0
asS'Anureet Singh'
p853
(lp854
I6
aI4
aI0
aI0
aI2
aI0
aI0
aI0
aI12
aI12
aI0
asS'Morne Morkel'
p855
(lp856
I0
aI2
aI0
aI0
aI2
aI0
aI0
aI0
aI10
aI4
aI0
asS'Shikhar Dhawan'
p857
(lp858
I1
aI2
aI0
aI0
aI1
aI0
aI0
aI0
aI6
aI4
aI0
asS'Dhawal Kulkarni'
p859
(lp860
I8
aI2
aI0
aI0
aI0
aI0
aI0
aI0
aI2
aI10
aI0
asS'Dwayne Bravo'
p861
(lp862
I5
aI1
aI1
aI0
aI0
aI0
aI0
aI0
aI3
aI7
aI0
asS'James Faulkner'
p863
(lp864
I6
aI3
aI0
aI0
aI5
aI0
aI0
aI0
aI23
aI14
aI0
asS'Axar Patel'
p865
(lp866
I2
aI2
aI1
aI0
aI0
aI0
aI0
aI0
aI4
aI5
aI0
asS'Mitchell Johnson'
p867
(lp868
I1
aI2
aI1
aI0
aI0
aI0
aI0
aI0
aI4
aI4
aI0
asS'Angelo Mathews'
p869
(lp870
I2
aI6
aI2
aI0
aI2
aI0
aI0
aI0
aI18
aI12
aI0
asS'Chris Morris'
p871
(lp872
I9
aI4
aI0
aI0
aI2
aI0
aI0
aI0
aI12
aI15
aI0
asS'Ravichandran Ashwin'
p873
(lp874
I2
aI3
aI1
aI0
aI0
aI0
aI1
aI0
aI11
aI7
aI0
asS'Shane Watson'
p875
(lp876
I0
aI1
aI0
aI0
aI0
aI0
aI0
aI0
aI1
aI1
aI0
assS'Manish Pandey'
p877
(dp878
S'Ashish Nehra'
p879
(lp880
I6
aI2
aI0
aI0
aI1
aI0
aI0
aI0
aI6
aI9
aI0
asS'Dhawal Kulkarni'
p881
(lp882
I2
aI3
aI0
aI0
aI0
aI0
aI0
aI0
aI3
aI5
aI0
asS'Pawan Negi'
p883
(lp884
I3
aI1
aI0
aI0
aI0
aI0
aI0
aI0
aI1
aI4
aI0
asS'Harbhajan Singh'
p885
(lp886
I2
aI5
aI0
aI0
aI0
aI0
aI0
aI0
aI5
aI7
aI0
asS'Amit Mishra'
p887
(lp888
I3
aI2
aI0
aI0
aI0
aI0
aI0
aI0
aI2
aI5
aI0
asS'Dale Steyn'
p889
(lp890
I2
aI4
aI0
aI0
aI4
aI0
aI0
aI0
aI20
aI10
aI0
asS'Angelo Mathews'
p891
(lp892
I1
aI1
aI0
aI0
aI0
aI0
aI0
aI0
aI1
aI2
aI0
asS'Anureet Singh'
p893
(lp894
I2
aI3
aI0
aI0
aI1
aI0
aI0
aI0
aI7
aI6
aI0
asS'Varun Aaron'
p895
(lp896
I0
aI1
aI0
aI0
aI1
aI0
aI0
aI0
aI5
aI2
aI0
asS'Corey Anderson'
p897
(lp898
I2
aI1
aI1
aI0
aI1
aI0
aI1
aI0
aI13
aI6
aI0
asS'James Faulkner'
p899
(lp900
I0
aI2
aI0
aI0
aI0
aI0
aI0
aI0
aI2
aI2
aI0
asS'Pragyan Ojha'
p901
(lp902
I0
aI3
aI0
aI0
aI0
aI0
aI1
aI0
aI9
aI4
aI0
asS'Axar Patel'
p903
(lp904
I1
aI1
aI0
aI0
aI0
aI0
aI0
aI0
aI1
aI2
aI0
asS'Albie Morkel'
p905
(lp906
I1
aI1
aI0
aI0
aI1
aI0
aI0
aI0
aI5
aI3
aI0
asS'Yuvraj Singh'
p907
(lp908
I1
aI0
aI1
aI0
aI0
aI0
aI0
aI0
aI2
aI2
aI0
asS'Yuzvendra Chahal'
p909
(lp910
I3
aI3
aI1
aI0
aI1
aI0
aI0
aI0
aI9
aI8
aI0
asS'Ravindra Jadeja'
p911
(lp912
I0
aI2
aI0
aI0
aI0
aI0
aI0
aI0
aI2
aI2
aI0
asS'Imran Tahir'
p913
(lp914
I1
aI3
aI1
aI0
aI0
aI0
aI1
aI0
aI11
aI6
aI0
asS'Harshal Patel'
p915
(lp916
I1
aI0
aI0
aI0
aI0
aI0
aI0
aI0
aI0
aI1
aI0
asS'Moises Henriques'
p917
(lp918
I2
aI2
aI0
aI0
aI0
aI0
aI2
aI0
aI14
aI6
aI0
asS'Glenn Maxwell'
p919
(lp920
I1
aI1
aI0
aI0
aI0
aI0
aI0
aI0
aI1
aI2
aI0
asS'Chris Morris'
p921
(lp922
I1
aI0
aI0
aI0
aI0
aI0
aI0
aI0
aI0
aI1
aI0
asS'Lasith Malinga'
p923
(lp924
I1
aI2
aI0
aI0
aI0
aI0
aI1
aI0
aI8
aI4
aI0
asS'Jasprit Bumrah'
p925
(lp926
I1
aI1
aI0
aI0
aI1
aI0
aI0
aI0
aI5
aI3
aI0
asS'Bhuvneshwar Kumar'
p927
(lp928
I0
aI10
aI0
aI0
aI2
aI0
aI0
aI0
aI18
aI12
aI0
asS'Ravichandran Ashwin'
p929
(lp930
I4
aI1
aI0
aI0
aI0
aI0
aI0
aI0
aI1
aI5
aI0
asS'Praveen Kumar'
p931
(lp932
I6
aI2
aI2
aI0
aI0
aI0
aI0
aI0
aI6
aI10
aI0
asS'Zaheer Khan'
p933
(lp934
I0
aI1
aI0
aI0
aI0
aI0
aI0
aI0
aI1
aI1
aI0
asS'Shane Watson'
p935
(lp936
I1
aI2
aI0
aI0
aI1
aI0
aI0
aI0
aI6
aI4
aI0
assS'Corey Anderson'
p937
(dp938
S'Stuart Binny'
p939
(lp940
I4
aI0
aI0
aI0
aI2
aI0
aI0
aI0
aI8
aI6
aI0
asS'Ashish Nehra'
p941
(lp942
I12
aI0
aI0
aI0
aI2
aI0
aI0
aI0
aI8
aI14
aI0
asS'Andre Russell'
p943
(lp944
I5
aI4
aI0
aI0
aI0
aI0
aI1
aI0
aI10
aI10
aI0
asS'Morne Morkel'
p945
(lp946
I7
aI1
aI0
aI0
aI1
aI0
aI0
aI0
aI5
aI9
aI0
asS'Dhawal Kulkarni'
p947
(lp948
I2
aI4
aI0
aI0
aI0
aI0
aI0
aI0
aI4
aI6
aI0
asS'James Faulkner'
p949
(lp950
I12
aI0
aI2
aI0
aI0
aI0
aI2
aI0
aI16
aI16
aI0
asS'Axar Patel'
p951
(lp952
I2
aI0
aI0
aI0
aI0
aI0
aI0
aI0
aI0
aI2
aI0
asS'Mitchell Johnson'
p953
(lp954
I4
aI0
aI0
aI0
aI0
aI0
aI0
aI0
aI0
aI4
aI0
asS'Sunil Narine'
p955
(lp956
I2
aI4
aI0
aI0
aI0
aI0
aI0
aI0
aI4
aI6
aI0
asS'Chris Morris'
p957
(lp958
I14
aI2
aI2
aI0
aI4
aI0
aI2
aI0
aI34
aI24
aI0
asS'Piyush Chawla'
p959
(lp960
I1
aI2
aI0
aI0
aI2
aI0
aI0
aI0
aI10
aI5
aI0
assS'James Faulkner'
p961
(dp962
S'Imran Tahir'
p963
(lp964
I1
aI2
aI1
aI0
aI0
aI0
aI0
aI0
aI4
aI4
aI0
asS'Lasith Malinga'
p965
(lp966
I2
aI2
aI0
aI0
aI0
aI0
aI0
aI0
aI2
aI4
aI0
asS'Ashish Nehra'
p967
(lp968
I1
aI2
aI0
aI0
aI1
aI0
aI0
aI0
aI6
aI4
aI0
asS'Anureet Singh'
p969
(lp970
I1
aI3
aI0
aI0
aI0
aI0
aI0
aI0
aI3
aI4
aI0
asS'Harshal Patel'
p971
(lp972
I1
aI2
aI0
aI0
aI0
aI0
aI0
aI0
aI2
aI3
aI0
asS'Moises Henriques'
p973
(lp974
I3
aI0
aI0
aI0
aI2
aI0
aI0
aI0
aI8
aI5
aI0
asS'Dwayne Bravo'
p975
(lp976
I0
aI4
aI0
aI0
aI1
aI0
aI0
aI0
aI8
aI5
aI0
asS'Bhuvneshwar Kumar'
p977
(lp978
I1
aI0
aI0
aI0
aI0
aI0
aI0
aI0
aI0
aI1
aI0
asS'Mitchell Starc'
p979
(lp980
I0
aI2
aI0
aI0
aI0
aI0
aI0
aI0
aI2
aI2
aI0
asS'Axar Patel'
p981
(lp982
I5
aI5
aI1
aI0
aI0
aI0
aI1
aI0
aI13
aI12
aI0
asS'Amit Mishra'
p983
(lp984
I1
aI2
aI1
aI0
aI0
aI0
aI0
aI0
aI4
aI4
aI0
asS'Karanveer Singh'
p985
(lp986
I0
aI2
aI2
aI0
aI0
aI0
aI0
aI0
aI6
aI4
aI0
asS'Andre Russell'
p987
(lp988
I2
aI0
aI0
aI0
aI1
aI0
aI0
aI0
aI4
aI3
aI0
asS'Praveen Kumar'
p989
(lp990
I5
aI3
aI1
aI0
aI2
aI0
aI0
aI0
aI13
aI11
aI0
asS'Ravindra Jadeja'
p991
(lp992
I1
aI1
aI0
aI0
aI0
aI0
aI0
aI0
aI1
aI2
aI0
asS'Mitchell Johnson'
p993
(lp994
I8
aI4
aI1
aI0
aI2
aI0
aI2
aI0
aI26
aI17
aI0
assS'Mitchell Starc'
p995
(dp996
S'Dwayne Bravo'
p997
(lp998
I4
aI7
aI0
aI0
aI0
aI0
aI0
aI0
aI7
aI11
aI0
assS'David Warner'
p999
(dp1000
S'Ashish Nehra'
p1001
(lp1002
I2
aI7
aI1
aI0
aI4
aI0
aI0
aI0
aI25
aI14
aI0
asS'Suresh Raina'
p1003
(lp1004
I2
aI1
aI0
aI0
aI0
aI0
aI0
aI0
aI1
aI3
aI0
asS'Dhawal Kulkarni'
p1005
(lp1006
I5
aI3
aI0
aI0
aI0
aI0
aI0
aI0
aI3
aI8
aI0
asS'Johan Botha'
p1007
(lp1008
I12
aI8
aI2
aI0
aI6
aI0
aI0
aI0
aI36
aI28
aI0
asS'Darren Sammy'
p1009
(lp1010
I0
aI2
aI0
aI0
aI0
aI0
aI0
aI0
aI2
aI2
aI0
asS'Jean-Paul Duminy'
p1011
(lp1012
I6
aI4
aI0
aI0
aI0
aI0
aI0
aI0
aI4
aI10
aI0
asS'Anureet Singh'
p1013
(lp1014
I7
aI2
aI0
aI0
aI4
aI0
aI1
aI0
aI24
aI14
aI0
asS'Harshal Patel'
p1015
(lp1016
I2
aI0
aI1
aI0
aI4
aI0
aI1
aI0
aI24
aI8
aI0
asS'Mitchell Starc'
p1017
(lp1018
I1
aI5
aI2
aI0
aI1
aI0
aI0
aI0
aI13
aI9
aI0
asS'Axar Patel'
p1019
(lp1020
I5
aI7
aI0
aI0
aI1
aI0
aI2
aI0
aI23
aI15
aI0
asS'Yuzvendra Chahal'
p1021
(lp1022
I2
aI4
aI1
aI0
aI1
aI0
aI2
aI0
aI22
aI10
aI0
asS'Dwayne Bravo'
p1023
(lp1024
I3
aI4
aI4
aI0
aI0
aI0
aI0
aI0
aI12
aI11
aI0
asS'Harbhajan Singh'
p1025
(lp1026
I2
aI0
aI0
aI0
aI1
aI0
aI0
aI0
aI4
aI3
aI0
asS'Varun Aaron'
p1027
(lp1028
I3
aI1
aI0
aI0
aI2
aI0
aI1
aI0
aI15
aI7
aI0
asS'Glenn Maxwell'
p1029
(lp1030
I3
aI3
aI0
aI0
aI0
aI0
aI0
aI0
aI3
aI6
aI0
asS'Sunil Narine'
p1031
(lp1032
I14
aI4
aI8
aI0
aI2
aI0
aI4
aI0
aI52
aI32
aI0
asS'Chris Morris'
p1033
(lp1034
I13
aI1
aI1
aI0
aI7
aI0
aI0
aI0
aI31
aI22
aI0
asS'Morne Morkel'
p1035
(lp1036
I4
aI6
aI0
aI0
aI6
aI0
aI0
aI0
aI30
aI16
aI0
asS'Lasith Malinga'
p1037
(lp1038
I3
aI3
aI0
aI0
aI2
aI0
aI0
aI0
aI11
aI8
aI0
asS'Ravichandran Ashwin'
p1039
(lp1040
I4
aI7
aI1
aI0
aI0
aI0
aI0
aI0
aI9
aI12
aI0
asS'Mitchell Johnson'
p1041
(lp1042
I0
aI2
aI0
aI0
aI4
aI0
aI1
aI0
aI24
aI7
aI0
asS'Piyush Chawla'
p1043
(lp1044
I0
aI2
aI0
aI0
aI2
aI0
aI0
aI0
aI10
aI4
aI0
asS'Zaheer Khan'
p1045
(lp1046
I3
aI1
aI0
aI1
aI0
aI0
aI0
aI0
aI4
aI5
aI0
asS'Shane Watson'
p1047
(lp1048
I1
aI0
aI0
aI0
aI2
aI0
aI0
aI0
aI8
aI3
aI0
assS'Axar Patel'
p1049
(dp1050
S'Suresh Raina'
p1051
(lp1052
I0
aI2
aI0
aI0
aI1
aI0
aI0
aI0
aI6
aI3
aI0
asS'Dhawal Kulkarni'
p1053
(lp1054
I0
aI1
aI0
aI0
aI1
aI0
aI0
aI0
aI5
aI2
aI0
asS'Pawan Negi'
p1055
(lp1056
I0
aI3
aI0
aI0
aI0
aI0
aI0
aI0
aI3
aI3
aI0
asS'Angelo Mathews'
p1057
(lp1058
I3
aI6
aI0
aI0
aI0
aI0
aI0
aI0
aI6
aI9
aI0
asS'Jean-Paul Duminy'
p1059
(lp1060
I2
aI1
aI0
aI0
aI0
aI0
aI0
aI0
aI1
aI3
aI0
asS'Stuart Binny'
p1061
(lp1062
I2
aI2
aI0
aI0
aI0
aI0
aI0
aI0
aI2
aI4
aI0
asS'James Faulkner'
p1063
(lp1064
I4
aI3
aI4
aI0
aI2
aI0
aI0
aI0
aI19
aI13
aI0
asS'Mitchell Starc'
p1065
(lp1066
I0
aI3
aI1
aI0
aI0
aI0
aI0
aI0
aI5
aI4
aI0
asS'Amit Mishra'
p1067
(lp1068
I2
aI6
aI0
aI0
aI0
aI0
aI2
aI0
aI18
aI10
aI0
asS'Yuzvendra Chahal'
p1069
(lp1070
I7
aI4
aI1
aI0
aI2
aI0
aI2
aI0
aI26
aI16
aI0
asS'Ravindra Jadeja'
p1071
(lp1072
I4
aI7
aI0
aI0
aI1
aI0
aI1
aI0
aI17
aI13
aI0
asS'Imran Tahir'
p1073
(lp1074
I7
aI9
aI2
aI0
aI0
aI0
aI1
aI0
aI19
aI19
aI0
asS'Dwayne Bravo'
p1075
(lp1076
I2
aI4
aI0
aI0
aI0
aI0
aI1
aI0
aI10
aI7
aI0
asS'Harshal Patel'
p1077
(lp1078
I3
aI3
aI0
aI0
aI1
aI0
aI1
aI0
aI13
aI8
aI0
asS'Moises Henriques'
p1079
(lp1080
I1
aI3
aI1
aI0
aI0
aI0
aI1
aI0
aI11
aI6
aI0
asS'Sunil Narine'
p1081
(lp1082
I2
aI2
aI0
aI0
aI0
aI0
aI0
aI0
aI2
aI4
aI0
asS'Chris Morris'
p1083
(lp1084
I1
aI7
aI0
aI0
aI0
aI0
aI0
aI0
aI7
aI8
aI0
asS'Lasith Malinga'
p1085
(lp1086
I1
aI0
aI0
aI0
aI0
aI0
aI0
aI0
aI0
aI1
aI0
asS'Bhuvneshwar Kumar'
p1087
(lp1088
I1
aI3
aI0
aI0
aI0
aI0
aI0
aI0
aI3
aI4
aI0
asS'Ravichandran Ashwin'
p1089
(lp1090
I8
aI5
aI0
aI0
aI0
aI0
aI0
aI0
aI5
aI13
aI0
asS'Praveen Kumar'
p1091
(lp1092
I2
aI4
aI1
aI0
aI0
aI0
aI0
aI0
aI6
aI7
aI0
asS'Zaheer Khan'
p1093
(lp1094
I0
aI3
aI0
aI0
aI0
aI0
aI0
aI0
aI3
aI3
aI0
assS'Virender Sehwag'
p1095
(dp1096
S'Imran Tahir'
p1097
(lp1098
I0
aI2
aI0
aI0
aI4
aI0
aI2
aI0
aI30
aI8
aI0
asS'Stuart Binny'
p1099
(lp1100
I6
aI2
aI0
aI0
aI0
aI0
aI0
aI0
aI2
aI8
aI0
asS'Andre Russell'
p1101
(lp1102
I2
aI0
aI0
aI0
aI2
aI0
aI0
aI0
aI8
aI4
aI0
asS'Morne Morkel'
p1103
(lp1104
I8
aI6
aI0
aI0
aI2
aI0
aI0
aI0
aI14
aI16
aI0
asS'Lasith Malinga'
p1105
(lp1106
I2
aI1
aI0
aI0
aI2
aI0
aI0
aI0
aI9
aI5
aI0
asS'Harbhajan Singh'
p1107
(lp1108
I1
aI1
aI0
aI0
aI0
aI0
aI0
aI0
aI1
aI2
aI0
asS'Yuvraj Singh'
p1109
(lp1110
I0
aI4
aI0
aI0
aI0
aI0
aI0
aI0
aI4
aI4
aI0
asS'Angelo Mathews'
p1111
(lp1112
I6
aI10
aI0
aI0
aI2
aI0
aI0
aI0
aI18
aI18
aI0
asS'Amit Mishra'
p1113
(lp1114
I4
aI12
aI0
aI0
aI0
aI0
aI0
aI0
aI12
aI16
aI0
asS'Jean-Paul Duminy'
p1115
(lp1116
I4
aI2
aI0
aI0
aI0
aI0
aI2
aI0
aI14
aI8
aI0
asS'Zaheer Khan'
p1117
(lp1118
I1
aI1
aI0
aI0
aI0
aI0
aI0
aI0
aI1
aI2
aI0
assS'Chris Gayle'
p1119
(dp1120
S'Ashish Nehra'
p1121
(lp1122
I6
aI1
aI0
aI0
aI0
aI0
aI1
aI0
aI7
aI8
aI0
asS'Suresh Raina'
p1123
(lp1124
I2
aI4
aI0
aI0
aI0
aI0
aI2
aI0
aI16
aI8
aI0
asS'Dhawal Kulkarni'
p1125
(lp1126
I8
aI2
aI0
aI0
aI2
aI0
aI1
aI0
aI16
aI13
aI0
asS'Harbhajan Singh'
p1127
(lp1128
I4
aI4
aI0
aI0
aI0
aI0
aI0
aI0
aI4
aI8
aI0
asS'Dale Steyn'
p1129
(lp1130
I0
aI1
aI0
aI0
aI1
aI0
aI1
aI0
aI11
aI3
aI0
asS'Karanveer Singh'
p1131
(lp1132
I0
aI2
aI0
aI0
aI1
aI0
aI2
aI0
aI18
aI5
aI0
asS'Angelo Mathews'
p1133
(lp1134
I2
aI2
aI0
aI0
aI0
aI0
aI0
aI0
aI2
aI4
aI0
asS'Jean-Paul Duminy'
p1135
(lp1136
I1
aI1
aI0
aI0
aI1
aI0
aI0
aI0
aI5
aI3
aI0
asS'Shikhar Dhawan'
p1137
(lp1138
I0
aI3
aI0
aI0
aI0
aI0
aI0
aI0
aI3
aI3
aI0
asS'Anureet Singh'
p1139
(lp1140
I5
aI4
aI0
aI0
aI0
aI0
aI0
aI0
aI4
aI9
aI0
asS'Morne Morkel'
p1141
(lp1142
I2
aI3
aI0
aI0
aI2
aI0
aI1
aI0
aI17
aI8
aI0
asS'James Faulkner'
p1143
(lp1144
I2
aI2
aI0
aI0
aI0
aI0
aI0
aI0
aI2
aI4
aI0
asS'Axar Patel'
p1145
(lp1146
I6
aI2
aI0
aI0
aI1
aI0
aI3
aI0
aI24
aI12
aI0
asS'Amit Mishra'
p1147
(lp1148
I0
aI3
aI0
aI0
aI0
aI0
aI1
aI0
aI9
aI4
aI0
asS'Andre Russell'
p1149
(lp1150
I0
aI2
aI0
aI0
aI1
aI0
aI0
aI0
aI6
aI3
aI0
asS'Imran Tahir'
p1151
(lp1152
I3
aI3
aI0
aI0
aI1
aI0
aI1
aI0
aI13
aI8
aI0
asS'Dwayne Bravo'
p1153
(lp1154
I2
aI1
aI0
aI0
aI0
aI0
aI0
aI0
aI1
aI3
aI0
asS'Moises Henriques'
p1155
(lp1156
I1
aI0
aI0
aI0
aI0
aI0
aI0
aI0
aI0
aI1
aI0
asS'Glenn Maxwell'
p1157
(lp1158
I3
aI3
aI0
aI0
aI0
aI0
aI2
aI0
aI15
aI8
aI0
asS'Brad Hogg'
p1159
(lp1160
I3
aI0
aI0
aI0
aI0
aI0
aI2
aI0
aI12
aI5
aI0
asS'Sunil Narine'
p1161
(lp1162
I8
aI5
aI1
aI0
aI2
aI0
aI0
aI0
aI15
aI16
aI0
asS'Chris Morris'
p1163
(lp1164
I12
aI2
aI0
aI0
aI5
aI0
aI1
aI0
aI28
aI20
aI0
asS'Lasith Malinga'
p1165
(lp1166
I18
aI5
aI0
aI0
aI1
aI0
aI0
aI0
aI9
aI24
aI0
asS'Jasprit Bumrah'
p1167
(lp1168
I2
aI6
aI2
aI0
aI0
aI0
aI0
aI0
aI10
aI10
aI0
asS'Bhuvneshwar Kumar'
p1169
(lp1170
I6
aI0
aI0
aI0
aI5
aI0
aI2
aI0
aI32
aI13
aI0
asS'Ravichandran Ashwin'
p1171
(lp1172
I9
aI2
aI0
aI0
aI1
aI0
aI0
aI0
aI6
aI12
aI0
asS'Mitchell Johnson'
p1173
(lp1174
I4
aI2
aI0
aI0
aI3
aI0
aI3
aI0
aI32
aI12
aI0
asS'Piyush Chawla'
p1175
(lp1176
I1
aI2
aI0
aI0
aI0
aI0
aI1
aI0
aI8
aI4
aI0
asS'Praveen Kumar'
p1177
(lp1178
I2
aI0
aI0
aI0
aI1
aI0
aI0
aI0
aI4
aI3
aI0
asS'Zaheer Khan'
p1179
(lp1180
I1
aI0
aI0
aI0
aI0
aI0
aI0
aI0
aI0
aI1
aI0
asS'Shane Watson'
p1181
(lp1182
I5
aI1
aI0
aI0
aI0
aI0
aI0
aI0
aI1
aI6
aI0
assS'Ankit Sharma'
p1183
(dp1184
S'Mitchell Starc'
p1185
(lp1186
I1
aI0
aI0
aI0
aI0
aI0
aI0
aI0
aI0
aI1
aI0
asS'Dwayne Bravo'
p1187
(lp1188
I1
aI0
aI0
aI0
aI0
aI0
aI0
aI0
aI0
aI1
aI0
asS'Yuzvendra Chahal'
p1189
(lp1190
I0
aI2
aI0
aI0
aI0
aI0
aI0
aI0
aI2
aI2
aI0
assS'Amit Mishra'
p1191
(dp1192
S'Mitchell Starc'
p1193
(lp1194
I2
aI1
aI0
aI0
aI0
aI0
aI0
aI0
aI1
aI3
aI0
asS'Ashish Nehra'
p1195
(lp1196
I0
aI1
aI1
aI0
aI0
aI0
aI0
aI0
aI3
aI2
aI0
asS'Dhawal Kulkarni'
p1197
(lp1198
I1
aI0
aI0
aI0
aI0
aI0
aI0
aI0
aI0
aI1
aI0
asS'Ravichandran Ashwin'
p1199
(lp1200
I1
aI1
aI0
aI0
aI0
aI0
aI0
aI0
aI1
aI2
aI0
assS'Yuzvendra Chahal'
p1201
(dp1202
S'Bhuvneshwar Kumar'
p1203
(lp1204
I0
aI1
aI0
aI0
aI0
aI0
aI0
aI0
aI1
aI1
aI0
assS'Ravindra Jadeja'
p1205
(dp1206
S'Imran Tahir'
p1207
(lp1208
I1
aI1
aI0
aI0
aI1
aI0
aI0
aI0
aI5
aI3
aI0
asS'Lasith Malinga'
p1209
(lp1210
I0
aI4
aI0
aI0
aI0
aI0
aI0
aI0
aI4
aI4
aI0
asS'Kieron Pollard'
p1211
(lp1212
I0
aI2
aI2
aI0
aI1
aI0
aI0
aI0
aI10
aI5
aI0
asS'Yuzvendra Chahal'
p1213
(lp1214
I3
aI2
aI0
aI0
aI0
aI0
aI0
aI0
aI2
aI5
aI0
asS'Anureet Singh'
p1215
(lp1216
I1
aI2
aI0
aI0
aI1
aI0
aI0
aI0
aI6
aI4
aI0
asS'Harshal Patel'
p1217
(lp1218
I4
aI2
aI2
aI0
aI2
aI0
aI0
aI0
aI14
aI10
aI0
asS'Brad Hogg'
p1219
(lp1220
I5
aI5
aI0
aI0
aI1
aI0
aI1
aI0
aI15
aI12
aI0
asS'Albie Morkel'
p1221
(lp1222
I2
aI1
aI0
aI0
aI0
aI0
aI0
aI0
aI1
aI3
aI0
asS'Bhuvneshwar Kumar'
p1223
(lp1224
I0
aI4
aI1
aI0
aI0
aI0
aI0
aI0
aI6
aI5
aI0
asS'Mitchell Starc'
p1225
(lp1226
I0
aI2
aI0
aI0
aI0
aI0
aI0
aI0
aI2
aI2
aI0
asS'Piyush Chawla'
p1227
(lp1228
I6
aI4
aI1
aI0
aI0
aI0
aI0
aI0
aI6
aI11
aI0
asS'Axar Patel'
p1229
(lp1230
I1
aI1
aI0
aI0
aI0
aI0
aI0
aI0
aI1
aI2
aI0
asS'Amit Mishra'
p1231
(lp1232
I5
aI2
aI0
aI0
aI0
aI0
aI1
aI0
aI8
aI8
aI0
asS'Andre Russell'
p1233
(lp1234
I6
aI4
aI1
aI0
aI0
aI0
aI0
aI0
aI6
aI11
aI0
asS'Jean-Paul Duminy'
p1235
(lp1236
I1
aI3
aI0
aI0
aI0
aI0
aI0
aI0
aI3
aI4
aI0
asS'Praveen Kumar'
p1237
(lp1238
I1
aI2
aI0
aI0
aI0
aI0
aI0
aI0
aI2
aI3
aI0
asS'Zaheer Khan'
p1239
(lp1240
I0
aI1
aI0
aI0
aI0
aI0
aI0
aI0
aI1
aI1
aI0
asS'Mitchell Johnson'
p1241
(lp1242
I0
aI0
aI1
aI1
aI1
aI0
aI0
aI0
aI9
aI3
aI0
assS'Imran Tahir'
p1243
(dp1244
S'Mitchell Starc'
p1245
(lp1246
I1
aI1
aI0
aI0
aI0
aI0
aI0
aI0
aI1
aI2
aI0
asS'Ashish Nehra'
p1247
(lp1248
I0
aI0
aI1
aI0
aI0
aI0
aI0
aI0
aI2
aI1
aI0
asS'Dwayne Bravo'
p1249
(lp1250
I1
aI0
aI0
aI0
aI0
aI0
aI0
aI0
aI0
aI1
aI0
asS'Harshal Patel'
p1251
(lp1252
I0
aI1
aI0
aI0
aI0
aI0
aI0
aI0
aI1
aI1
aI0
assS'Kieron Pollard'
p1253
(dp1254
S'Ashish Nehra'
p1255
(lp1256
I3
aI3
aI2
aI0
aI1
aI0
aI3
aI0
aI29
aI12
aI0
asS'Dhawal Kulkarni'
p1257
(lp1258
I3
aI4
aI0
aI0
aI2
aI0
aI0
aI0
aI12
aI9
aI0
asS'Pawan Negi'
p1259
(lp1260
I3
aI3
aI0
aI0
aI0
aI0
aI2
aI0
aI15
aI8
aI0
asS'Dale Steyn'
p1261
(lp1262
I2
aI2
aI1
aI0
aI1
aI0
aI0
aI0
aI8
aI6
aI0
asS'Angelo Mathews'
p1263
(lp1264
I2
aI1
aI0
aI0
aI0
aI0
aI0
aI0
aI1
aI3
aI0
asS'Shikhar Dhawan'
p1265
(lp1266
I2
aI3
aI0
aI0
aI0
aI0
aI1
aI0
aI9
aI6
aI0
asS'Anureet Singh'
p1267
(lp1268
I1
aI2
aI1
aI0
aI0
aI0
aI0
aI0
aI4
aI4
aI0
asS'Morne Morkel'
p1269
(lp1270
I4
aI0
aI0
aI0
aI0
aI0
aI0
aI0
aI0
aI4
aI0
asS'James Faulkner'
p1271
(lp1272
I8
aI2
aI0
aI0
aI4
aI0
aI4
aI0
aI42
aI18
aI0
asS'Mitchell Starc'
p1273
(lp1274
I1
aI1
aI1
aI0
aI2
aI0
aI0
aI0
aI11
aI5
aI0
asS'Axar Patel'
p1275
(lp1276
I3
aI3
aI1
aI0
aI1
aI0
aI0
aI0
aI9
aI8
aI0
asS'Ankit Sharma'
p1277
(lp1278
I0
aI2
aI0
aI0
aI0
aI0
aI0
aI0
aI2
aI2
aI0
asS'Amit Mishra'
p1279
(lp1280
I3
aI2
aI1
aI0
aI0
aI0
aI1
aI0
aI10
aI7
aI0
asS'Yuzvendra Chahal'
p1281
(lp1282
I0
aI4
aI0
aI0
aI0
aI0
aI1
aI0
aI10
aI5
aI0
asS'Ravindra Jadeja'
p1283
(lp1284
I4
aI4
aI0
aI0
aI2
aI0
aI8
aI0
aI60
aI18
aI0
asS'Imran Tahir'
p1285
(lp1286
I2
aI2
aI0
aI0
aI0
aI0
aI2
aI0
aI14
aI6
aI0
asS'Dwayne Bravo'
p1287
(lp1288
I7
aI18
aI5
aI0
aI3
aI0
aI4
aI0
aI64
aI37
aI0
asS'Harshal Patel'
p1289
(lp1290
I2
aI3
aI0
aI0
aI1
aI0
aI1
aI0
aI13
aI7
aI0
asS'Sunil Narine'
p1291
(lp1292
I2
aI7
aI1
aI0
aI0
aI0
aI1
aI0
aI15
aI11
aI0
asS'Chris Morris'
p1293
(lp1294
I4
aI2
aI0
aI0
aI2
aI0
aI0
aI0
aI10
aI8
aI0
asS'Andre Russell'
p1295
(lp1296
I5
aI5
aI1
aI0
aI1
aI0
aI0
aI0
aI11
aI12
aI0
asS'Bhuvneshwar Kumar'
p1297
(lp1298
I1
aI1
aI0
aI0
aI1
aI0
aI0
aI0
aI5
aI3
aI0
asS'Ravichandran Ashwin'
p1299
(lp1300
I4
aI0
aI0
aI0
aI2
aI0
aI0
aI0
aI8
aI6
aI0
asS'Mitchell Johnson'
p1301
(lp1302
I5
aI2
aI0
aI0
aI0
aI0
aI0
aI0
aI2
aI7
aI0
asS'Piyush Chawla'
p1303
(lp1304
I1
aI0
aI0
aI0
aI0
aI0
aI0
aI0
aI0
aI1
aI0
asS'Praveen Kumar'
p1305
(lp1306
I0
aI2
aI0
aI0
aI1
aI0
aI1
aI0
aI12
aI4
aI0
asS'Zaheer Khan'
p1307
(lp1308
I0
aI2
aI0
aI0
aI0
aI0
aI0
aI0
aI2
aI2
aI0
asS'Shane Watson'
p1309
(lp1310
I0
aI1
aI1
aI0
aI1
aI0
aI1
aI0
aI13
aI4
aI0
assS'Dhawal Kulkarni'
p1311
(dp1312
S'Mitchell Starc'
p1313
(lp1314
I5
aI1
aI0
aI0
aI0
aI0
aI0
aI0
aI1
aI6
aI0
asS'Yuzvendra Chahal'
p1315
(lp1316
I2
aI2
aI0
aI0
aI0
aI0
aI0
aI0
aI2
aI4
aI0
asS'Harshal Patel'
p1317
(lp1318
I0
aI1
aI0
aI0
aI0
aI0
aI0
aI0
aI1
aI1
aI0
assS'Harbhajan Singh'
p1319
(dp1320
S'Imran Tahir'
p1321
(lp1322
I2
aI1
aI0
aI0
aI0
aI0
aI0
aI0
aI1
aI3
aI0
asS'Shikhar Dhawan'
p1323
(lp1324
I1
aI2
aI1
aI0
aI4
aI0
aI1
aI0
aI26
aI9
aI0
asS'Dwayne Bravo'
p1325
(lp1326
I2
aI2
aI0
aI0
aI1
aI0
aI1
aI0
aI12
aI6
aI0
asS'Anureet Singh'
p1327
(lp1328
I4
aI1
aI0
aI0
aI1
aI0
aI4
aI0
aI29
aI10
aI0
asS'Harshal Patel'
p1329
(lp1330
I0
aI1
aI0
aI0
aI0
aI0
aI0
aI0
aI1
aI1
aI0
asS'Bhuvneshwar Kumar'
p1331
(lp1332
I2
aI0
aI0
aI0
aI0
aI0
aI0
aI0
aI0
aI2
aI0
asS'Mitchell Starc'
p1333
(lp1334
I1
aI0
aI1
aI0
aI0
aI0
aI0
aI0
aI2
aI2
aI0
asS'Axar Patel'
p1335
(lp1336
I0
aI2
aI0
aI0
aI0
aI0
aI0
aI0
aI2
aI2
aI0
asS'Mitchell Johnson'
p1337
(lp1338
I1
aI1
aI0
aI0
aI0
aI0
aI1
aI0
aI7
aI3
aI0
asS'Angelo Mathews'
p1339
(lp1340
I3
aI1
aI0
aI0
aI0
aI0
aI0
aI0
aI1
aI4
aI0
asS'Praveen Kumar'
p1341
(lp1342
I2
aI0
aI0
aI0
aI0
aI0
aI0
aI0
aI0
aI2
aI0
asS'Ravindra Jadeja'
p1343
(lp1344
I10
aI4
aI0
aI0
aI2
aI0
aI2
aI0
aI24
aI18
aI0
assS'Harshal Patel'
p1345
(dp1346
S'Dwayne Bravo'
p1347
(lp1348
I0
aI1
aI0
aI0
aI0
aI0
aI0
aI0
aI1
aI1
aI0
asS'Sunil Narine'
p1349
(lp1350
I1
aI0
aI0
aI0
aI0
aI0
aI1
aI0
aI6
aI2
aI0
asS'Morne Morkel'
p1351
(lp1352
I0
aI1
aI1
aI0
aI0
aI0
aI0
aI0
aI3
aI2
aI0
asS'Ashish Nehra'
p1353
(lp1354
I3
aI0
aI0
aI0
aI0
aI0
aI0
aI0
aI0
aI3
aI0
assS'Shikhar Dhawan'
p1355
(dp1356
S'Lasith Malinga'
p1357
(lp1358
I1
aI1
aI0
aI0
aI1
aI0
aI0
aI0
aI5
aI3
aI0
asS'Dwayne Bravo'
p1359
(lp1360
I0
aI4
aI0
aI0
aI0
aI0
aI1
aI0
aI10
aI5
aI0
asS'Suresh Raina'
p1361
(lp1362
I2
aI1
aI0
aI0
aI0
aI0
aI0
aI0
aI1
aI3
aI0
asS'Ashish Nehra'
p1363
(lp1364
I2
aI1
aI0
aI0
aI0
aI0
aI1
aI0
aI7
aI4
aI0
asS'Pawan Negi'
p1365
(lp1366
I4
aI0
aI1
aI0
aI1
aI0
aI0
aI0
aI6
aI6
aI0
asS'Bhuvneshwar Kumar'
p1367
(lp1368
I2
aI1
aI0
aI0
aI0
aI0
aI0
aI0
aI1
aI3
aI0
asS'Mitchell Starc'
p1369
(lp1370
I0
aI1
aI0
aI0
aI0
aI0
aI0
aI0
aI1
aI1
aI0
asS'Ravindra Jadeja'
p1371
(lp1372
I1
aI1
aI0
aI0
aI0
aI0
aI0
aI0
aI1
aI2
aI0
assS'Moises Henriques'
p1373
(dp1374
S'Lasith Malinga'
p1375
(lp1376
I3
aI1
aI0
aI0
aI0
aI0
aI0
aI0
aI1
aI4
aI0
asS'Shikhar Dhawan'
p1377
(lp1378
I1
aI1
aI0
aI0
aI0
aI0
aI0
aI0
aI1
aI2
aI0
asS'Andre Russell'
p1379
(lp1380
I7
aI0
aI2
aI0
aI1
aI0
aI0
aI0
aI8
aI10
aI0
asS'Anureet Singh'
p1381
(lp1382
I1
aI5
aI0
aI0
aI0
aI0
aI0
aI0
aI5
aI6
aI0
asS'Suresh Raina'
p1383
(lp1384
I2
aI1
aI0
aI0
aI0
aI0
aI2
aI0
aI13
aI5
aI0
asS'Harshal Patel'
p1385
(lp1386
I1
aI0
aI1
aI0
aI3
aI0
aI1
aI0
aI20
aI6
aI0
asS'Brad Hogg'
p1387
(lp1388
I2
aI3
aI0
aI0
aI0
aI0
aI0
aI0
aI3
aI5
aI0
asS'Zaheer Khan'
p1389
(lp1390
I1
aI3
aI1
aI0
aI0
aI0
aI1
aI0
aI11
aI6
aI0
asS'Glenn Maxwell'
p1391
(lp1392
I2
aI3
aI0
aI0
aI1
aI0
aI0
aI0
aI7
aI6
aI0
asS'Pawan Negi'
p1393
(lp1394
I1
aI2
aI0
aI0
aI1
aI0
aI0
aI0
aI6
aI4
aI0
asS'Johan Botha'
p1395
(lp1396
I0
aI4
aI0
aI0
aI0
aI0
aI0
aI0
aI4
aI4
aI0
asS'James Faulkner'
p1397
(lp1398
I1
aI2
aI1
aI0
aI3
aI0
aI0
aI0
aI16
aI7
aI0
asS'Mitchell Starc'
p1399
(lp1400
I0
aI1
aI1
aI0
aI0
aI0
aI0
aI0
aI3
aI2
aI0
asS'Shane Watson'
p1401
(lp1402
I2
aI1
aI0
aI0
aI0
aI0
aI0
aI0
aI1
aI3
aI0
asS'Axar Patel'
p1403
(lp1404
I4
aI9
aI2
aI0
aI1
aI0
aI0
aI0
aI17
aI16
aI0
asS'Mitchell Johnson'
p1405
(lp1406
I0
aI3
aI0
aI0
aI0
aI0
aI0
aI0
aI3
aI3
aI0
asS'Albie Morkel'
p1407
(lp1408
I1
aI3
aI3
aI0
aI0
aI0
aI2
aI0
aI21
aI9
aI0
asS'Amit Mishra'
p1409
(lp1410
I1
aI2
aI4
aI0
aI0
aI0
aI2
aI0
aI22
aI9
aI0
asS'Jean-Paul Duminy'
p1411
(lp1412
I1
aI2
aI3
aI0
aI0
aI0
aI0
aI0
aI8
aI6
aI0
asS'Yuzvendra Chahal'
p1413
(lp1414
I0
aI1
aI1
aI0
aI1
aI0
aI2
aI0
aI19
aI5
aI0
asS'Piyush Chawla'
p1415
(lp1416
I2
aI7
aI0
aI0
aI0
aI0
aI0
aI0
aI7
aI9
aI0
assS'Glenn Maxwell'
p1417
(dp1418
S'Imran Tahir'
p1419
(lp1420
I2
aI2
aI2
aI0
aI0
aI0
aI4
aI0
aI30
aI10
aI0
asS'Lasith Malinga'
p1421
(lp1422
I1
aI1
aI1
aI0
aI0
aI0
aI0
aI0
aI3
aI3
aI0
asS'Ashish Nehra'
p1423
(lp1424
I5
aI0
aI0
aI0
aI1
aI0
aI0
aI0
aI4
aI6
aI0
asS'Piyush Chawla'
p1425
(lp1426
I0
aI7
aI3
aI0
aI1
aI0
aI1
aI0
aI23
aI12
aI0
asS'Morne Morkel'
p1427
(lp1428
I2
aI2
aI0
aI0
aI2
aI0
aI2
aI0
aI22
aI8
aI0
asS'Harshal Patel'
p1429
(lp1430
I4
aI2
aI0
aI0
aI1
aI0
aI0
aI0
aI6
aI7
aI0
asS'Dhawal Kulkarni'
p1431
(lp1432
I0
aI1
aI0
aI0
aI1
aI0
aI0
aI0
aI5
aI2
aI0
asS'Harbhajan Singh'
p1433
(lp1434
I0
aI1
aI0
aI0
aI0
aI0
aI0
aI0
aI1
aI1
aI0
asS'James Faulkner'
p1435
(lp1436
I2
aI0
aI1
aI0
aI0
aI0
aI0
aI0
aI2
aI3
aI0
asS'Brad Hogg'
p1437
(lp1438
I2
aI0
aI0
aI0
aI2
aI0
aI1
aI0
aI14
aI5
aI0
asS'Sunil Narine'
p1439
(lp1440
I16
aI5
aI0
aI0
aI2
aI0
aI0
aI0
aI13
aI23
aI0
asS'Ravichandran Ashwin'
p1441
(lp1442
I3
aI1
aI0
aI0
aI0
aI0
aI0
aI0
aI1
aI4
aI0
asS'Andre Russell'
p1443
(lp1444
I6
aI7
aI2
aI0
aI0
aI0
aI3
aI0
aI29
aI18
aI0
asS'Ravindra Jadeja'
p1445
(lp1446
I3
aI0
aI0
aI0
aI0
aI0
aI0
aI0
aI0
aI3
aI0
assS'Darren Sammy'
p1447
(dp1448
S'Piyush Chawla'
p1449
(lp1450
I0
aI2
aI0
aI0
aI0
aI0
aI0
aI0
aI2
aI2
aI0
asS'Sunil Narine'
p1451
(lp1452
I0
aI2
aI0
aI0
aI0
aI0
aI0
aI0
aI2
aI2
aI0
assS'Brad Hogg'
p1453
(dp1454
S'Ashish Nehra'
p1455
(lp1456
I0
aI0
aI1
aI0
aI0
aI0
aI0
aI0
aI2
aI1
aI0
asS'Anureet Singh'
p1457
(lp1458
I0
aI1
aI0
aI0
aI0
aI0
aI0
aI0
aI1
aI1
aI0
assS'Wriddhiman Saha'
p1459
(dp1460
S'Ashish Nehra'
p1461
(lp1462
I1
aI0
aI0
aI0
aI0
aI0
aI0
aI0
aI0
aI1
aI0
asS'Pawan Negi'
p1463
(lp1464
I4
aI1
aI1
aI0
aI1
aI0
aI0
aI0
aI7
aI7
aI0
asS'Amit Mishra'
p1465
(lp1466
I6
aI10
aI2
aI0
aI0
aI0
aI0
aI0
aI14
aI18
aI0
asS'Angelo Mathews'
p1467
(lp1468
I4
aI6
aI0
aI0
aI0
aI0
aI2
aI0
aI18
aI12
aI0
asS'Jean-Paul Duminy'
p1469
(lp1470
I0
aI2
aI0
aI0
aI0
aI0
aI0
aI0
aI2
aI2
aI0
asS'Morne Morkel'
p1471
(lp1472
I4
aI2
aI0
aI0
aI0
aI0
aI0
aI0
aI2
aI6
aI0
asS'James Faulkner'
p1473
(lp1474
I0
aI2
aI0
aI0
aI2
aI0
aI0
aI0
aI10
aI4
aI0
asS'Mitchell Starc'
p1475
(lp1476
I2
aI4
aI1
aI0
aI2
aI0
aI0
aI0
aI14
aI9
aI0
asS'Ravichandran Ashwin'
p1477
(lp1478
I4
aI4
aI0
aI0
aI0
aI0
aI0
aI0
aI4
aI8
aI0
asS'Andre Russell'
p1479
(lp1480
I0
aI2
aI0
aI0
aI0
aI0
aI0
aI0
aI2
aI2
aI0
asS'Ravindra Jadeja'
p1481
(lp1482
I1
aI4
aI0
aI0
aI0
aI0
aI0
aI0
aI4
aI5
aI0
asS'Imran Tahir'
p1483
(lp1484
I0
aI2
aI2
aI0
aI0
aI0
aI0
aI0
aI6
aI4
aI0
asS'Dwayne Bravo'
p1485
(lp1486
I2
aI2
aI2
aI0
aI0
aI0
aI0
aI0
aI6
aI6
aI0
asS'Moises Henriques'
p1487
(lp1488
I5
aI6
aI3
aI0
aI0
aI0
aI0
aI0
aI12
aI14
aI0
asS'Brad Hogg'
p1489
(lp1490
I2
aI2
aI0
aI0
aI0
aI0
aI1
aI0
aI8
aI5
aI0
asS'Sunil Narine'
p1491
(lp1492
I3
aI3
aI0
aI0
aI0
aI0
aI1
aI0
aI9
aI7
aI0
asS'Chris Morris'
p1493
(lp1494
I2
aI2
aI0
aI0
aI6
aI0
aI0
aI0
aI26
aI10
aI0
asS'Lasith Malinga'
p1495
(lp1496
I1
aI3
aI0
aI0
aI1
aI0
aI0
aI0
aI7
aI5
aI0
asS'Bhuvneshwar Kumar'
p1497
(lp1498
I1
aI1
aI2
aI0
aI0
aI0
aI1
aI0
aI11
aI5
aI0
asS'Yuvraj Singh'
p1499
(lp1500
I0
aI4
aI4
aI0
aI0
aI0
aI0
aI0
aI12
aI8
aI0
asS'Piyush Chawla'
p1501
(lp1502
I1
aI4
aI3
aI1
aI0
aI0
aI0
aI0
aI13
aI9
aI0
asS'Praveen Kumar'
p1503
(lp1504
I0
aI3
aI1
aI0
aI1
aI0
aI0
aI0
aI9
aI5
aI0
asS'Zaheer Khan'
p1505
(lp1506
I2
aI1
aI0
aI0
aI0
aI0
aI0
aI0
aI1
aI3
aI0
assS'Unmukt Chand'
p1507
(dp1508
S'Stuart Binny'
p1509
(lp1510
I0
aI3
aI0
aI0
aI0
aI0
aI0
aI0
aI3
aI3
aI0
asS'Varun Aaron'
p1511
(lp1512
I2
aI0
aI0
aI0
aI0
aI0
aI0
aI0
aI0
aI2
aI0
asS'Dhawal Kulkarni'
p1513
(lp1514
I5
aI2
aI0
aI0
aI0
aI0
aI0
aI0
aI2
aI7
aI0
asS'James Faulkner'
p1515
(lp1516
I2
aI0
aI0
aI0
aI0
aI0
aI0
aI0
aI0
aI2
aI0
asS'Amit Mishra'
p1517
(lp1518
I1
aI2
aI0
aI0
aI2
aI0
aI0
aI0
aI10
aI5
aI0
asS'Dale Steyn'
p1519
(lp1520
I1
aI0
aI0
aI0
aI1
aI0
aI0
aI0
aI4
aI2
aI0
asS'Ankit Sharma'
p1521
(lp1522
I0
aI2
aI0
aI0
aI1
aI0
aI0
aI0
aI6
aI3
aI0
asS'Yuzvendra Chahal'
p1523
(lp1524
I18
aI8
aI0
aI0
aI4
aI0
aI2
aI0
aI36
aI32
aI0
asS'Praveen Kumar'
p1525
(lp1526
I1
aI1
aI0
aI0
aI0
aI0
aI0
aI0
aI1
aI2
aI0
asS'Shane Watson'
p1527
(lp1528
I2
aI2
aI1
aI0
aI0
aI0
aI0
aI0
aI4
aI5
aI0
assS'Sunil Narine'
p1529
(dp1530
S'Anureet Singh'
p1531
(lp1532
I1
aI0
aI0
aI0
aI0
aI0
aI0
aI0
aI0
aI1
aI0
assS'David Miller'
p1533
(dp1534
S'Dhawal Kulkarni'
p1535
(lp1536
I1
aI0
aI0
aI0
aI0
aI0
aI0
aI0
aI0
aI1
aI0
asS'Pawan Negi'
p1537
(lp1538
I3
aI0
aI0
aI0
aI0
aI0
aI0
aI0
aI0
aI3
aI0
asS'Harbhajan Singh'
p1539
(lp1540
I8
aI9
aI1
aI0
aI4
aI0
aI0
aI0
aI27
aI22
aI0
asS'Angelo Mathews'
p1541
(lp1542
I3
aI4
aI0
aI0
aI2
aI0
aI0
aI0
aI12
aI9
aI0
asS'Jean-Paul Duminy'
p1543
(lp1544
I8
aI11
aI1
aI0
aI0
aI0
aI0
aI0
aI13
aI20
aI0
asS'Stuart Binny'
p1545
(lp1546
I4
aI0
aI1
aI0
aI2
aI0
aI0
aI0
aI10
aI7
aI0
asS'James Faulkner'
p1547
(lp1548
I12
aI0
aI0
aI0
aI0
aI0
aI4
aI0
aI24
aI16
aI0
asS'Mitchell Starc'
p1549
(lp1550
I2
aI2
aI0
aI0
aI0
aI0
aI0
aI0
aI2
aI4
aI0
asS'Ravichandran Ashwin'
p1551
(lp1552
I8
aI4
aI0
aI0
aI0
aI0
aI0
aI0
aI4
aI12
aI0
asS'Yuzvendra Chahal'
p1553
(lp1554
I0
aI1
aI0
aI0
aI0
aI0
aI2
aI0
aI13
aI3
aI0
asS'Ravindra Jadeja'
p1555
(lp1556
I3
aI4
aI1
aI0
aI1
aI0
aI0
aI0
aI10
aI9
aI0
asS'Imran Tahir'
p1557
(lp1558
I3
aI4
aI0
aI0
aI1
aI0
aI1
aI0
aI14
aI9
aI0
asS'Kieron Pollard'
p1559
(lp1560
I1
aI2
aI2
aI0
aI1
aI0
aI0
aI0
aI10
aI6
aI0
asS'Harshal Patel'
p1561
(lp1562
I0
aI1
aI0
aI0
aI0
aI0
aI0
aI0
aI1
aI1
aI0
asS'Moises Henriques'
p1563
(lp1564
I3
aI12
aI1
aI0
aI0
aI0
aI0
aI0
aI14
aI16
aI0
asS'Brad Hogg'
p1565
(lp1566
I1
aI1
aI0
aI0
aI0
aI0
aI0
aI0
aI1
aI2
aI0
asS'Chris Morris'
p1567
(lp1568
I4
aI2
aI0
aI0
aI0
aI0
aI0
aI0
aI2
aI6
aI0
asS'Lasith Malinga'
p1569
(lp1570
I3
aI4
aI1
aI0
aI0
aI0
aI0
aI0
aI6
aI8
aI0
asS'Andre Russell'
p1571
(lp1572
I0
aI1
aI0
aI0
aI2
aI0
aI2
aI0
aI21
aI5
aI0
asS'Bhuvneshwar Kumar'
p1573
(lp1574
I1
aI2
aI4
aI0
aI0
aI0
aI2
aI0
aI22
aI9
aI0
asS'Amit Mishra'
p1575
(lp1576
I1
aI5
aI0
aI0
aI1
aI0
aI0
aI0
aI9
aI7
aI0
asS'Zaheer Khan'
p1577
(lp1578
I3
aI2
aI0
aI0
aI0
aI0
aI0
aI0
aI2
aI5
aI0
asS'Shane Watson'
p1579
(lp1580
I0
aI2
aI4
aI0
aI0
aI0
aI2
aI0
aI22
aI8
aI0
assS'AB de Villiers'
p1581
(dp1582
S'Ashish Nehra'
p1583
(lp1584
I4
aI2
aI0
aI0
aI1
aI0
aI0
aI0
aI6
aI7
aI0
asS'Dhawal Kulkarni'
p1585
(lp1586
I8
aI7
aI2
aI0
aI3
aI0
aI0
aI0
aI23
aI20
aI0
asS'Harbhajan Singh'
p1587
(lp1588
I0
aI3
aI1
aI0
aI1
aI0
aI1
aI0
aI15
aI6
aI0
asS'Karanveer Singh'
p1589
(lp1590
I1
aI3
aI0
aI0
aI0
aI0
aI3
aI0
aI21
aI7
aI0
asS'Stuart Binny'
p1591
(lp1592
I7
aI3
aI1
aI0
aI0
aI0
aI1
aI0
aI11
aI12
aI0
asS'Anureet Singh'
p1593
(lp1594
I2
aI3
aI0
aI0
aI1
aI0
aI0
aI0
aI7
aI6
aI0
asS'James Faulkner'
p1595
(lp1596
I2
aI7
aI3
aI0
aI5
aI0
aI0
aI0
aI33
aI17
aI0
asS'Axar Patel'
p1597
(lp1598
I4
aI0
aI0
aI0
aI2
aI0
aI1
aI0
aI14
aI7
aI0
asS'Ankit Sharma'
p1599
(lp1600
I3
aI4
aI0
aI0
aI1
aI0
aI2
aI0
aI20
aI10
aI0
asS'Andre Russell'
p1601
(lp1602
I2
aI1
aI0
aI0
aI1
aI0
aI0
aI0
aI5
aI4
aI0
asS'Ravindra Jadeja'
p1603
(lp1604
I2
aI2
aI0
aI0
aI0
aI0
aI2
aI0
aI14
aI6
aI0
asS'Shikhar Dhawan'
p1605
(lp1606
I0
aI4
aI0
aI0
aI1
aI0
aI0
aI0
aI8
aI5
aI0
asS'Moises Henriques'
p1607
(lp1608
I1
aI0
aI0
aI0
aI0
aI0
aI0
aI0
aI0
aI1
aI0
asS'Brad Hogg'
p1609
(lp1610
I0
aI1
aI0
aI0
aI0
aI0
aI0
aI0
aI1
aI1
aI0
asS'Chris Morris'
p1611
(lp1612
I0
aI2
aI1
aI0
aI0
aI0
aI2
aI0
aI16
aI5
aI0
asS'Lasith Malinga'
p1613
(lp1614
I6
aI3
aI3
aI0
aI7
aI0
aI4
aI0
aI61
aI23
aI0
asS'Jasprit Bumrah'
p1615
(lp1616
I4
aI5
aI3
aI0
aI1
aI0
aI2
aI0
aI27
aI15
aI0
asS'Bhuvneshwar Kumar'
p1617
(lp1618
I0
aI2
aI0
aI0
aI1
aI0
aI0
aI0
aI6
aI3
aI0
asS'Mitchell Johnson'
p1619
(lp1620
I1
aI2
aI0
aI0
aI0
aI0
aI0
aI0
aI2
aI3
aI0
asS'Piyush Chawla'
p1621
(lp1622
I2
aI1
aI0
aI0
aI0
aI0
aI0
aI0
aI1
aI3
aI0
asS'Praveen Kumar'
p1623
(lp1624
I1
aI0
aI0
aI0
aI0
aI0
aI0
aI0
aI0
aI1
aI0
asS'Shane Watson'
p1625
(lp1626
I13
aI9
aI5
aI0
aI5
aI0
aI0
aI0
aI39
aI32
aI0
assS'Chris Morris'
p1627
(dp1628
S'Imran Tahir'
p1629
(lp1630
I1
aI1
aI0
aI0
aI0
aI0
aI1
aI0
aI7
aI3
aI0
asS'Dwayne Bravo'
p1631
(lp1632
I0
aI3
aI2
aI0
aI0
aI0
aI1
aI0
aI13
aI6
aI0
asS'Anureet Singh'
p1633
(lp1634
I2
aI2
aI1
aI0
aI0
aI0
aI0
aI0
aI4
aI5
aI0
asS'Morne Morkel'
p1635
(lp1636
I0
aI2
aI0
aI0
aI0
aI0
aI0
aI0
aI2
aI2
aI0
asS'Harshal Patel'
p1637
(lp1638
I0
aI2
aI0
aI0
aI0
aI0
aI0
aI0
aI2
aI2
aI0
asS'Bhuvneshwar Kumar'
p1639
(lp1640
I0
aI3
aI1
aI0
aI2
aI0
aI0
aI0
aI13
aI6
aI0
asS'Mitchell Starc'
p1641
(lp1642
I2
aI1
aI0
aI0
aI0
aI0
aI0
aI0
aI1
aI3
aI0
asS'Axar Patel'
p1643
(lp1644
I1
aI1
aI0
aI0
aI0
aI0
aI0
aI0
aI1
aI2
aI0
asS'Mitchell Johnson'
p1645
(lp1646
I0
aI1
aI0
aI0
aI0
aI0
aI0
aI0
aI1
aI1
aI0
asS'Angelo Mathews'
p1647
(lp1648
I0
aI2
aI0
aI0
aI1
aI0
aI0
aI0
aI6
aI3
aI0
asS'Praveen Kumar'
p1649
(lp1650
I0
aI1
aI1
aI0
aI0
aI0
aI3
aI0
aI21
aI5
aI0
assS'Parthiv Patel'
p1651
(dp1652
S'Ashish Nehra'
p1653
(lp1654
I7
aI2
aI0
aI0
aI3
aI0
aI0
aI0
aI14
aI12
aI0
asS'Dhawal Kulkarni'
p1655
(lp1656
I5
aI3
aI0
aI0
aI4
aI0
aI0
aI0
aI19
aI12
aI0
asS'Pawan Negi'
p1657
(lp1658
I3
aI5
aI2
aI0
aI2
aI0
aI1
aI0
aI23
aI13
aI0
asS'Dale Steyn'
p1659
(lp1660
I7
aI6
aI0
aI0
aI3
aI0
aI0
aI0
aI18
aI16
aI0
asS'Angelo Mathews'
p1661
(lp1662
I5
aI0
aI0
aI0
aI2
aI0
aI1
aI0
aI14
aI8
aI0
asS'Karanveer Singh'
p1663
(lp1664
I2
aI4
aI2
aI0
aI0
aI0
aI0
aI0
aI8
aI8
aI0
asS'Jean-Paul Duminy'
p1665
(lp1666
I1
aI1
aI0
aI0
aI2
aI0
aI0
aI0
aI9
aI4
aI0
asS'Stuart Binny'
p1667
(lp1668
I4
aI2
aI2
aI0
aI0
aI0
aI0
aI0
aI6
aI8
aI0
asS'Anureet Singh'
p1669
(lp1670
I1
aI0
aI0
aI0
aI0
aI0
aI0
aI0
aI0
aI1
aI0
asS'Morne Morkel'
p1671
(lp1672
I0
aI3
aI2
aI0
aI1
aI0
aI0
aI0
aI11
aI6
aI0
asS'Mitchell Starc'
p1673
(lp1674
I2
aI2
aI1
aI0
aI3
aI0
aI0
aI0
aI16
aI8
aI0
asS'Axar Patel'
p1675
(lp1676
I1
aI4
aI1
aI0
aI0
aI0
aI0
aI0
aI6
aI6
aI0
asS'Ravindra Jadeja'
p1677
(lp1678
I1
aI4
aI1
aI0
aI1
aI0
aI0
aI0
aI10
aI7
aI0
asS'Dwayne Bravo'
p1679
(lp1680
I1
aI1
aI1
aI0
aI0
aI0
aI0
aI0
aI3
aI3
aI0
asS'Varun Aaron'
p1681
(lp1682
I0
aI2
aI0
aI0
aI0
aI0
aI0
aI0
aI2
aI2
aI0
asS'Moises Henriques'
p1683
(lp1684
I3
aI4
aI0
aI0
aI2
aI0
aI0
aI0
aI12
aI9
aI0
asS'Glenn Maxwell'
p1685
(lp1686
I0
aI1
aI0
aI0
aI0
aI0
aI1
aI0
aI7
aI2
aI0
asS'Chris Morris'
p1687
(lp1688
I2
aI0
aI0
aI2
aI2
aI0
aI0
aI0
aI14
aI6
aI0
asS'Bhuvneshwar Kumar'
p1689
(lp1690
I7
aI4
aI0
aI0
aI4
aI0
aI0
aI0
aI20
aI15
aI0
asS'Ravichandran Ashwin'
p1691
(lp1692
I10
aI5
aI0
aI1
aI1
aI0
aI0
aI0
aI12
aI17
aI0
asS'Mitchell Johnson'
p1693
(lp1694
I1
aI2
aI1
aI0
aI3
aI0
aI2
aI0
aI28
aI9
aI0
asS'Praveen Kumar'
p1695
(lp1696
I3
aI1
aI0
aI0
aI1
aI0
aI0
aI0
aI5
aI5
aI0
asS'Zaheer Khan'
p1697
(lp1698
I5
aI0
aI1
aI1
aI0
aI0
aI0
aI0
aI5
aI7
aI0
assS'Lasith Malinga'
p1699
(dp1700
S'Imran Tahir'
p1701
(lp1702
I4
aI1
aI0
aI0
aI0
aI0
aI0
aI0
aI1
aI5
aI0
asS'Angelo Mathews'
p1703
(lp1704
I2
aI1
aI0
aI0
aI1
aI0
aI0
aI0
aI5
aI4
aI0
assS'Andre Russell'
p1705
(dp1706
S'Imran Tahir'
p1707
(lp1708
I2
aI0
aI0
aI0
aI1
aI0
aI0
aI0
aI4
aI3
aI0
asS'Stuart Binny'
p1709
(lp1710
I0
aI1
aI0
aI0
aI0
aI0
aI0
aI0
aI1
aI1
aI0
asS'Ashish Nehra'
p1711
(lp1712
I1
aI2
aI0
aI0
aI0
aI0
aI0
aI0
aI2
aI3
aI0
asS'Chris Morris'
p1713
(lp1714
I1
aI0
aI0
aI0
aI0
aI0
aI0
aI0
aI0
aI1
aI0
asS'Anureet Singh'
p1715
(lp1716
I1
aI7
aI4
aI0
aI5
aI0
aI3
aI0
aI53
aI20
aI0
asS'Harshal Patel'
p1717
(lp1718
I3
aI1
aI1
aI0
aI2
aI0
aI1
aI0
aI17
aI8
aI0
asS'Varun Aaron'
p1719
(lp1720
I2
aI1
aI0
aI0
aI4
aI0
aI2
aI0
aI29
aI9
aI0
asS'Moises Henriques'
p1721
(lp1722
I2
aI0
aI0
aI0
aI0
aI0
aI0
aI0
aI0
aI2
aI0
asS'Lasith Malinga'
p1723
(lp1724
I1
aI1
aI0
aI0
aI0
aI0
aI0
aI0
aI1
aI2
aI0
asS'Dhawal Kulkarni'
p1725
(lp1726
I2
aI0
aI1
aI0
aI2
aI0
aI0
aI0
aI10
aI5
aI0
asS'Dwayne Bravo'
p1727
(lp1728
I1
aI5
aI0
aI0
aI2
aI0
aI2
aI0
aI25
aI10
aI0
asS'Pawan Negi'
p1729
(lp1730
I3
aI5
aI0
aI0
aI0
aI0
aI1
aI0
aI11
aI9
aI0
asS'James Faulkner'
p1731
(lp1732
I1
aI3
aI0
aI0
aI0
aI0
aI0
aI0
aI3
aI4
aI0
asS'Shane Watson'
p1733
(lp1734
I1
aI2
aI0
aI0
aI1
aI0
aI1
aI0
aI12
aI5
aI0
asS'Axar Patel'
p1735
(lp1736
I5
aI5
aI6
aI0
aI5
aI0
aI3
aI0
aI55
aI24
aI0
asS'Dale Steyn'
p1737
(lp1738
I0
aI2
aI0
aI0
aI0
aI0
aI0
aI0
aI2
aI2
aI0
asS'Amit Mishra'
p1739
(lp1740
I1
aI1
aI0
aI0
aI0
aI0
aI0
aI0
aI1
aI2
aI0
asS'Yuzvendra Chahal'
p1741
(lp1742
I0
aI3
aI1
aI0
aI3
aI0
aI0
aI0
aI17
aI7
aI0
asS'Ravindra Jadeja'
p1743
(lp1744
I0
aI4
aI0
aI0
aI2
aI0
aI1
aI0
aI18
aI7
aI0
asS'Mitchell Johnson'
p1745
(lp1746
I8
aI4
aI0
aI0
aI6
aI0
aI0
aI0
aI28
aI18
aI0
assS'Ajinkya Rahane'
p1747
(dp1748
S'Ashish Nehra'
p1749
(lp1750
I12
aI16
aI2
aI0
aI9
aI0
aI0
aI0
aI56
aI39
aI0
asS'Angelo Mathews'
p1751
(lp1752
I7
aI9
aI2
aI0
aI1
aI0
aI0
aI0
aI17
aI19
aI0
asS'Anureet Singh'
p1753
(lp1754
I8
aI10
aI0
aI0
aI0
aI0
aI2
aI0
aI22
aI20
aI0
asS'Morne Morkel'
p1755
(lp1756
I4
aI1
aI3
aI0
aI2
aI0
aI1
aI0
aI21
aI11
aI0
asS'Azhar Mahmood'
p1757
(lp1758
I2
aI3
aI0
aI0
aI1
aI0
aI1
aI0
aI13
aI7
aI0
asS'Corey Anderson'
p1759
(lp1760
I0
aI4
aI0
aI0
aI2
aI0
aI0
aI0
aI12
aI6
aI0
asS'Mitchell Starc'
p1761
(lp1762
I4
aI4
aI0
aI0
aI0
aI0
aI0
aI0
aI4
aI8
aI0
asS'Axar Patel'
p1763
(lp1764
I8
aI16
aI6
aI0
aI0
aI0
aI0
aI0
aI28
aI30
aI0
asS'Amit Mishra'
p1765
(lp1766
I2
aI6
aI3
aI0
aI1
aI0
aI1
aI0
aI22
aI13
aI0
asS'Yuzvendra Chahal'
p1767
(lp1768
I3
aI4
aI1
aI0
aI0
aI0
aI0
aI0
aI6
aI8
aI0
asS'Ravindra Jadeja'
p1769
(lp1770
I4
aI12
aI2
aI0
aI0
aI0
aI0
aI0
aI16
aI18
aI0
asS'Imran Tahir'
p1771
(lp1772
I4
aI2
aI0
aI0
aI0
aI0
aI0
aI0
aI2
aI6
aI0
asS'Dwayne Bravo'
p1773
(lp1774
I2
aI6
aI0
aI0
aI2
aI0
aI2
aI0
aI26
aI12
aI0
asS'Harshal Patel'
p1775
(lp1776
I3
aI5
aI0
aI0
aI2
aI0
aI0
aI0
aI13
aI10
aI0
asS'Glenn Maxwell'
p1777
(lp1778
I0
aI4
aI0
aI0
aI0
aI0
aI0
aI0
aI4
aI4
aI0
asS'Ravichandran Ashwin'
p1779
(lp1780
I0
aI10
aI2
aI0
aI2
aI0
aI0
aI0
aI22
aI14
aI0
asS'Lasith Malinga'
p1781
(lp1782
I1
aI4
aI3
aI0
aI1
aI0
aI0
aI0
aI14
aI9
aI0
asS'Bhuvneshwar Kumar'
p1783
(lp1784
I14
aI8
aI2
aI0
aI8
aI0
aI0
aI0
aI44
aI32
aI0
asS'Yuvraj Singh'
p1785
(lp1786
I0
aI3
aI0
aI0
aI0
aI0
aI1
aI0
aI9
aI4
aI0
asS'Mitchell Johnson'
p1787
(lp1788
I10
aI6
aI0
aI0
aI10
aI0
aI0
aI0
aI46
aI26
aI0
asS'Praveen Kumar'
p1789
(lp1790
I2
aI6
aI0
aI0
aI0
aI0
aI0
aI0
aI6
aI8
aI0
asS'Zaheer Khan'
p1791
(lp1792
I1
aI2
aI1
aI0
aI3
aI0
aI0
aI0
aI16
aI7
aI0
assS'Bhuvneshwar Kumar'
p1793
(dp1794
S'Kieron Pollard'
p1795
(lp1796
I1
aI0
aI0
aI0
aI0
aI0
aI0
aI0
aI0
aI1
aI0
asS'Andre Russell'
p1797
(lp1798
I1
aI0
aI0
aI0
aI0
aI0
aI0
aI0
aI0
aI1
aI0
assS'Azhar Mahmood'
p1799
(dp1800
S'James Faulkner'
p1801
(lp1802
I2
aI0
aI1
aI0
aI0
aI0
aI0
aI0
aI2
aI3
aI0
asS'Shane Watson'
p1803
(lp1804
I3
aI0
aI0
aI0
aI1
aI0
aI0
aI0
aI4
aI4
aI0
assS'Yuvraj Singh'
p1805
(dp1806
S'Suresh Raina'
p1807
(lp1808
I0
aI2
aI0
aI0
aI0
aI0
aI0
aI0
aI2
aI2
aI0
asS'Dhawal Kulkarni'
p1809
(lp1810
I1
aI1
aI0
aI0
aI3
aI0
aI0
aI0
aI13
aI5
aI0
asS'Pawan Negi'
p1811
(lp1812
I1
aI2
aI0
aI0
aI1
aI0
aI0
aI0
aI6
aI4
aI0
asS'Harbhajan Singh'
p1813
(lp1814
I8
aI3
aI1
aI0
aI0
aI0
aI0
aI0
aI5
aI12
aI0
asS'Dale Steyn'
p1815
(lp1816
I6
aI6
aI2
aI0
aI0
aI0
aI0
aI0
aI10
aI14
aI0
asS'Shikhar Dhawan'
p1817
(lp1818
I6
aI6
aI2
aI0
aI2
aI0
aI0
aI0
aI18
aI16
aI0
asS'Anureet Singh'
p1819
(lp1820
I4
aI2
aI0
aI0
aI0
aI0
aI2
aI0
aI14
aI8
aI0
asS'Morne Morkel'
p1821
(lp1822
I4
aI2
aI0
aI0
aI0
aI0
aI2
aI0
aI14
aI8
aI0
asS'James Faulkner'
p1823
(lp1824
I3
aI5
aI1
aI0
aI0
aI0
aI2
aI0
aI19
aI11
aI0
asS'Axar Patel'
p1825
(lp1826
I8
aI4
aI2
aI0
aI0
aI0
aI4
aI0
aI32
aI18
aI0
asS'Yuzvendra Chahal'
p1827
(lp1828
I2
aI1
aI0
aI0
aI0
aI0
aI1
aI0
aI7
aI4
aI0
asS'Ravindra Jadeja'
p1829
(lp1830
I4
aI3
aI0
aI0
aI1
aI0
aI0
aI0
aI7
aI8
aI0
asS'Dwayne Bravo'
p1831
(lp1832
I2
aI0
aI0
aI0
aI0
aI0
aI0
aI0
aI0
aI2
aI0
asS'Varun Aaron'
p1833
(lp1834
I1
aI0
aI0
aI0
aI0
aI0
aI0
aI0
aI0
aI1
aI0
asS'Glenn Maxwell'
p1835
(lp1836
I0
aI4
aI0
aI0
aI0
aI0
aI0
aI0
aI4
aI4
aI0
asS'Sunil Narine'
p1837
(lp1838
I4
aI2
aI0
aI0
aI0
aI0
aI0
aI0
aI2
aI6
aI0
asS'Chris Morris'
p1839
(lp1840
I1
aI1
aI0
aI0
aI0
aI0
aI0
aI0
aI1
aI2
aI0
asS'Lasith Malinga'
p1841
(lp1842
I6
aI4
aI0
aI0
aI5
aI0
aI0
aI0
aI24
aI15
aI0
asS'Jasprit Bumrah'
p1843
(lp1844
I1
aI0
aI0
aI0
aI0
aI0
aI0
aI0
aI0
aI1
aI0
asS'Ravichandran Ashwin'
p1845
(lp1846
I3
aI2
aI0
aI0
aI0
aI0
aI1
aI0
aI8
aI6
aI0
asS'Mitchell Johnson'
p1847
(lp1848
I8
aI6
aI0
aI0
aI6
aI0
aI0
aI0
aI30
aI20
aI0
asS'Piyush Chawla'
p1849
(lp1850
I13
aI6
aI0
aI0
aI4
aI0
aI0
aI0
aI22
aI23
aI0
asS'Praveen Kumar'
p1851
(lp1852
I0
aI2
aI0
aI0
aI0
aI0
aI0
aI0
aI2
aI2
aI0
asS'Shane Watson'
p1853
(lp1854
I4
aI2
aI0
aI0
aI1
aI0
aI0
aI0
aI6
aI7
aI0
assS'Mitchell Johnson'
p1855
(dp1856
S'Lasith Malinga'
p1857
(lp1858
I2
aI1
aI0
aI0
aI0
aI0
aI0
aI0
aI1
aI3
aI0
asS'James Faulkner'
p1859
(lp1860
I1
aI2
aI4
aI0
aI0
aI0
aI0
aI0
aI10
aI7
aI0
asS'Morne Morkel'
p1861
(lp1862
I2
aI2
aI0
aI0
aI0
aI0
aI0
aI0
aI2
aI4
aI0
asS'Bhuvneshwar Kumar'
p1863
(lp1864
I1
aI1
aI0
aI0
aI0
aI0
aI0
aI0
aI1
aI2
aI0
asS'Mitchell Starc'
p1865
(lp1866
I2
aI0
aI0
aI0
aI0
aI0
aI0
aI0
aI0
aI2
aI0
asS'Ravichandran Ashwin'
p1867
(lp1868
I0
aI1
aI0
aI0
aI0
aI0
aI0
aI0
aI1
aI1
aI0
asS'Chris Morris'
p1869
(lp1870
I0
aI4
aI2
aI0
aI2
aI0
aI0
aI0
aI16
aI8
aI0
asS'Praveen Kumar'
p1871
(lp1872
I1
aI3
aI0
aI0
aI0
aI0
aI0
aI0
aI3
aI4
aI0
asS'Ravindra Jadeja'
p1873
(lp1874
I1
aI0
aI0
aI0
aI0
aI0
aI0
aI0
aI0
aI1
aI0
assS'George Bailey'
p1875
(dp1876
S'Ashish Nehra'
p1877
(lp1878
I2
aI1
aI0
aI0
aI0
aI0
aI0
aI0
aI1
aI3
aI0
asS'Dhawal Kulkarni'
p1879
(lp1880
I2
aI0
aI0
aI0
aI1
aI0
aI0
aI0
aI4
aI3
aI0
asS'Pawan Negi'
p1881
(lp1882
I0
aI1
aI1
aI0
aI1
aI0
aI0
aI0
aI7
aI3
aI0
asS'Harbhajan Singh'
p1883
(lp1884
I3
aI5
aI1
aI0
aI0
aI0
aI0
aI0
aI7
aI9
aI0
asS'Jean-Paul Duminy'
p1885
(lp1886
I0
aI6
aI2
aI0
aI0
aI0
aI0
aI0
aI10
aI8
aI0
asS'Morne Morkel'
p1887
(lp1888
I8
aI2
aI0
aI0
aI0
aI0
aI2
aI0
aI14
aI12
aI0
asS'James Faulkner'
p1889
(lp1890
I1
aI3
aI1
aI0
aI1
aI0
aI1
aI0
aI15
aI7
aI0
asS'Yuzvendra Chahal'
p1891
(lp1892
I2
aI3
aI0
aI0
aI0
aI0
aI0
aI0
aI3
aI5
aI0
asS'Ravindra Jadeja'
p1893
(lp1894
I1
aI0
aI0
aI0
aI0
aI0
aI0
aI0
aI0
aI1
aI0
asS'Imran Tahir'
p1895
(lp1896
I4
aI4
aI2
aI0
aI0
aI0
aI0
aI0
aI8
aI10
aI0
asS'Kieron Pollard'
p1897
(lp1898
I1
aI4
aI0
aI0
aI1
aI0
aI0
aI0
aI8
aI6
aI0
asS'Harshal Patel'
p1899
(lp1900
I0
aI2
aI1
aI0
aI0
aI0
aI0
aI0
aI4
aI3
aI0
asS'Moises Henriques'
p1901
(lp1902
I4
aI3
aI1
aI0
aI0
aI0
aI0
aI0
aI5
aI8
aI0
asS'Sunil Narine'
p1903
(lp1904
I4
aI10
aI4
aI0
aI0
aI0
aI0
aI0
aI18
aI18
aI0
asS'Chris Morris'
p1905
(lp1906
I2
aI1
aI1
aI0
aI0
aI0
aI0
aI0
aI3
aI4
aI0
asS'Lasith Malinga'
p1907
(lp1908
I2
aI9
aI2
aI0
aI2
aI0
aI1
aI0
aI27
aI16
aI0
asS'Andre Russell'
p1909
(lp1910
I4
aI10
aI2
aI0
aI4
aI0
aI0
aI0
aI30
aI20
aI0
asS'Bhuvneshwar Kumar'
p1911
(lp1912
I1
aI2
aI0
aI0
aI0
aI0
aI0
aI0
aI2
aI3
aI0
asS'Amit Mishra'
p1913
(lp1914
I2
aI3
aI0
aI0
aI2
aI0
aI2
aI0
aI23
aI9
aI0
asS'Piyush Chawla'
p1915
(lp1916
I10
aI16
aI0
aI0
aI0
aI0
aI2
aI0
aI28
aI28
aI0
asS'Praveen Kumar'
p1917
(lp1918
I2
aI1
aI0
aI0
aI3
aI0
aI0
aI0
aI13
aI6
aI0
asS'Zaheer Khan'
p1919
(lp1920
I2
aI1
aI0
aI0
aI1
aI0
aI0
aI0
aI5
aI4
aI0
assS'Ravichandran Ashwin'
p1921
(dp1922
S'Imran Tahir'
p1923
(lp1924
I0
aI1
aI3
aI0
aI0
aI0
aI0
aI0
aI7
aI4
aI0
asS'Lasith Malinga'
p1925
(lp1926
I1
aI5
aI1
aI0
aI2
aI0
aI0
aI0
aI15
aI9
aI0
asS'Harshal Patel'
p1927
(lp1928
I0
aI1
aI0
aI0
aI0
aI0
aI0
aI0
aI1
aI1
aI0
asS'Brad Hogg'
p1929
(lp1930
I1
aI0
aI0
aI0
aI0
aI0
aI0
aI0
aI0
aI1
aI0
assS'Rohit Sharma'
p1931
(dp1932
S'Ashish Nehra'
p1933
(lp1934
I9
aI8
aI8
aI0
aI4
aI0
aI0
aI0
aI40
aI29
aI0
asS'Dhawal Kulkarni'
p1935
(lp1936
I6
aI1
aI0
aI0
aI0
aI0
aI1
aI0
aI7
aI8
aI0
asS'Pawan Negi'
p1937
(lp1938
I2
aI10
aI0
aI0
aI1
aI0
aI0
aI0
aI14
aI13
aI0
asS'Angelo Mathews'
p1939
(lp1940
I3
aI4
aI0
aI0
aI1
aI0
aI1
aI0
aI14
aI9
aI0
asS'Karanveer Singh'
p1941
(lp1942
I1
aI2
aI1
aI0
aI0
aI0
aI0
aI0
aI4
aI4
aI0
asS'Stuart Binny'
p1943
(lp1944
I8
aI1
aI0
aI0
aI1
aI0
aI0
aI0
aI5
aI10
aI0
asS'Anureet Singh'
p1945
(lp1946
I2
aI1
aI2
aI0
aI1
aI0
aI0
aI0
aI9
aI6
aI0
asS'Varun Aaron'
p1947
(lp1948
I4
aI0
aI2
aI0
aI2
aI0
aI2
aI0
aI24
aI10
aI0
asS'Axar Patel'
p1949
(lp1950
I0
aI2
aI1
aI0
aI0
aI0
aI0
aI0
aI4
aI3
aI0
asS'Ankit Sharma'
p1951
(lp1952
I1
aI4
aI1
aI0
aI0
aI0
aI0
aI0
aI6
aI6
aI0
asS'Amit Mishra'
p1953
(lp1954
I7
aI12
aI1
aI0
aI0
aI0
aI1
aI0
aI20
aI21
aI0
asS'Andre Russell'
p1955
(lp1956
I2
aI6
aI0
aI0
aI0
aI0
aI1
aI0
aI12
aI9
aI0
asS'Ravindra Jadeja'
p1957
(lp1958
I4
aI20
aI1
aI0
aI0
aI0
aI1
aI0
aI28
aI26
aI0
asS'Imran Tahir'
p1959
(lp1960
I2
aI7
aI0
aI0
aI1
aI0
aI1
aI0
aI17
aI11
aI0
asS'Dwayne Bravo'
p1961
(lp1962
I4
aI9
aI1
aI0
aI4
aI0
aI0
aI0
aI27
aI18
aI0
asS'Harshal Patel'
p1963
(lp1964
I1
aI1
aI0
aI0
aI0
aI0
aI0
aI0
aI1
aI2
aI0
asS'Sunil Narine'
p1965
(lp1966
I9
aI8
aI0
aI0
aI5
aI0
aI1
aI0
aI34
aI23
aI0
asS'Ravichandran Ashwin'
p1967
(lp1968
I3
aI3
aI3
aI0
aI0
aI0
aI3
aI0
aI27
aI12
aI0
asS'Morne Morkel'
p1969
(lp1970
I4
aI6
aI0
aI0
aI0
aI0
aI0
aI0
aI6
aI10
aI0
asS'Yuzvendra Chahal'
p1971
(lp1972
I1
aI6
aI0
aI0
aI0
aI0
aI0
aI0
aI6
aI7
aI0
asS'Yuvraj Singh'
p1973
(lp1974
I1
aI1
aI1
aI0
aI0
aI0
aI0
aI0
aI3
aI3
aI0
asS'Mitchell Johnson'
p1975
(lp1976
I3
aI1
aI2
aI0
aI1
aI0
aI0
aI0
aI9
aI7
aI0
asS'Piyush Chawla'
p1977
(lp1978
I4
aI5
aI1
aI0
aI2
aI0
aI0
aI0
aI15
aI12
aI0
asS'Praveen Kumar'
p1979
(lp1980
I0
aI3
aI0
aI0
aI1
aI0
aI1
aI0
aI13
aI5
aI0
asS'Zaheer Khan'
p1981
(lp1982
I2
aI2
aI0
aI0
aI0
aI0
aI0
aI0
aI2
aI4
aI0
assS'Piyush Chawla'
p1983
(dp1984
S'Imran Tahir'
p1985
(lp1986
I1
aI1
aI2
aI0
aI0
aI0
aI0
aI0
aI5
aI4
aI0
asS'Lasith Malinga'
p1987
(lp1988
I3
aI0
aI0
aI0
aI0
aI0
aI0
aI0
aI0
aI3
aI0
asS'Dwayne Bravo'
p1989
(lp1990
I2
aI0
aI0
aI0
aI0
aI0
aI0
aI0
aI0
aI2
aI0
asS'Dale Steyn'
p1991
(lp1992
I0
aI3
aI0
aI0
aI1
aI0
aI0
aI0
aI7
aI4
aI0
asS'Anureet Singh'
p1993
(lp1994
I2
aI0
aI0
aI0
aI0
aI0
aI1
aI0
aI6
aI3
aI0
asS'Albie Morkel'
p1995
(lp1996
I2
aI1
aI0
aI0
aI0
aI0
aI0
aI0
aI1
aI3
aI0
asS'Kieron Pollard'
p1997
(lp1998
I3
aI0
aI0
aI0
aI0
aI0
aI0
aI0
aI0
aI3
aI0
asS'Bhuvneshwar Kumar'
p1999
(lp2000
I0
aI2
aI0
aI0
aI0
aI0
aI0
aI0
aI2
aI2
aI0
asS'Yuvraj Singh'
p2001
(lp2002
I2
aI4
aI0
aI0
aI0
aI0
aI0
aI0
aI4
aI6
aI0
asS'Mitchell Johnson'
p2003
(lp2004
I0
aI0
aI0
aI0
aI2
aI0
aI0
aI0
aI8
aI2
aI0
asS'Angelo Mathews'
p2005
(lp2006
I2
aI2
aI0
aI0
aI1
aI0
aI1
aI0
aI12
aI6
aI0
asS'Axar Patel'
p2007
(lp2008
I0
aI1
aI0
aI0
aI0
aI0
aI0
aI0
aI1
aI1
aI0
asS'Shane Watson'
p2009
(lp2010
I1
aI0
aI0
aI0
aI0
aI0
aI0
aI0
aI0
aI1
aI0
assS'Praveen Kumar'
p2011
(dp2012
S'Lasith Malinga'
p2013
(lp2014
I3
aI2
aI0
aI0
aI0
aI0
aI0
aI0
aI2
aI5
aI0
asS'Brad Hogg'
p2015
(lp2016
I2
aI3
aI0
aI0
aI1
aI0
aI0
aI0
aI7
aI6
aI0
asS'Kieron Pollard'
p2017
(lp2018
I0
aI1
aI0
aI0
aI0
aI0
aI0
aI0
aI1
aI1
aI0
asS'Andre Russell'
p2019
(lp2020
I4
aI0
aI0
aI0
aI0
aI0
aI0
aI0
aI0
aI4
aI0
asS'Johan Botha'
p2021
(lp2022
I1
aI2
aI0
aI0
aI0
aI0
aI0
aI0
aI2
aI3
aI0
assS'Robin Uthappa'
p2023
(dp2024
S'Ashish Nehra'
p2025
(lp2026
I5
aI5
aI1
aI1
aI5
aI0
aI1
aI0
aI36
aI18
aI0
asS'Dhawal Kulkarni'
p2027
(lp2028
I2
aI0
aI0
aI0
aI1
aI0
aI0
aI0
aI4
aI3
aI0
asS'Pawan Negi'
p2029
(lp2030
I2
aI6
aI1
aI0
aI0
aI0
aI0
aI0
aI8
aI9
aI0
asS'Harbhajan Singh'
p2031
(lp2032
I2
aI0
aI0
aI0
aI0
aI0
aI1
aI0
aI6
aI3
aI0
asS'Dale Steyn'
p2033
(lp2034
I4
aI7
aI2
aI0
aI1
aI0
aI2
aI0
aI27
aI16
aI0
asS'Angelo Mathews'
p2035
(lp2036
I0
aI2
aI0
aI0
aI0
aI0
aI0
aI0
aI2
aI2
aI0
asS'Darren Sammy'
p2037
(lp2038
I1
aI1
aI0
aI0
aI0
aI0
aI0
aI0
aI1
aI2
aI0
asS'Jean-Paul Duminy'
p2039
(lp2040
I1
aI1
aI0
aI0
aI0
aI0
aI1
aI0
aI7
aI3
aI0
asS'Anureet Singh'
p2041
(lp2042
I1
aI4
aI1
aI0
aI3
aI0
aI0
aI0
aI18
aI9
aI0
asS'Varun Aaron'
p2043
(lp2044
I2
aI4
aI1
aI0
aI2
aI0
aI0
aI0
aI14
aI9
aI0
asS'Corey Anderson'
p2045
(lp2046
I2
aI1
aI0
aI0
aI0
aI0
aI1
aI0
aI7
aI4
aI0
asS'Mitchell Starc'
p2047
(lp2048
I3
aI1
aI0
aI0
aI0
aI0
aI0
aI0
aI1
aI4
aI0
asS'Amit Mishra'
p2049
(lp2050
I7
aI0
aI0
aI0
aI0
aI0
aI0
aI0
aI0
aI7
aI0
asS'Yuzvendra Chahal'
p2051
(lp2052
I1
aI5
aI1
aI0
aI0
aI0
aI0
aI0
aI7
aI7
aI0
asS'Ravindra Jadeja'
p2053
(lp2054
I1
aI3
aI0
aI0
aI1
aI0
aI0
aI0
aI7
aI5
aI0
asS'Imran Tahir'
p2055
(lp2056
I0
aI1
aI1
aI0
aI0
aI0
aI0
aI0
aI3
aI2
aI0
asS'Dwayne Bravo'
p2057
(lp2058
I1
aI2
aI1
aI0
aI0
aI0
aI0
aI0
aI4
aI4
aI0
asS'Harshal Patel'
p2059
(lp2060
I5
aI2
aI0
aI0
aI4
aI0
aI0
aI0
aI18
aI11
aI0
asS'Moises Henriques'
p2061
(lp2062
I3
aI3
aI0
aI0
aI0
aI0
aI0
aI0
aI3
aI6
aI0
asS'Albie Morkel'
p2063
(lp2064
I4
aI1
aI1
aI0
aI2
aI0
aI0
aI0
aI11
aI8
aI0
asS'Chris Morris'
p2065
(lp2066
I1
aI1
aI0
aI0
aI1
aI0
aI0
aI0
aI5
aI3
aI0
asS'Lasith Malinga'
p2067
(lp2068
I7
aI3
aI1
aI0
aI1
aI0
aI0
aI0
aI9
aI12
aI0
asS'Bhuvneshwar Kumar'
p2069
(lp2070
I4
aI7
aI0
aI0
aI2
aI1
aI0
aI0
aI20
aI14
aI0
asS'Ravichandran Ashwin'
p2071
(lp2072
I1
aI0
aI0
aI0
aI0
aI0
aI0
aI0
aI0
aI1
aI0
asS'Praveen Kumar'
p2073
(lp2074
I2
aI3
aI0
aI0
aI4
aI0
aI2
aI0
aI31
aI11
aI0
asS'Zaheer Khan'
p2075
(lp2076
I6
aI3
aI0
aI0
aI2
aI0
aI0
aI0
aI11
aI11
aI0
assS'Shane Watson'
p2077
(dp2078
S'Lasith Malinga'
p2079
(lp2080
I0
aI1
aI0
aI0
aI0
aI0
aI0
aI0
aI1
aI1
aI0
asS'Ashish Nehra'
p2081
(lp2082
I11
aI11
aI2
aI0
aI3
aI0
aI0
aI0
aI27
aI27
aI0
asS'Andre Russell'
p2083
(lp2084
I2
aI6
aI1
aI0
aI0
aI0
aI0
aI0
aI8
aI9
aI0
asS'Anureet Singh'
p2085
(lp2086
I6
aI4
aI0
aI2
aI4
aI0
aI0
aI0
aI26
aI16
aI0
asS'Morne Morkel'
p2087
(lp2088
I2
aI5
aI1
aI0
aI0
aI0
aI1
aI0
aI13
aI9
aI0
asS'Harshal Patel'
p2089
(lp2090
I1
aI1
aI0
aI0
aI0
aI0
aI0
aI0
aI1
aI2
aI0
asS'Azhar Mahmood'
p2091
(lp2092
I3
aI3
aI0
aI0
aI4
aI0
aI1
aI0
aI25
aI11
aI0
asS'Dwayne Bravo'
p2093
(lp2094
I2
aI4
aI0
aI0
aI4
aI0
aI2
aI0
aI32
aI12
aI0
asS'Pawan Negi'
p2095
(lp2096
I1
aI4
aI0
aI0
aI1
aI0
aI0
aI0
aI8
aI6
aI0
asS'Harbhajan Singh'
p2097
(lp2098
I0
aI1
aI0
aI0
aI0
aI0
aI0
aI0
aI1
aI1
aI0
asS'Bhuvneshwar Kumar'
p2099
(lp2100
I2
aI0
aI0
aI0
aI2
aI0
aI0
aI0
aI8
aI4
aI0
asS'Mitchell Starc'
p2101
(lp2102
I5
aI2
aI0
aI0
aI5
aI0
aI0
aI0
aI22
aI12
aI0
asS'Axar Patel'
p2103
(lp2104
I4
aI6
aI0
aI0
aI0
aI0
aI2
aI0
aI18
aI12
aI0
asS'Mitchell Johnson'
p2105
(lp2106
I8
aI6
aI0
aI0
aI0
aI0
aI0
aI0
aI6
aI14
aI0
asS'Ravichandran Ashwin'
p2107
(lp2108
I0
aI8
aI0
aI0
aI0
aI0
aI2
aI0
aI20
aI10
aI0
asS'Angelo Mathews'
p2109
(lp2110
I1
aI0
aI0
aI0
aI1
aI0
aI0
aI0
aI4
aI2
aI0
asS'Yuzvendra Chahal'
p2111
(lp2112
I2
aI0
aI0
aI0
aI1
aI0
aI1
aI0
aI10
aI4
aI0
asS'Praveen Kumar'
p2113
(lp2114
I5
aI0
aI0
aI0
aI1
aI0
aI0
aI0
aI4
aI6
aI0
asS'Ravindra Jadeja'
p2115
(lp2116
I11
aI13
aI2
aI0
aI0
aI0
aI4
aI0
aI41
aI30
aI0
asS'Zaheer Khan'
p2117
(lp2118
I12
aI0
aI1
aI0
aI2
aI0
aI0
aI0
aI10
aI15
aI0
asS'Piyush Chawla'
p2119
(lp2120
I0
aI2
aI0
aI0
aI0
aI0
aI1
aI0
aI8
aI3
aI0
ass.