(dp0
S'Sunil Narine'
p1
(dp2
S'Anureet Singh'
p3
(lp4
I1
aI0
aI0
aI0
aI0
aI0
aI0
aI0
aI0
aI1
aI0
assS'CM Gautam'
p5
(dp6
S'Ashish Nehra'
p7
(lp8
I2
aI0
aI1
aI0
aI0
aI0
aI0
aI0
aI2
aI3
aI1
asS'MM Sharma'
p9
(lp10
I0
aI2
aI0
aI0
aI0
aI0
aI0
aI0
aI2
aI2
aI0
assS'Gautam Gambhir'
p11
(dp12
S'MM Sharma'
p13
(lp14
I5
aI2
aI0
aI0
aI0
aI0
aI1
aI0
aI8
aI8
aI1
asS'Albie Morkel'
p15
(lp16
I0
aI1
aI0
aI0
aI0
aI0
aI0
aI0
aI1
aI1
aI0
asS'Corey Anderson'
p17
(lp18
I1
aI1
aI0
aI0
aI0
aI0
aI0
aI0
aI1
aI2
aI0
asS'Axar Patel'
p19
(lp20
I3
aI1
aI0
aI0
aI0
aI0
aI0
aI0
aI1
aI4
aI0
asS'D Wiese'
p21
(lp22
I2
aI1
aI0
aI0
aI1
aI0
aI0
aI0
aI5
aI4
aI1
asS'Ashish Nehra'
p23
(lp24
I3
aI3
aI1
aI0
aI0
aI0
aI1
aI0
aI11
aI8
aI0
asS'BE Hendricks'
p25
(lp26
I1
aI1
aI0
aI0
aI1
aI0
aI0
aI0
aI5
aI3
aI0
asS'DJ Muthuswami'
p27
(lp28
I14
aI2
aI0
aI0
aI6
aI0
aI0
aI0
aI26
aI22
aI0
asS'Mitchell Starc'
p29
(lp30
I0
aI1
aI0
aI0
aI1
aI0
aI0
aI0
aI5
aI2
aI0
asS'Harbhajan Singh'
p31
(lp32
I4
aI9
aI2
aI0
aI6
aI0
aI0
aI0
aI37
aI21
aI0
asS'Lasith Malinga'
p33
(lp34
I4
aI2
aI1
aI0
aI1
aI0
aI0
aI0
aI8
aI8
aI0
asS'MJ McClenaghan'
p35
(lp36
I3
aI2
aI0
aI0
aI1
aI0
aI0
aI0
aI6
aI6
aI0
asS'Amit Mishra'
p37
(lp38
I0
aI10
aI2
aI0
aI0
aI0
aI0
aI0
aI14
aI12
aI0
asS'Gurkeerat Singh'
p39
(lp40
I3
aI2
aI0
aI0
aI0
aI0
aI0
aI0
aI2
aI5
aI0
asS'NM Coulter-Nile'
p41
(lp42
I2
aI10
aI0
aI0
aI0
aI0
aI0
aI0
aI10
aI12
aI0
asS'Anureet Singh'
p43
(lp44
I10
aI2
aI0
aI0
aI3
aI0
aI0
aI0
aI14
aI15
aI0
asS'Harshal Patel'
p45
(lp46
I3
aI4
aI0
aI0
aI0
aI0
aI0
aI0
aI4
aI7
aI0
asS'Sandeep Sharma'
p47
(lp48
I16
aI4
aI2
aI0
aI2
aI0
aI0
aI0
aI16
aI24
aI2
asS'AN Ahmed'
p49
(lp50
I2
aI5
aI0
aI0
aI1
aI0
aI0
aI0
aI9
aI8
aI0
asS'KV Sharma'
p51
(lp52
I1
aI0
aI1
aI0
aI0
aI0
aI0
aI0
aI2
aI2
aI1
asS'Glenn Maxwell'
p53
(lp54
I0
aI2
aI0
aI0
aI0
aI0
aI0
aI0
aI2
aI2
aI0
asS'Bhuvneshwar Kumar'
p55
(lp56
I2
aI6
aI0
aI0
aI2
aI0
aI0
aI0
aI14
aI10
aI0
asS'Jean-Paul Duminy'
p57
(lp58
I0
aI3
aI0
aI0
aI2
aI0
aI0
aI0
aI11
aI5
aI0
asS'Jasprit Bumrah'
p59
(lp60
I3
aI1
aI0
aI0
aI1
aI0
aI0
aI0
aI5
aI5
aI0
asS'Imran Tahir'
p61
(lp62
I8
aI16
aI0
aI0
aI0
aI0
aI0
aI0
aI16
aI24
aI2
asS'Zaheer Khan'
p63
(lp64
I4
aI2
aI0
aI0
aI0
aI0
aI0
aI0
aI2
aI6
aI1
asS'Mitchell Johnson'
p65
(lp66
I2
aI2
aI0
aI0
aI0
aI0
aI0
aI0
aI2
aI4
aI0
asS'Yuzvendra Chahal'
p67
(lp68
I3
aI3
aI2
aI0
aI1
aI0
aI0
aI0
aI11
aI9
aI1
asS'J Suchith'
p69
(lp70
I1
aI3
aI2
aI0
aI1
aI0
aI0
aI0
aI11
aI7
aI1
asS'Dale Steyn'
p71
(lp72
I11
aI5
aI2
aI0
aI2
aI0
aI0
aI0
aI17
aI20
aI0
asS'Angelo Mathews'
p73
(lp74
I4
aI12
aI0
aI0
aI10
aI0
aI0
aI0
aI52
aI26
aI0
asS'Chris Morris'
p75
(lp76
I2
aI1
aI0
aI0
aI0
aI0
aI0
aI0
aI1
aI3
aI1
asS'Moises Henriques'
p77
(lp78
I2
aI1
aI0
aI0
aI1
aI0
aI0
aI0
aI5
aI4
aI0
asS'NLTC Perera'
p79
(lp80
I0
aI4
aI0
aI0
aI0
aI0
aI0
aI0
aI4
aI4
aI0
asS'Pragyan Ojha'
p81
(lp82
I1
aI4
aI2
aI0
aI0
aI0
aI1
aI0
aI14
aI8
aI0
asS'Darren Sammy'
p83
(lp84
I1
aI2
aI0
aI0
aI1
aI0
aI0
aI0
aI6
aI4
aI0
asS'R Vinay Kumar'
p85
(lp86
I8
aI5
aI0
aI0
aI2
aI0
aI0
aI0
aI13
aI15
aI0
asS'Varun Aaron'
p87
(lp88
I7
aI3
aI1
aI0
aI3
aI0
aI0
aI0
aI17
aI14
aI0
asS'Praveen Kumar'
p89
(lp90
I2
aI1
aI0
aI0
aI0
aI0
aI0
aI0
aI1
aI3
aI2
asS'SA Abbott'
p91
(lp92
I1
aI3
aI0
aI0
aI1
aI0
aI1
aI0
aI13
aI6
aI0
asS'IC Pandey'
p93
(lp94
I1
aI0
aI0
aI0
aI0
aI0
aI0
aI0
aI0
aI1
aI1
assS'AT Rayudu'
p95
(dp96
S'MM Sharma'
p97
(lp98
I5
aI7
aI0
aI0
aI0
aI0
aI5
aI0
aI37
aI17
aI1
asS'Axar Patel'
p99
(lp100
I2
aI2
aI0
aI0
aI0
aI0
aI0
aI0
aI2
aI4
aI0
asS'D Wiese'
p101
(lp102
I2
aI0
aI0
aI0
aI0
aI0
aI0
aI0
aI0
aI2
aI2
asS'Ashish Nehra'
p103
(lp104
I1
aI3
aI1
aI0
aI0
aI0
aI2
aI0
aI17
aI7
aI0
asS'TA Boult'
p105
(lp106
I0
aI2
aI0
aI0
aI0
aI0
aI0
aI0
aI2
aI2
aI0
asS'Angelo Mathews'
p107
(lp108
I1
aI5
aI0
aI0
aI2
aI0
aI0
aI0
aI13
aI8
aI0
asS'Amit Mishra'
p109
(lp110
I4
aI9
aI2
aI0
aI0
aI0
aI0
aI0
aI13
aI15
aI0
asS'Ravindra Jadeja'
p111
(lp112
I0
aI4
aI0
aI0
aI0
aI0
aI0
aI0
aI4
aI4
aI0
asS'Dwayne Bravo'
p113
(lp114
I9
aI19
aI1
aI0
aI2
aI0
aI1
aI0
aI35
aI32
aI2
asS'NM Coulter-Nile'
p115
(lp116
I4
aI3
aI0
aI0
aI3
aI0
aI0
aI0
aI15
aI10
aI0
asS'Anureet Singh'
p117
(lp118
I4
aI0
aI0
aI0
aI1
aI0
aI0
aI0
aI4
aI5
aI0
asS'Harshal Patel'
p119
(lp120
I1
aI0
aI0
aI0
aI0
aI0
aI1
aI0
aI6
aI2
aI0
asS'Sandeep Sharma'
p121
(lp122
I3
aI1
aI0
aI0
aI0
aI0
aI0
aI0
aI1
aI4
aI0
asS'Ankit Sharma'
p123
(lp124
I1
aI5
aI1
aI0
aI0
aI0
aI0
aI0
aI7
aI7
aI0
asS'Bhuvneshwar Kumar'
p125
(lp126
I2
aI0
aI0
aI0
aI0
aI0
aI0
aI0
aI0
aI2
aI1
asS'TG Southee'
p127
(lp128
I1
aI1
aI0
aI0
aI2
aI0
aI1
aI0
aI15
aI5
aI0
asS'Imran Tahir'
p129
(lp130
I5
aI5
aI1
aI0
aI1
aI0
aI0
aI0
aI11
aI12
aI1
asS'Pawan Negi'
p131
(lp132
I3
aI1
aI0
aI0
aI0
aI0
aI1
aI0
aI7
aI5
aI0
asS'Zaheer Khan'
p133
(lp134
I0
aI5
aI0
aI0
aI1
aI0
aI1
aI0
aI15
aI7
aI0
asS'Mitchell Johnson'
p135
(lp136
I3
aI0
aI0
aI0
aI1
aI0
aI0
aI0
aI4
aI4
aI1
asS'Yuzvendra Chahal'
p137
(lp138
I0
aI0
aI1
aI0
aI0
aI0
aI1
aI0
aI8
aI2
aI0
asS'Dhawal Kulkarni'
p139
(lp140
I0
aI1
aI0
aI0
aI0
aI0
aI0
aI0
aI1
aI1
aI0
asS'Dale Steyn'
p141
(lp142
I1
aI1
aI0
aI0
aI1
aI0
aI0
aI0
aI5
aI3
aI0
asS'Shakib Al Hasan'
p143
(lp144
I2
aI0
aI0
aI0
aI0
aI0
aI0
aI0
aI0
aI2
aI1
asS'Stuart Binny'
p145
(lp146
I0
aI1
aI0
aI0
aI0
aI0
aI1
aI0
aI7
aI2
aI0
asS'S Nadeem'
p147
(lp148
I2
aI4
aI0
aI0
aI0
aI0
aI1
aI0
aI10
aI7
aI0
asS'DR Smith'
p149
(lp150
I3
aI2
aI4
aI0
aI0
aI0
aI1
aI0
aI16
aI10
aI0
asS'Shane Watson'
p151
(lp152
I0
aI2
aI0
aI0
aI1
aI0
aI0
aI0
aI6
aI3
aI0
asS'J Theron'
p153
(lp154
I1
aI5
aI1
aI0
aI1
aI0
aI1
aI0
aI17
aI9
aI0
asS'Shikhar Dhawan'
p155
(lp156
I0
aI2
aI0
aI0
aI1
aI0
aI0
aI0
aI6
aI3
aI0
asS'Yuvraj Singh'
p157
(lp158
I1
aI2
aI0
aI0
aI0
aI0
aI0
aI0
aI2
aI3
aI0
asS'Morne Morkel'
p159
(lp160
I2
aI0
aI1
aI0
aI0
aI0
aI0
aI0
aI2
aI3
aI1
asS'IC Pandey'
p161
(lp162
I2
aI2
aI0
aI0
aI2
aI0
aI2
aI0
aI22
aI8
aI0
assS'YK Pathan'
p163
(dp164
S'MM Sharma'
p165
(lp166
I0
aI4
aI1
aI0
aI0
aI0
aI0
aI0
aI6
aI5
aI0
asS'Albie Morkel'
p167
(lp168
I0
aI2
aI0
aI0
aI1
aI0
aI0
aI0
aI6
aI3
aI0
asS'Bipul Sharma'
p169
(lp170
I0
aI0
aI1
aI0
aI0
aI0
aI0
aI0
aI2
aI1
aI0
asS'Axar Patel'
p171
(lp172
I9
aI4
aI0
aI0
aI0
aI0
aI2
aI0
aI16
aI15
aI0
asS'James Faulkner'
p173
(lp174
I1
aI3
aI0
aI0
aI1
aI0
aI1
aI0
aI13
aI6
aI0
asS'BE Hendricks'
p175
(lp176
I5
aI2
aI0
aI0
aI1
aI0
aI0
aI0
aI6
aI8
aI1
asS'Mitchell Starc'
p177
(lp178
I0
aI3
aI1
aI0
aI0
aI0
aI0
aI0
aI5
aI4
aI0
asS'Harbhajan Singh'
p179
(lp180
I5
aI4
aI0
aI0
aI1
aI0
aI0
aI0
aI8
aI10
aI0
asS'Lasith Malinga'
p181
(lp182
I5
aI5
aI0
aI0
aI2
aI0
aI1
aI0
aI19
aI13
aI0
asS'Stuart Binny'
p183
(lp184
I2
aI1
aI0
aI0
aI2
aI0
aI0
aI0
aI9
aI5
aI0
asS'MJ McClenaghan'
p185
(lp186
I1
aI4
aI0
aI0
aI1
aI0
aI0
aI0
aI8
aI6
aI0
asS'NM Coulter-Nile'
p187
(lp188
I6
aI0
aI0
aI0
aI6
aI0
aI0
aI0
aI24
aI12
aI0
asS'Gurkeerat Singh'
p189
(lp190
I0
aI2
aI0
aI0
aI0
aI0
aI1
aI0
aI8
aI3
aI0
asS'Ravindra Jadeja'
p191
(lp192
I2
aI1
aI0
aI0
aI0
aI0
aI0
aI0
aI1
aI3
aI0
asS'Dwayne Bravo'
p193
(lp194
I1
aI0
aI0
aI0
aI0
aI0
aI0
aI0
aI0
aI1
aI1
asS'Amit Mishra'
p195
(lp196
I14
aI8
aI3
aI0
aI5
aI0
aI1
aI0
aI40
aI31
aI0
asS'Anureet Singh'
p197
(lp198
I2
aI7
aI0
aI0
aI6
aI0
aI0
aI0
aI31
aI15
aI0
asS'Kieron Pollard'
p199
(lp200
I1
aI0
aI0
aI0
aI0
aI0
aI0
aI0
aI0
aI1
aI1
asS'Harshal Patel'
p201
(lp202
I1
aI2
aI0
aI0
aI0
aI0
aI1
aI0
aI8
aI4
aI0
asS'AN Ahmed'
p203
(lp204
I0
aI1
aI0
aI0
aI0
aI0
aI0
aI0
aI1
aI1
aI0
asS'Bhuvneshwar Kumar'
p205
(lp206
I4
aI6
aI1
aI0
aI2
aI0
aI0
aI0
aI16
aI13
aI2
asS'Jasprit Bumrah'
p207
(lp208
I1
aI1
aI0
aI0
aI0
aI0
aI1
aI0
aI7
aI3
aI0
asS'Imran Tahir'
p209
(lp210
I3
aI8
aI1
aI0
aI3
aI0
aI3
aI0
aI40
aI18
aI1
asS'Mitchell Johnson'
p211
(lp212
I4
aI8
aI0
aI0
aI2
aI0
aI0
aI0
aI16
aI14
aI0
asS'HH Pandya'
p213
(lp214
I0
aI1
aI0
aI0
aI0
aI0
aI0
aI0
aI1
aI1
aI0
asS'J Suchith'
p215
(lp216
I1
aI2
aI0
aI0
aI1
aI0
aI1
aI0
aI12
aI5
aI0
asS'Dhawal Kulkarni'
p217
(lp218
I4
aI3
aI1
aI0
aI0
aI0
aI0
aI0
aI5
aI8
aI0
asS'Dale Steyn'
p219
(lp220
I2
aI3
aI0
aI0
aI1
aI0
aI0
aI0
aI7
aI6
aI0
asS'Angelo Mathews'
p221
(lp222
I4
aI4
aI0
aI0
aI0
aI0
aI0
aI0
aI4
aI8
aI0
asS'Chris Morris'
p223
(lp224
I2
aI4
aI0
aI0
aI1
aI0
aI0
aI0
aI8
aI7
aI0
asS'Moises Henriques'
p225
(lp226
I3
aI2
aI0
aI1
aI1
aI0
aI0
aI0
aI9
aI7
aI0
asS'NLTC Perera'
p227
(lp228
I4
aI8
aI0
aI0
aI0
aI0
aI0
aI0
aI8
aI12
aI0
asS'Shane Watson'
p229
(lp230
I2
aI2
aI0
aI0
aI1
aI0
aI0
aI0
aI6
aI5
aI1
asS'BB Sran'
p231
(lp232
I1
aI3
aI0
aI0
aI0
aI0
aI0
aI0
aI3
aI4
aI0
asS'Suresh Raina'
p233
(lp234
I2
aI4
aI0
aI0
aI0
aI0
aI0
aI0
aI4
aI6
aI0
asS'R Vinay Kumar'
p235
(lp236
I3
aI5
aI1
aI0
aI1
aI0
aI0
aI0
aI11
aI10
aI0
asS'Varun Aaron'
p237
(lp238
I1
aI0
aI0
aI0
aI0
aI0
aI0
aI0
aI0
aI1
aI1
asS'Yuvraj Singh'
p239
(lp240
I1
aI2
aI0
aI0
aI0
aI0
aI1
aI0
aI8
aI4
aI0
asS'Praveen Kumar'
p241
(lp242
I2
aI0
aI4
aI0
aI0
aI0
aI0
aI0
aI8
aI6
aI0
asS'Ravichandran Ashwin'
p243
(lp244
I2
aI0
aI1
aI0
aI0
aI0
aI0
aI0
aI2
aI3
aI0
assS'Chris Gayle'
p245
(dp246
S'MM Sharma'
p247
(lp248
I6
aI3
aI2
aI0
aI1
aI0
aI0
aI0
aI11
aI12
aI0
asS'YK Pathan'
p249
(lp250
I2
aI7
aI0
aI0
aI1
aI0
aI2
aI0
aI23
aI12
aI0
asS'James Faulkner'
p251
(lp252
I2
aI2
aI0
aI0
aI0
aI0
aI0
aI0
aI2
aI4
aI0
asS'Ashish Nehra'
p253
(lp254
I6
aI1
aI0
aI0
aI0
aI0
aI1
aI0
aI7
aI8
aI0
asS'BE Hendricks'
p255
(lp256
I0
aI1
aI1
aI0
aI0
aI0
aI0
aI0
aI3
aI2
aI1
asS'TA Boult'
p257
(lp258
I3
aI1
aI1
aI0
aI0
aI0
aI1
aI0
aI9
aI6
aI0
asS'Harbhajan Singh'
p259
(lp260
I4
aI4
aI0
aI0
aI0
aI0
aI0
aI0
aI4
aI8
aI2
asS'KC Cariappa'
p261
(lp262
I2
aI2
aI0
aI0
aI1
aI0
aI1
aI0
aI12
aI6
aI0
asS'Lasith Malinga'
p263
(lp264
I18
aI5
aI0
aI0
aI1
aI0
aI0
aI0
aI9
aI24
aI1
asS'Piyush Chawla'
p265
(lp266
I1
aI2
aI0
aI0
aI0
aI0
aI1
aI0
aI8
aI4
aI0
asS'MJ McClenaghan'
p267
(lp268
I13
aI4
aI0
aI0
aI0
aI0
aI1
aI0
aI10
aI18
aI0
asS'Karanveer Singh'
p269
(lp270
I0
aI2
aI0
aI0
aI1
aI0
aI2
aI0
aI18
aI5
aI0
asS'Amit Mishra'
p271
(lp272
I0
aI3
aI0
aI0
aI0
aI0
aI1
aI0
aI9
aI4
aI0
asS'Axar Patel'
p273
(lp274
I6
aI2
aI0
aI0
aI1
aI0
aI3
aI0
aI24
aI12
aI1
asS'Dwayne Bravo'
p275
(lp276
I2
aI1
aI0
aI0
aI0
aI0
aI0
aI0
aI1
aI3
aI0
asS'NM Coulter-Nile'
p277
(lp278
I8
aI3
aI1
aI0
aI2
aI0
aI1
aI0
aI19
aI15
aI0
asS'Anureet Singh'
p279
(lp280
I5
aI4
aI0
aI0
aI0
aI0
aI0
aI0
aI4
aI9
aI0
asS'Sandeep Sharma'
p281
(lp282
I9
aI5
aI0
aI0
aI3
aI0
aI3
aI0
aI35
aI20
aI1
asS'Brad Hogg'
p283
(lp284
I3
aI0
aI0
aI0
aI0
aI0
aI2
aI0
aI12
aI5
aI1
asS'Sunil Narine'
p285
(lp286
I8
aI5
aI1
aI0
aI2
aI0
aI0
aI0
aI15
aI16
aI0
asS'Jasprit Bumrah'
p287
(lp288
I2
aI6
aI2
aI0
aI0
aI0
aI0
aI0
aI10
aI10
aI0
asS'Glenn Maxwell'
p289
(lp290
I3
aI3
aI0
aI0
aI0
aI0
aI2
aI0
aI15
aI8
aI0
asS'Bhuvneshwar Kumar'
p291
(lp292
I6
aI0
aI0
aI0
aI5
aI0
aI2
aI0
aI32
aI13
aI0
asS'Jean-Paul Duminy'
p293
(lp294
I1
aI1
aI0
aI0
aI1
aI0
aI0
aI0
aI5
aI3
aI0
asS'TG Southee'
p295
(lp296
I2
aI0
aI0
aI0
aI1
aI0
aI1
aI0
aI10
aI4
aI1
asS'PJ Cummins'
p297
(lp298
I0
aI3
aI0
aI0
aI0
aI0
aI0
aI0
aI3
aI3
aI0
asS'Imran Tahir'
p299
(lp300
I3
aI3
aI0
aI0
aI1
aI0
aI1
aI0
aI13
aI8
aI0
asS'DJ Muthuswami'
p301
(lp302
I3
aI0
aI0
aI0
aI2
aI0
aI1
aI0
aI14
aI6
aI0
asS'Zaheer Khan'
p303
(lp304
I1
aI0
aI0
aI0
aI0
aI0
aI0
aI0
aI0
aI1
aI0
asS'Mitchell Johnson'
p305
(lp306
I4
aI2
aI0
aI0
aI3
aI0
aI3
aI0
aI32
aI12
aI0
asS'J Yadav'
p307
(lp308
I3
aI1
aI0
aI0
aI0
aI0
aI0
aI0
aI1
aI4
aI0
asS'Dhawal Kulkarni'
p309
(lp310
I8
aI2
aI0
aI0
aI2
aI0
aI1
aI0
aI16
aI13
aI1
asS'Dale Steyn'
p311
(lp312
I0
aI1
aI0
aI0
aI1
aI0
aI1
aI0
aI11
aI3
aI0
asS'Shakib Al Hasan'
p313
(lp314
I2
aI3
aI0
aI0
aI0
aI0
aI2
aI0
aI15
aI7
aI0
asS'Angelo Mathews'
p315
(lp316
I2
aI2
aI0
aI0
aI0
aI0
aI0
aI0
aI2
aI4
aI0
asS'Chris Morris'
p317
(lp318
I12
aI2
aI0
aI0
aI5
aI0
aI1
aI0
aI28
aI20
aI0
asS'Moises Henriques'
p319
(lp320
I1
aI0
aI0
aI0
aI0
aI0
aI0
aI0
aI0
aI1
aI1
asS'UT Yadav'
p321
(lp322
I0
aI0
aI0
aI0
aI0
aI0
aI1
aI0
aI6
aI1
aI0
asS'Shane Watson'
p323
(lp324
I5
aI1
aI0
aI0
aI0
aI0
aI0
aI0
aI1
aI6
aI1
asS'Suresh Raina'
p325
(lp326
I2
aI4
aI0
aI0
aI0
aI0
aI2
aI0
aI16
aI8
aI0
asS'Shikhar Dhawan'
p327
(lp328
I0
aI3
aI0
aI0
aI0
aI0
aI0
aI0
aI3
aI3
aI0
asS'Praveen Kumar'
p329
(lp330
I2
aI0
aI0
aI0
aI1
aI0
aI0
aI0
aI4
aI3
aI1
asS'Ravichandran Ashwin'
p331
(lp332
I9
aI2
aI0
aI0
aI1
aI0
aI0
aI0
aI6
aI12
aI0
asS'Morne Morkel'
p333
(lp334
I2
aI3
aI0
aI0
aI2
aI0
aI1
aI0
aI17
aI8
aI0
asS'Andre Russell'
p335
(lp336
I0
aI2
aI0
aI0
aI1
aI0
aI0
aI0
aI6
aI3
aI0
assS'Ravindra Jadeja'
p337
(dp338
S'Albie Morkel'
p339
(lp340
I2
aI1
aI0
aI0
aI0
aI0
aI0
aI0
aI1
aI3
aI0
asS'YK Pathan'
p341
(lp342
I1
aI4
aI0
aI0
aI0
aI0
aI0
aI0
aI4
aI5
aI0
asS'TA Boult'
p343
(lp344
I1
aI2
aI2
aI0
aI0
aI0
aI0
aI0
aI6
aI5
aI0
asS'Mitchell Starc'
p345
(lp346
I0
aI2
aI0
aI0
aI0
aI0
aI0
aI0
aI2
aI2
aI0
asS'Piyush Chawla'
p347
(lp348
I6
aI4
aI1
aI0
aI0
aI0
aI0
aI0
aI6
aI11
aI0
asS'MJ McClenaghan'
p349
(lp350
I1
aI2
aI0
aI0
aI0
aI0
aI1
aI0
aI8
aI4
aI1
asS'Amit Mishra'
p351
(lp352
I5
aI2
aI0
aI0
aI0
aI0
aI1
aI0
aI8
aI8
aI1
asS'Axar Patel'
p353
(lp354
I1
aI1
aI0
aI0
aI0
aI0
aI0
aI0
aI1
aI2
aI0
asS'Brad Hogg'
p355
(lp356
I5
aI5
aI0
aI0
aI1
aI0
aI1
aI0
aI15
aI12
aI2
asS'Anureet Singh'
p357
(lp358
I1
aI2
aI0
aI0
aI1
aI0
aI0
aI0
aI6
aI4
aI0
asS'Harshal Patel'
p359
(lp360
I4
aI2
aI2
aI0
aI2
aI0
aI0
aI0
aI14
aI10
aI0
asS'Sandeep Sharma'
p361
(lp362
I0
aI2
aI0
aI0
aI0
aI0
aI0
aI0
aI2
aI2
aI0
asS'Bhuvneshwar Kumar'
p363
(lp364
I0
aI4
aI1
aI0
aI0
aI0
aI0
aI0
aI6
aI5
aI0
asS'Jean-Paul Duminy'
p365
(lp366
I1
aI3
aI0
aI0
aI0
aI0
aI0
aI0
aI3
aI4
aI0
asS'PJ Cummins'
p367
(lp368
I4
aI6
aI1
aI0
aI0
aI0
aI0
aI0
aI8
aI11
aI0
asS'Imran Tahir'
p369
(lp370
I1
aI1
aI0
aI0
aI1
aI0
aI0
aI0
aI5
aI3
aI0
asS'Iqbal Abdulla'
p371
(lp372
I2
aI1
aI0
aI0
aI0
aI0
aI0
aI0
aI1
aI3
aI2
asS'Zaheer Khan'
p373
(lp374
I0
aI1
aI0
aI0
aI0
aI0
aI0
aI0
aI1
aI1
aI0
asS'Mitchell Johnson'
p375
(lp376
I0
aI0
aI1
aI1
aI1
aI0
aI0
aI0
aI9
aI3
aI0
asS'Yuzvendra Chahal'
p377
(lp378
I3
aI2
aI0
aI0
aI0
aI0
aI0
aI0
aI2
aI5
aI1
asS'Lasith Malinga'
p379
(lp380
I0
aI4
aI0
aI0
aI0
aI0
aI0
aI0
aI4
aI4
aI0
asS'Kieron Pollard'
p381
(lp382
I0
aI2
aI2
aI0
aI1
aI0
aI0
aI0
aI10
aI5
aI0
asS'GS Sandhu'
p383
(lp384
I1
aI2
aI0
aI0
aI0
aI0
aI0
aI0
aI2
aI3
aI0
asS'R Vinay Kumar'
p385
(lp386
I0
aI4
aI0
aI0
aI1
aI0
aI0
aI0
aI8
aI5
aI0
asS'Praveen Kumar'
p387
(lp388
I1
aI2
aI0
aI0
aI0
aI0
aI0
aI0
aI2
aI3
aI0
asS'Andre Russell'
p389
(lp390
I6
aI4
aI1
aI0
aI0
aI0
aI0
aI0
aI6
aI11
aI0
assS'SS Tiwary'
p391
(dp392
S'Axar Patel'
p393
(lp394
I2
aI1
aI0
aI0
aI1
aI0
aI0
aI0
aI5
aI4
aI0
asS'D Wiese'
p395
(lp396
I0
aI2
aI0
aI0
aI0
aI0
aI0
aI0
aI2
aI2
aI0
asS'James Faulkner'
p397
(lp398
I0
aI2
aI0
aI0
aI0
aI0
aI0
aI0
aI2
aI2
aI0
asS'Mitchell Starc'
p399
(lp400
I0
aI3
aI0
aI0
aI0
aI0
aI0
aI0
aI3
aI3
aI0
asS'Piyush Chawla'
p401
(lp402
I1
aI1
aI0
aI0
aI0
aI0
aI0
aI0
aI1
aI2
aI0
asS'MJ McClenaghan'
p403
(lp404
I1
aI1
aI0
aI0
aI0
aI0
aI0
aI0
aI1
aI2
aI0
asS'Brad Hogg'
p405
(lp406
I0
aI2
aI0
aI0
aI0
aI0
aI1
aI0
aI8
aI3
aI0
asS'Harshal Patel'
p407
(lp408
I0
aI1
aI0
aI0
aI0
aI0
aI1
aI0
aI7
aI2
aI0
asS'Parvez Rasool'
p409
(lp410
I2
aI1
aI0
aI0
aI1
aI0
aI0
aI0
aI5
aI4
aI0
asS'KV Sharma'
p411
(lp412
I6
aI1
aI0
aI0
aI0
aI0
aI1
aI0
aI7
aI8
aI0
asS'RS Bopara'
p413
(lp414
I0
aI0
aI1
aI0
aI0
aI0
aI0
aI0
aI2
aI1
aI0
asS'TG Southee'
p415
(lp416
I2
aI2
aI1
aI1
aI0
aI0
aI2
aI0
aI19
aI8
aI0
asS'Yuzvendra Chahal'
p417
(lp418
I1
aI1
aI0
aI0
aI0
aI0
aI0
aI0
aI1
aI2
aI0
asS'Dhawal Kulkarni'
p419
(lp420
I0
aI3
aI0
aI0
aI1
aI0
aI0
aI0
aI7
aI4
aI0
asS'UT Yadav'
p421
(lp422
I3
aI2
aI0
aI0
aI3
aI0
aI0
aI0
aI14
aI8
aI0
asS'Bhuvneshwar Kumar'
p423
(lp424
I2
aI1
aI0
aI0
aI0
aI0
aI0
aI0
aI1
aI3
aI0
asS'Lasith Malinga'
p425
(lp426
I2
aI2
aI0
aI0
aI1
aI0
aI0
aI0
aI6
aI5
aI0
asS'Moises Henriques'
p427
(lp428
I1
aI0
aI0
aI0
aI0
aI0
aI0
aI0
aI0
aI1
aI0
asS'R Vinay Kumar'
p429
(lp430
I1
aI2
aI0
aI0
aI1
aI0
aI0
aI0
aI6
aI4
aI0
asS'Praveen Kumar'
p431
(lp432
I0
aI0
aI2
aI0
aI0
aI0
aI0
aI0
aI4
aI2
aI0
asS'Andre Russell'
p433
(lp434
I1
aI1
aI0
aI0
aI0
aI0
aI0
aI0
aI1
aI2
aI0
asS'I Sharma'
p435
(lp436
I2
aI3
aI0
aI0
aI1
aI0
aI0
aI0
aI7
aI6
aI0
assS'GH Vihari'
p437
(dp438
S'MM Sharma'
p439
(lp440
I0
aI0
aI1
aI0
aI0
aI0
aI0
aI0
aI2
aI1
aI0
asS'Dwayne Bravo'
p441
(lp442
I1
aI2
aI0
aI0
aI1
aI0
aI0
aI0
aI6
aI4
aI1
asS'RN ten Doeschate'
p443
(lp444
I1
aI1
aI0
aI0
aI0
aI0
aI0
aI0
aI1
aI2
aI0
asS'Anureet Singh'
p445
(lp446
I2
aI1
aI0
aI0
aI2
aI0
aI0
aI0
aI9
aI5
aI1
asS'Mitchell Johnson'
p447
(lp448
I3
aI0
aI0
aI0
aI0
aI0
aI0
aI0
aI0
aI3
aI0
asS'R Vinay Kumar'
p449
(lp450
I1
aI1
aI0
aI0
aI2
aI0
aI0
aI0
aI9
aI4
aI0
asS'Piyush Chawla'
p451
(lp452
I3
aI3
aI0
aI0
aI0
aI0
aI0
aI0
aI3
aI6
aI1
asS'MJ McClenaghan'
p453
(lp454
I0
aI2
aI0
aI0
aI0
aI0
aI0
aI0
aI2
aI2
aI0
asS'Lasith Malinga'
p455
(lp456
I2
aI1
aI0
aI0
aI1
aI0
aI0
aI0
aI5
aI4
aI1
asS'Brad Hogg'
p457
(lp458
I2
aI2
aI0
aI0
aI0
aI0
aI0
aI0
aI2
aI4
aI0
assS'S Aravind'
p459
(dp460
S'Dwayne Bravo'
p461
(lp462
I1
aI0
aI0
aI0
aI0
aI0
aI0
aI0
aI0
aI1
aI0
assS'Dale Steyn'
p463
(dp464
S'Lasith Malinga'
p465
(lp466
I1
aI1
aI0
aI0
aI0
aI0
aI0
aI0
aI1
aI2
aI1
asS'Andre Russell'
p467
(lp468
I0
aI1
aI0
aI0
aI0
aI0
aI0
aI0
aI1
aI1
aI0
asS'Kieron Pollard'
p469
(lp470
I1
aI2
aI1
aI0
aI1
aI0
aI0
aI0
aI8
aI5
aI0
asS'R Vinay Kumar'
p471
(lp472
I1
aI2
aI0
aI0
aI2
aI0
aI0
aI0
aI10
aI5
aI0
assS'Mitchell Johnson'
p473
(dp474
S'James Faulkner'
p475
(lp476
I1
aI2
aI4
aI0
aI0
aI0
aI0
aI0
aI10
aI7
aI2
asS'Mitchell Starc'
p477
(lp478
I2
aI0
aI0
aI0
aI0
aI0
aI0
aI0
aI0
aI2
aI1
asS'R Vinay Kumar'
p479
(lp480
I2
aI3
aI0
aI0
aI0
aI0
aI1
aI0
aI9
aI6
aI0
asS'Praveen Kumar'
p481
(lp482
I1
aI3
aI0
aI0
aI0
aI0
aI0
aI0
aI3
aI4
aI0
asS'Ravichandran Ashwin'
p483
(lp484
I0
aI1
aI0
aI0
aI0
aI0
aI0
aI0
aI1
aI1
aI0
asS'S Aravind'
p485
(lp486
I1
aI1
aI0
aI0
aI0
aI0
aI0
aI0
aI1
aI2
aI0
asS'Morne Morkel'
p487
(lp488
I2
aI2
aI0
aI0
aI0
aI0
aI0
aI0
aI2
aI4
aI2
asS'Lasith Malinga'
p489
(lp490
I2
aI1
aI0
aI0
aI0
aI0
aI0
aI0
aI1
aI3
aI0
asS'Bhuvneshwar Kumar'
p491
(lp492
I1
aI1
aI0
aI0
aI0
aI0
aI0
aI0
aI1
aI2
aI0
asS'Chris Morris'
p493
(lp494
I0
aI4
aI2
aI0
aI2
aI0
aI0
aI0
aI16
aI8
aI0
asS'TG Southee'
p495
(lp496
I3
aI0
aI0
aI0
aI0
aI0
aI0
aI0
aI0
aI3
aI0
asS'Ravindra Jadeja'
p497
(lp498
I1
aI0
aI0
aI0
aI0
aI0
aI0
aI0
aI0
aI1
aI1
asS'P Suyal'
p499
(lp500
I1
aI1
aI0
aI0
aI0
aI0
aI0
aI0
aI1
aI2
aI0
assS'David Miller'
p501
(dp502
S'R Tewatia'
p503
(lp504
I0
aI2
aI0
aI0
aI0
aI0
aI0
aI0
aI2
aI2
aI0
asS'James Faulkner'
p505
(lp506
I12
aI0
aI0
aI0
aI0
aI0
aI4
aI0
aI24
aI16
aI0
asS'TA Boult'
p507
(lp508
I3
aI4
aI1
aI0
aI0
aI0
aI2
aI0
aI18
aI10
aI0
asS'Mitchell Starc'
p509
(lp510
I2
aI2
aI0
aI0
aI0
aI0
aI0
aI0
aI2
aI4
aI0
asS'Harbhajan Singh'
p511
(lp512
I8
aI9
aI1
aI0
aI4
aI0
aI0
aI0
aI27
aI22
aI0
asS'Angelo Mathews'
p513
(lp514
I3
aI4
aI0
aI0
aI2
aI0
aI0
aI0
aI12
aI9
aI0
asS'I Sharma'
p515
(lp516
I4
aI0
aI0
aI0
aI2
aI0
aI3
aI0
aI26
aI9
aI0
asS'MJ McClenaghan'
p517
(lp518
I3
aI0
aI0
aI0
aI0
aI0
aI0
aI0
aI0
aI3
aI0
asS'NM Coulter-Nile'
p519
(lp520
I3
aI2
aI0
aI0
aI0
aI0
aI0
aI0
aI2
aI5
aI0
asS'Ravindra Jadeja'
p521
(lp522
I3
aI4
aI1
aI0
aI1
aI0
aI0
aI0
aI10
aI9
aI1
asS'Brad Hogg'
p523
(lp524
I1
aI1
aI0
aI0
aI0
aI0
aI0
aI0
aI1
aI2
aI0
asS'Moises Henriques'
p525
(lp526
I3
aI12
aI1
aI0
aI0
aI0
aI0
aI0
aI14
aI16
aI0
asS'Harshal Patel'
p527
(lp528
I0
aI1
aI0
aI0
aI0
aI0
aI0
aI0
aI1
aI1
aI0
asS'PV Tambe'
p529
(lp530
I1
aI8
aI2
aI0
aI0
aI0
aI0
aI0
aI12
aI11
aI0
asS'S Aravind'
p531
(lp532
I4
aI1
aI0
aI0
aI1
aI0
aI0
aI0
aI5
aI6
aI1
asS'KV Sharma'
p533
(lp534
I4
aI6
aI1
aI0
aI1
aI0
aI2
aI0
aI24
aI14
aI1
asS'Bhuvneshwar Kumar'
p535
(lp536
I1
aI2
aI4
aI0
aI0
aI0
aI2
aI0
aI22
aI9
aI0
asS'Jean-Paul Duminy'
p537
(lp538
I8
aI11
aI1
aI0
aI0
aI0
aI0
aI0
aI13
aI20
aI2
asS'TG Southee'
p539
(lp540
I3
aI1
aI0
aI0
aI1
aI0
aI1
aI0
aI11
aI6
aI0
asS'Imran Tahir'
p541
(lp542
I3
aI4
aI0
aI0
aI1
aI0
aI1
aI0
aI14
aI9
aI0
asS'Pawan Negi'
p543
(lp544
I3
aI0
aI0
aI0
aI0
aI0
aI0
aI0
aI0
aI3
aI1
asS'Zaheer Khan'
p545
(lp546
I3
aI2
aI0
aI0
aI0
aI0
aI0
aI0
aI2
aI5
aI0
asS'Yuzvendra Chahal'
p547
(lp548
I0
aI1
aI0
aI0
aI0
aI0
aI2
aI0
aI13
aI3
aI1
asS'J Suchith'
p549
(lp550
I4
aI10
aI1
aI0
aI1
aI0
aI1
aI0
aI22
aI17
aI0
asS'Dhawal Kulkarni'
p551
(lp552
I1
aI0
aI0
aI0
aI0
aI0
aI0
aI0
aI0
aI1
aI1
asS'UT Yadav'
p553
(lp554
I0
aI3
aI1
aI0
aI0
aI0
aI0
aI0
aI5
aI4
aI0
asS'Lasith Malinga'
p555
(lp556
I3
aI4
aI1
aI0
aI0
aI0
aI0
aI0
aI6
aI8
aI2
asS'Stuart Binny'
p557
(lp558
I4
aI0
aI1
aI0
aI2
aI0
aI0
aI0
aI10
aI7
aI0
asS'Chris Morris'
p559
(lp560
I4
aI2
aI0
aI0
aI0
aI0
aI0
aI0
aI2
aI6
aI0
asS'Kieron Pollard'
p561
(lp562
I1
aI2
aI2
aI0
aI1
aI0
aI0
aI0
aI10
aI6
aI0
asS'Shane Watson'
p563
(lp564
I0
aI2
aI4
aI0
aI0
aI0
aI2
aI0
aI22
aI8
aI0
asS'R Vinay Kumar'
p565
(lp566
I2
aI2
aI0
aI0
aI0
aI0
aI0
aI0
aI2
aI4
aI0
asS'Ravichandran Ashwin'
p567
(lp568
I8
aI4
aI0
aI0
aI0
aI0
aI0
aI0
aI4
aI12
aI0
asS'DJ Hooda'
p569
(lp570
I6
aI8
aI4
aI0
aI2
aI0
aI4
aI0
aI48
aI24
aI2
asS'Amit Mishra'
p571
(lp572
I1
aI5
aI0
aI0
aI1
aI0
aI0
aI0
aI9
aI7
aI0
asS'Andre Russell'
p573
(lp574
I0
aI1
aI0
aI0
aI2
aI0
aI2
aI0
aI21
aI5
aI0
assS'Shikhar Dhawan'
p575
(dp576
S'MM Sharma'
p577
(lp578
I6
aI5
aI0
aI0
aI2
aI0
aI0
aI0
aI13
aI13
aI1
asS'RG More'
p579
(lp580
I0
aI1
aI0
aI0
aI1
aI0
aI0
aI0
aI5
aI2
aI0
asS'YK Pathan'
p581
(lp582
I2
aI8
aI0
aI0
aI0
aI0
aI0
aI0
aI8
aI10
aI0
asS'D Wiese'
p583
(lp584
I1
aI0
aI0
aI0
aI1
aI0
aI0
aI0
aI4
aI2
aI1
asS'James Faulkner'
p585
(lp586
I4
aI1
aI1
aI0
aI0
aI0
aI0
aI0
aI3
aI6
aI1
asS'Ashish Nehra'
p587
(lp588
I6
aI6
aI1
aI1
aI3
aI0
aI0
aI0
aI23
aI17
aI0
asS'BE Hendricks'
p589
(lp590
I0
aI2
aI0
aI0
aI2
aI0
aI0
aI0
aI10
aI4
aI0
asS'DJ Muthuswami'
p591
(lp592
I8
aI0
aI0
aI0
aI0
aI0
aI0
aI0
aI0
aI8
aI0
asS'Mitchell Starc'
p593
(lp594
I1
aI1
aI0
aI0
aI0
aI0
aI0
aI0
aI1
aI2
aI0
asS'Harbhajan Singh'
p595
(lp596
I3
aI1
aI0
aI0
aI4
aI0
aI1
aI0
aI23
aI9
aI0
asS'Lasith Malinga'
p597
(lp598
I5
aI3
aI1
aI0
aI1
aI0
aI0
aI0
aI9
aI10
aI2
asS'Piyush Chawla'
p599
(lp600
I0
aI4
aI2
aI0
aI0
aI0
aI2
aI0
aI20
aI8
aI0
asS'MJ McClenaghan'
p601
(lp602
I8
aI1
aI1
aI0
aI2
aI0
aI0
aI0
aI11
aI12
aI1
asS'Brad Hogg'
p603
(lp604
I2
aI1
aI0
aI0
aI0
aI0
aI0
aI0
aI1
aI3
aI1
asS'Gurkeerat Singh'
p605
(lp606
I0
aI2
aI0
aI0
aI0
aI0
aI0
aI0
aI2
aI2
aI0
asS'Dwayne Bravo'
p607
(lp608
I2
aI1
aI0
aI0
aI1
aI0
aI0
aI0
aI5
aI4
aI0
asS'NM Coulter-Nile'
p609
(lp610
I4
aI4
aI2
aI1
aI0
aI0
aI0
aI0
aI11
aI11
aI0
asS'Anureet Singh'
p611
(lp612
I2
aI1
aI0
aI0
aI0
aI0
aI0
aI0
aI1
aI3
aI0
asS'Harshal Patel'
p613
(lp614
I1
aI3
aI1
aI0
aI0
aI0
aI0
aI0
aI5
aI5
aI0
asS'Johan Botha'
p615
(lp616
I9
aI15
aI0
aI0
aI0
aI0
aI0
aI0
aI15
aI24
aI0
asS'Sandeep Sharma'
p617
(lp618
I4
aI1
aI1
aI0
aI2
aI0
aI0
aI0
aI11
aI8
aI0
asS'AN Ahmed'
p619
(lp620
I7
aI3
aI0
aI0
aI0
aI0
aI2
aI0
aI15
aI12
aI0
asS'Sunil Narine'
p621
(lp622
I4
aI4
aI2
aI2
aI2
aI0
aI0
aI0
aI22
aI14
aI0
asS'PV Tambe'
p623
(lp624
I0
aI4
aI0
aI0
aI0
aI0
aI1
aI0
aI10
aI5
aI0
asS'Glenn Maxwell'
p625
(lp626
I1
aI0
aI0
aI0
aI0
aI0
aI0
aI0
aI0
aI1
aI1
asS'Jean-Paul Duminy'
p627
(lp628
I2
aI4
aI0
aI0
aI0
aI0
aI0
aI0
aI4
aI6
aI0
asS'TG Southee'
p629
(lp630
I8
aI0
aI0
aI0
aI0
aI0
aI0
aI0
aI0
aI8
aI0
asS'SA Abbott'
p631
(lp632
I2
aI2
aI0
aI0
aI2
aI0
aI0
aI0
aI10
aI6
aI0
asS'Pawan Negi'
p633
(lp634
I1
aI3
aI0
aI0
aI1
aI0
aI0
aI0
aI7
aI5
aI0
asS'Zaheer Khan'
p635
(lp636
I5
aI0
aI0
aI0
aI2
aI0
aI0
aI0
aI8
aI7
aI1
asS'Mitchell Johnson'
p637
(lp638
I1
aI1
aI0
aI0
aI0
aI0
aI0
aI0
aI1
aI2
aI1
asS'Yuzvendra Chahal'
p639
(lp640
I0
aI8
aI0
aI0
aI0
aI0
aI0
aI0
aI8
aI8
aI0
asS'J Yadav'
p641
(lp642
I0
aI2
aI0
aI0
aI0
aI0
aI0
aI0
aI2
aI2
aI0
asS'Dhawal Kulkarni'
p643
(lp644
I7
aI3
aI0
aI0
aI6
aI0
aI0
aI0
aI27
aI16
aI2
asS'UT Yadav'
p645
(lp646
I6
aI8
aI0
aI0
aI4
aI0
aI0
aI0
aI24
aI18
aI0
asS'Angelo Mathews'
p647
(lp648
I6
aI0
aI0
aI0
aI6
aI0
aI0
aI0
aI24
aI12
aI0
asS'Chris Morris'
p649
(lp650
I1
aI1
aI0
aI0
aI0
aI0
aI0
aI0
aI1
aI2
aI0
asS'Shane Watson'
p651
(lp652
I0
aI2
aI0
aI0
aI0
aI0
aI0
aI0
aI2
aI2
aI0
asS'Suresh Raina'
p653
(lp654
I2
aI6
aI0
aI0
aI1
aI0
aI0
aI0
aI10
aI9
aI0
asS'Darren Sammy'
p655
(lp656
I1
aI4
aI0
aI0
aI1
aI0
aI0
aI0
aI8
aI6
aI0
asS'Varun Aaron'
p657
(lp658
I4
aI3
aI0
aI0
aI1
aI0
aI0
aI0
aI7
aI8
aI0
asS'DJ Hooda'
p659
(lp660
I7
aI7
aI1
aI0
aI4
aI0
aI1
aI0
aI31
aI20
aI0
asS'Morne Morkel'
p661
(lp662
I8
aI12
aI0
aI0
aI2
aI0
aI0
aI0
aI20
aI22
aI0
asS'Andre Russell'
p663
(lp664
I4
aI1
aI0
aI0
aI3
aI0
aI0
aI0
aI13
aI8
aI0
assS'Pawan Negi'
p665
(dp666
S'Brad Hogg'
p667
(lp668
I2
aI1
aI0
aI0
aI0
aI0
aI1
aI0
aI7
aI4
aI1
asS'Shane Watson'
p669
(lp670
I0
aI1
aI0
aI0
aI0
aI0
aI0
aI0
aI1
aI1
aI0
asS'D Wiese'
p671
(lp672
I2
aI1
aI0
aI0
aI1
aI0
aI0
aI0
aI5
aI4
aI0
asS'Zaheer Khan'
p673
(lp674
I3
aI0
aI1
aI0
aI0
aI0
aI0
aI0
aI2
aI4
aI0
asS'Yuzvendra Chahal'
p675
(lp676
I0
aI1
aI0
aI0
aI0
aI0
aI1
aI0
aI7
aI2
aI0
asS'Harshal Patel'
p677
(lp678
I0
aI1
aI2
aI0
aI0
aI0
aI1
aI0
aI11
aI4
aI0
asS'GS Sandhu'
p679
(lp680
I1
aI3
aI0
aI0
aI0
aI0
aI0
aI0
aI3
aI4
aI0
asS'Mitchell Starc'
p681
(lp682
I1
aI2
aI0
aI0
aI0
aI0
aI0
aI0
aI2
aI3
aI1
asS'R Vinay Kumar'
p683
(lp684
I1
aI4
aI1
aI0
aI1
aI0
aI0
aI0
aI10
aI7
aI1
asS'A Ashish Reddy'
p685
(lp686
I0
aI2
aI0
aI0
aI1
aI0
aI1
aI0
aI12
aI4
aI0
asS'Praveen Kumar'
p687
(lp688
I0
aI3
aI0
aI0
aI0
aI0
aI0
aI0
aI3
aI3
aI0
asS'M de Lange'
p689
(lp690
I2
aI1
aI1
aI1
aI3
aI0
aI0
aI0
aI18
aI8
aI0
asS'MJ McClenaghan'
p691
(lp692
I1
aI2
aI2
aI0
aI0
aI0
aI1
aI0
aI12
aI6
aI0
asS'Lasith Malinga'
p693
(lp694
I2
aI2
aI0
aI0
aI0
aI0
aI0
aI0
aI2
aI4
aI1
asS'Bhuvneshwar Kumar'
p695
(lp696
I1
aI0
aI0
aI0
aI0
aI0
aI0
aI0
aI0
aI1
aI1
asS'Chris Morris'
p697
(lp698
I1
aI1
aI0
aI0
aI0
aI0
aI0
aI0
aI1
aI2
aI1
asS'Andre Russell'
p699
(lp700
I0
aI1
aI1
aI0
aI1
aI0
aI0
aI0
aI7
aI3
aI0
asS'Moises Henriques'
p701
(lp702
I3
aI0
aI0
aI0
aI0
aI0
aI0
aI0
aI0
aI3
aI0
asS'PJ Cummins'
p703
(lp704
I2
aI1
aI0
aI0
aI3
aI0
aI0
aI0
aI13
aI6
aI0
assS'PJ Cummins'
p705
(dp706
S'Ashish Nehra'
p707
(lp708
I1
aI0
aI0
aI0
aI0
aI0
aI0
aI0
aI0
aI1
aI0
asS'Dwayne Bravo'
p709
(lp710
I1
aI0
aI0
aI0
aI0
aI0
aI0
aI0
aI0
aI1
aI0
assS'Jean-Paul Duminy'
p711
(dp712
S'MM Sharma'
p713
(lp714
I0
aI2
aI0
aI0
aI1
aI0
aI0
aI0
aI6
aI3
aI0
asS'Axar Patel'
p715
(lp716
I2
aI0
aI0
aI0
aI0
aI0
aI0
aI0
aI0
aI2
aI0
asS'D Wiese'
p717
(lp718
I2
aI6
aI2
aI0
aI0
aI0
aI0
aI0
aI10
aI10
aI1
asS'James Faulkner'
p719
(lp720
I8
aI5
aI3
aI0
aI1
aI0
aI1
aI0
aI21
aI18
aI1
asS'Mitchell Starc'
p721
(lp722
I4
aI3
aI4
aI0
aI3
aI0
aI0
aI0
aI23
aI14
aI0
asS'Harbhajan Singh'
p723
(lp724
I6
aI7
aI2
aI0
aI0
aI0
aI0
aI0
aI11
aI15
aI0
asS'HH Pandya'
p725
(lp726
I0
aI3
aI0
aI0
aI1
aI0
aI0
aI0
aI7
aI4
aI0
asS'Stuart Binny'
p727
(lp728
I1
aI0
aI0
aI0
aI1
aI0
aI1
aI0
aI10
aI3
aI0
asS'Rajat Bhatia'
p729
(lp730
I2
aI3
aI1
aI0
aI1
aI0
aI1
aI0
aI15
aI8
aI0
asS'MJ McClenaghan'
p731
(lp732
I4
aI2
aI0
aI0
aI0
aI0
aI0
aI0
aI2
aI6
aI0
asS'Brad Hogg'
p733
(lp734
I0
aI2
aI0
aI0
aI0
aI0
aI0
aI0
aI2
aI2
aI0
asS'Chris Gayle'
p735
(lp736
I1
aI3
aI1
aI0
aI0
aI0
aI1
aI0
aI11
aI6
aI0
asS'Dwayne Bravo'
p737
(lp738
I0
aI2
aI0
aI0
aI0
aI0
aI0
aI0
aI2
aI2
aI0
asS'Anureet Singh'
p739
(lp740
I6
aI2
aI0
aI0
aI2
aI0
aI0
aI0
aI10
aI10
aI0
asS'A Ashish Reddy'
p741
(lp742
I0
aI4
aI0
aI0
aI0
aI0
aI0
aI0
aI4
aI4
aI0
asS'Kieron Pollard'
p743
(lp744
I0
aI4
aI0
aI0
aI1
aI0
aI2
aI0
aI20
aI7
aI0
asS'Harshal Patel'
p745
(lp746
I4
aI4
aI0
aI0
aI2
aI0
aI0
aI0
aI12
aI10
aI0
asS'Johan Botha'
p747
(lp748
I0
aI2
aI0
aI0
aI1
aI0
aI0
aI0
aI6
aI3
aI0
asS'Sandeep Sharma'
p749
(lp750
I2
aI4
aI2
aI0
aI2
aI0
aI0
aI0
aI16
aI10
aI0
asS'Sunil Narine'
p751
(lp752
I7
aI4
aI0
aI0
aI1
aI0
aI1
aI0
aI14
aI13
aI2
asS'PV Tambe'
p753
(lp754
I2
aI4
aI0
aI0
aI0
aI0
aI0
aI0
aI4
aI6
aI0
asS'Parvez Rasool'
p755
(lp756
I2
aI5
aI1
aI0
aI0
aI0
aI0
aI0
aI7
aI8
aI0
asS'KV Sharma'
p757
(lp758
I1
aI9
aI0
aI0
aI0
aI0
aI0
aI0
aI9
aI10
aI1
asS'RS Bopara'
p759
(lp760
I6
aI10
aI2
aI0
aI8
aI0
aI2
aI0
aI58
aI28
aI0
asS'Jasprit Bumrah'
p761
(lp762
I3
aI5
aI1
aI0
aI1
aI0
aI4
aI0
aI35
aI14
aI0
asS'Piyush Chawla'
p763
(lp764
I1
aI3
aI0
aI0
aI0
aI0
aI0
aI0
aI3
aI4
aI1
asS'Mitchell Johnson'
p765
(lp766
I2
aI4
aI0
aI0
aI2
aI0
aI0
aI0
aI12
aI8
aI0
asS'Yuzvendra Chahal'
p767
(lp768
I3
aI6
aI0
aI0
aI0
aI0
aI2
aI0
aI18
aI11
aI0
asS'J Suchith'
p769
(lp770
I1
aI1
aI0
aI0
aI1
aI0
aI0
aI0
aI5
aI3
aI1
asS'Dhawal Kulkarni'
p771
(lp772
I0
aI4
aI1
aI0
aI0
aI0
aI0
aI0
aI6
aI5
aI0
asS'UT Yadav'
p773
(lp774
I2
aI2
aI0
aI0
aI2
aI0
aI0
aI0
aI10
aI6
aI0
asS'Bhuvneshwar Kumar'
p775
(lp776
I14
aI1
aI4
aI0
aI0
aI0
aI0
aI0
aI9
aI19
aI0
asS'Lasith Malinga'
p777
(lp778
I9
aI4
aI0
aI0
aI1
aI0
aI0
aI0
aI8
aI14
aI0
asS'Chris Morris'
p779
(lp780
I1
aI3
aI1
aI0
aI0
aI0
aI2
aI0
aI17
aI7
aI0
asS'Moises Henriques'
p781
(lp782
I1
aI2
aI0
aI0
aI0
aI0
aI0
aI0
aI2
aI3
aI0
asS'Dale Steyn'
p783
(lp784
I8
aI6
aI0
aI0
aI2
aI0
aI2
aI0
aI26
aI18
aI0
asS'Shane Watson'
p785
(lp786
I6
aI2
aI1
aI0
aI0
aI0
aI1
aI0
aI10
aI10
aI0
asS'TG Southee'
p787
(lp788
I3
aI5
aI0
aI1
aI0
aI0
aI0
aI0
aI8
aI9
aI0
asS'Shikhar Dhawan'
p789
(lp790
I4
aI4
aI0
aI0
aI0
aI0
aI0
aI0
aI4
aI8
aI0
asS'R Vinay Kumar'
p791
(lp792
I1
aI2
aI0
aI0
aI1
aI0
aI2
aI0
aI18
aI6
aI0
asS'Varun Aaron'
p793
(lp794
I3
aI1
aI0
aI0
aI1
aI0
aI0
aI0
aI5
aI5
aI0
asS'AB Dinda'
p795
(lp796
I0
aI1
aI0
aI0
aI0
aI0
aI0
aI0
aI1
aI1
aI0
asS'Praveen Kumar'
p797
(lp798
I3
aI4
aI0
aI0
aI0
aI0
aI0
aI0
aI4
aI7
aI0
asS'DJ Hooda'
p799
(lp800
I3
aI7
aI1
aI0
aI0
aI0
aI0
aI0
aI9
aI11
aI0
asS'Morne Morkel'
p801
(lp802
I4
aI0
aI0
aI0
aI0
aI0
aI0
aI0
aI0
aI4
aI0
asS'IC Pandey'
p803
(lp804
I5
aI1
aI1
aI0
aI0
aI0
aI0
aI0
aI3
aI7
aI1
asS'I Sharma'
p805
(lp806
I0
aI1
aI0
aI0
aI0
aI0
aI0
aI0
aI1
aI1
aI0
assS'SS Iyer'
p807
(dp808
S'MM Sharma'
p809
(lp810
I3
aI4
aI0
aI0
aI2
aI0
aI0
aI0
aI12
aI9
aI0
asS'Axar Patel'
p811
(lp812
I0
aI5
aI0
aI0
aI0
aI0
aI1
aI0
aI11
aI6
aI0
asS'D Wiese'
p813
(lp814
I1
aI2
aI0
aI0
aI0
aI0
aI0
aI0
aI2
aI3
aI0
asS'James Faulkner'
p815
(lp816
I1
aI1
aI0
aI0
aI1
aI0
aI1
aI0
aI11
aI4
aI0
asS'Ashish Nehra'
p817
(lp818
I3
aI1
aI0
aI0
aI1
aI0
aI0
aI0
aI5
aI5
aI1
asS'Mitchell Starc'
p819
(lp820
I4
aI2
aI0
aI0
aI0
aI0
aI1
aI0
aI8
aI7
aI1
asS'Harbhajan Singh'
p821
(lp822
I4
aI7
aI0
aI0
aI1
aI0
aI2
aI0
aI23
aI14
aI1
asS'HH Pandya'
p823
(lp824
I4
aI3
aI0
aI0
aI1
aI0
aI0
aI0
aI7
aI8
aI0
asS'Piyush Chawla'
p825
(lp826
I3
aI10
aI2
aI0
aI1
aI0
aI1
aI0
aI24
aI17
aI2
asS'MJ McClenaghan'
p827
(lp828
I12
aI2
aI1
aI0
aI5
aI0
aI2
aI0
aI36
aI22
aI0
asS'Brad Hogg'
p829
(lp830
I3
aI3
aI0
aI0
aI1
aI0
aI0
aI0
aI7
aI7
aI1
asS'Ravindra Jadeja'
p831
(lp832
I2
aI4
aI0
aI0
aI1
aI0
aI0
aI0
aI8
aI7
aI0
asS'SN Thakur'
p833
(lp834
I3
aI2
aI1
aI0
aI1
aI0
aI2
aI0
aI20
aI9
aI1
asS'Anureet Singh'
p835
(lp836
I4
aI4
aI0
aI0
aI2
aI0
aI0
aI0
aI12
aI10
aI0
asS'A Ashish Reddy'
p837
(lp838
I2
aI2
aI2
aI0
aI0
aI0
aI2
aI0
aI18
aI8
aI0
asS'Harshal Patel'
p839
(lp840
I2
aI1
aI0
aI0
aI0
aI0
aI0
aI0
aI1
aI3
aI0
asS'TG Southee'
p841
(lp842
I4
aI3
aI0
aI0
aI1
aI0
aI0
aI0
aI7
aI8
aI0
asS'Sandeep Sharma'
p843
(lp844
I14
aI1
aI2
aI0
aI2
aI0
aI0
aI0
aI13
aI19
aI2
asS'Sunil Narine'
p845
(lp846
I3
aI2
aI0
aI0
aI0
aI0
aI0
aI0
aI2
aI5
aI0
asS'PV Tambe'
p847
(lp848
I4
aI4
aI0
aI0
aI1
aI0
aI1
aI0
aI14
aI10
aI0
asS'KV Sharma'
p849
(lp850
I4
aI6
aI0
aI0
aI0
aI0
aI6
aI0
aI42
aI16
aI1
asS'Bhuvneshwar Kumar'
p851
(lp852
I9
aI2
aI0
aI0
aI0
aI0
aI0
aI0
aI2
aI11
aI0
asS'Jasprit Bumrah'
p853
(lp854
I1
aI3
aI1
aI0
aI2
aI0
aI1
aI0
aI19
aI8
aI0
asS'Pawan Negi'
p855
(lp856
I3
aI5
aI1
aI0
aI2
aI0
aI0
aI0
aI15
aI11
aI0
asS'Dhawal Kulkarni'
p857
(lp858
I4
aI0
aI0
aI0
aI2
aI0
aI0
aI0
aI8
aI6
aI0
asS'Dale Steyn'
p859
(lp860
I8
aI2
aI4
aI0
aI2
aI0
aI0
aI0
aI18
aI16
aI0
asS'RS Bopara'
p861
(lp862
I4
aI8
aI0
aI0
aI0
aI0
aI0
aI0
aI8
aI12
aI0
asS'Lasith Malinga'
p863
(lp864
I6
aI3
aI1
aI0
aI1
aI0
aI0
aI0
aI9
aI11
aI1
asS'Chris Morris'
p865
(lp866
I5
aI1
aI0
aI0
aI0
aI0
aI1
aI0
aI7
aI7
aI1
asS'Kieron Pollard'
p867
(lp868
I1
aI4
aI0
aI0
aI0
aI0
aI0
aI0
aI4
aI5
aI0
asS'UT Yadav'
p869
(lp870
I3
aI6
aI0
aI0
aI0
aI0
aI0
aI0
aI6
aI9
aI0
asS'Shane Watson'
p871
(lp872
I1
aI0
aI0
aI0
aI0
aI0
aI0
aI0
aI0
aI1
aI0
asS'NLTC Perera'
p873
(lp874
I0
aI4
aI1
aI0
aI1
aI0
aI0
aI0
aI10
aI6
aI0
asS'Suresh Raina'
p875
(lp876
I1
aI2
aI0
aI0
aI1
aI0
aI0
aI0
aI6
aI4
aI0
asS'R Vinay Kumar'
p877
(lp878
I3
aI2
aI1
aI0
aI0
aI0
aI0
aI0
aI4
aI6
aI0
asS'AB Dinda'
p879
(lp880
I1
aI3
aI1
aI0
aI1
aI0
aI0
aI0
aI9
aI6
aI0
asS'Praveen Kumar'
p881
(lp882
I14
aI4
aI0
aI0
aI4
aI0
aI2
aI0
aI32
aI24
aI2
asS'Ravichandran Ashwin'
p883
(lp884
I6
aI3
aI2
aI0
aI2
aI0
aI0
aI0
aI15
aI13
aI0
asS'DJ Hooda'
p885
(lp886
I4
aI2
aI0
aI0
aI0
aI0
aI0
aI0
aI2
aI6
aI0
asS'Morne Morkel'
p887
(lp888
I8
aI2
aI2
aI0
aI4
aI0
aI0
aI0
aI22
aI16
aI0
asS'Andre Russell'
p889
(lp890
I13
aI9
aI1
aI0
aI3
aI0
aI3
aI0
aI41
aI29
aI0
asS'IC Pandey'
p891
(lp892
I2
aI2
aI0
aI0
aI2
aI0
aI1
aI0
aI16
aI7
aI0
assS'Iqbal Abdulla'
p893
(dp894
S'Lasith Malinga'
p895
(lp896
I2
aI2
aI0
aI0
aI2
aI0
aI0
aI0
aI10
aI6
aI0
asS'HH Pandya'
p897
(lp898
I2
aI2
aI0
aI0
aI0
aI0
aI0
aI0
aI2
aI4
aI0
asS'Dwayne Bravo'
p899
(lp900
I3
aI0
aI0
aI0
aI0
aI0
aI0
aI0
aI0
aI3
aI1
asS'Jasprit Bumrah'
p901
(lp902
I8
aI2
aI0
aI0
aI6
aI0
aI0
aI0
aI26
aI16
aI0
asS'MJ McClenaghan'
p903
(lp904
I2
aI2
aI0
aI0
aI0
aI0
aI0
aI0
aI2
aI4
aI0
assS'Ashish Nehra'
p905
(dp906
S'Lasith Malinga'
p907
(lp908
I1
aI0
aI0
aI0
aI0
aI0
aI0
aI0
aI0
aI1
aI1
asS'Brad Hogg'
p909
(lp910
I1
aI0
aI0
aI0
aI0
aI0
aI0
aI0
aI0
aI1
aI0
asS'Andre Russell'
p911
(lp912
I2
aI1
aI0
aI0
aI0
aI0
aI0
aI0
aI1
aI3
aI0
asS'Mitchell Starc'
p913
(lp914
I3
aI0
aI0
aI0
aI0
aI0
aI0
aI0
aI0
aI3
aI0
assS'Wriddhiman Saha'
p915
(dp916
S'MM Sharma'
p917
(lp918
I2
aI1
aI0
aI0
aI0
aI0
aI0
aI0
aI1
aI3
aI0
asS'Bipul Sharma'
p919
(lp920
I1
aI1
aI0
aI0
aI0
aI0
aI0
aI0
aI1
aI2
aI0
asS'D Wiese'
p921
(lp922
I1
aI0
aI0
aI0
aI0
aI0
aI0
aI0
aI0
aI1
aI1
asS'James Faulkner'
p923
(lp924
I0
aI2
aI0
aI0
aI2
aI0
aI0
aI0
aI10
aI4
aI0
asS'Ashish Nehra'
p925
(lp926
I1
aI0
aI0
aI0
aI0
aI0
aI0
aI0
aI0
aI1
aI1
asS'TA Boult'
p927
(lp928
I2
aI1
aI0
aI0
aI1
aI0
aI0
aI0
aI5
aI4
aI1
asS'Mitchell Starc'
p929
(lp930
I2
aI4
aI1
aI0
aI2
aI0
aI0
aI0
aI14
aI9
aI0
asS'Lasith Malinga'
p931
(lp932
I1
aI3
aI0
aI0
aI1
aI0
aI0
aI0
aI7
aI5
aI0
asS'Piyush Chawla'
p933
(lp934
I1
aI4
aI3
aI1
aI0
aI0
aI0
aI0
aI13
aI9
aI0
asS'MJ McClenaghan'
p935
(lp936
I2
aI2
aI1
aI0
aI0
aI0
aI0
aI0
aI4
aI5
aI0
asS'NM Coulter-Nile'
p937
(lp938
I3
aI2
aI0
aI0
aI0
aI0
aI2
aI0
aI14
aI7
aI1
asS'Ravindra Jadeja'
p939
(lp940
I1
aI4
aI0
aI0
aI0
aI0
aI0
aI0
aI4
aI5
aI0
asS'Dwayne Bravo'
p941
(lp942
I2
aI2
aI2
aI0
aI0
aI0
aI0
aI0
aI6
aI6
aI0
asS'Amit Mishra'
p943
(lp944
I6
aI10
aI2
aI0
aI0
aI0
aI0
aI0
aI14
aI18
aI2
asS'Brad Hogg'
p945
(lp946
I2
aI2
aI0
aI0
aI0
aI0
aI1
aI0
aI8
aI5
aI0
asS'Sunil Narine'
p947
(lp948
I3
aI3
aI0
aI0
aI0
aI0
aI1
aI0
aI9
aI7
aI1
asS'PV Tambe'
p949
(lp950
I0
aI2
aI0
aI0
aI0
aI0
aI0
aI0
aI2
aI2
aI0
asS'S Aravind'
p951
(lp952
I5
aI2
aI0
aI0
aI4
aI0
aI2
aI0
aI30
aI13
aI1
asS'KV Sharma'
p953
(lp954
I3
aI7
aI0
aI0
aI0
aI0
aI0
aI0
aI7
aI10
aI0
asS'Bhuvneshwar Kumar'
p955
(lp956
I1
aI1
aI2
aI0
aI0
aI0
aI1
aI0
aI11
aI5
aI0
asS'Jean-Paul Duminy'
p957
(lp958
I0
aI2
aI0
aI0
aI0
aI0
aI0
aI0
aI2
aI2
aI0
asS'TG Southee'
p959
(lp960
I2
aI0
aI0
aI1
aI1
aI0
aI0
aI0
aI7
aI4
aI0
asS'Imran Tahir'
p961
(lp962
I0
aI2
aI2
aI0
aI0
aI0
aI0
aI0
aI6
aI4
aI0
asS'Pawan Negi'
p963
(lp964
I4
aI1
aI1
aI0
aI1
aI0
aI0
aI0
aI7
aI7
aI0
asS'DJ Muthuswami'
p965
(lp966
I6
aI2
aI0
aI0
aI0
aI0
aI2
aI0
aI14
aI10
aI0
asS'Zaheer Khan'
p967
(lp968
I2
aI1
aI0
aI0
aI0
aI0
aI0
aI0
aI1
aI3
aI0
asS'UT Yadav'
p969
(lp970
I9
aI1
aI4
aI0
aI2
aI0
aI2
aI0
aI29
aI18
aI0
asS'Angelo Mathews'
p971
(lp972
I4
aI6
aI0
aI0
aI0
aI0
aI2
aI0
aI18
aI12
aI0
asS'Chris Morris'
p973
(lp974
I2
aI2
aI0
aI0
aI6
aI0
aI0
aI0
aI26
aI10
aI2
asS'Moises Henriques'
p975
(lp976
I5
aI6
aI3
aI0
aI0
aI0
aI0
aI0
aI12
aI14
aI1
asS'R Vinay Kumar'
p977
(lp978
I1
aI1
aI0
aI0
aI0
aI0
aI0
aI0
aI1
aI2
aI0
asS'Praveen Kumar'
p979
(lp980
I0
aI3
aI1
aI0
aI1
aI0
aI0
aI0
aI9
aI5
aI0
asS'Yuvraj Singh'
p981
(lp982
I0
aI4
aI4
aI0
aI0
aI0
aI0
aI0
aI12
aI8
aI0
asS'Ravichandran Ashwin'
p983
(lp984
I4
aI4
aI0
aI0
aI0
aI0
aI0
aI0
aI4
aI8
aI0
asS'Morne Morkel'
p985
(lp986
I4
aI2
aI0
aI0
aI0
aI0
aI0
aI0
aI2
aI6
aI2
asS'Andre Russell'
p987
(lp988
I0
aI2
aI0
aI0
aI0
aI0
aI0
aI0
aI2
aI2
aI0
asS'IC Pandey'
p989
(lp990
I2
aI2
aI0
aI0
aI0
aI0
aI1
aI0
aI8
aI5
aI0
asS'I Sharma'
p991
(lp992
I1
aI2
aI0
aI0
aI0
aI0
aI0
aI0
aI2
aI3
aI0
assS'R Vinay Kumar'
p993
(dp994
S'Bhuvneshwar Kumar'
p995
(lp996
I1
aI0
aI0
aI0
aI0
aI0
aI0
aI0
aI0
aI1
aI1
asS'Dwayne Bravo'
p997
(lp998
I2
aI0
aI0
aI0
aI0
aI0
aI0
aI0
aI0
aI2
aI0
assS'Axar Patel'
p999
(dp1000
S'D Wiese'
p1001
(lp1002
I0
aI4
aI0
aI0
aI1
aI0
aI0
aI0
aI8
aI5
aI0
asS'James Faulkner'
p1003
(lp1004
I4
aI3
aI4
aI0
aI2
aI0
aI0
aI0
aI19
aI13
aI0
asS'TA Boult'
p1005
(lp1006
I1
aI1
aI0
aI0
aI1
aI0
aI0
aI0
aI5
aI3
aI1
asS'Mitchell Starc'
p1007
(lp1008
I0
aI3
aI1
aI0
aI0
aI0
aI0
aI0
aI5
aI4
aI0
asS'Lasith Malinga'
p1009
(lp1010
I1
aI0
aI0
aI0
aI0
aI0
aI0
aI0
aI0
aI1
aI0
asS'I Sharma'
p1011
(lp1012
I0
aI2
aI0
aI0
aI1
aI0
aI0
aI0
aI6
aI3
aI0
asS'Amit Mishra'
p1013
(lp1014
I2
aI6
aI0
aI0
aI0
aI0
aI2
aI0
aI18
aI10
aI0
asS'Ravindra Jadeja'
p1015
(lp1016
I4
aI7
aI0
aI0
aI1
aI0
aI1
aI0
aI17
aI13
aI0
asS'Dwayne Bravo'
p1017
(lp1018
I2
aI4
aI0
aI0
aI0
aI0
aI1
aI0
aI10
aI7
aI1
asS'NM Coulter-Nile'
p1019
(lp1020
I1
aI1
aI0
aI0
aI0
aI0
aI0
aI0
aI1
aI2
aI1
asS'Harshal Patel'
p1021
(lp1022
I3
aI3
aI0
aI0
aI1
aI0
aI1
aI0
aI13
aI8
aI0
asS'Sunil Narine'
p1023
(lp1024
I2
aI2
aI0
aI0
aI0
aI0
aI0
aI0
aI2
aI4
aI2
asS'PV Tambe'
p1025
(lp1026
I2
aI5
aI1
aI0
aI1
aI0
aI0
aI0
aI11
aI9
aI0
asS'Angelo Mathews'
p1027
(lp1028
I3
aI6
aI0
aI0
aI0
aI0
aI0
aI0
aI6
aI9
aI0
asS'S Aravind'
p1029
(lp1030
I1
aI0
aI0
aI0
aI2
aI0
aI0
aI0
aI8
aI3
aI0
asS'KV Sharma'
p1031
(lp1032
I0
aI1
aI0
aI0
aI0
aI0
aI0
aI0
aI1
aI1
aI0
asS'Bhuvneshwar Kumar'
p1033
(lp1034
I1
aI3
aI0
aI0
aI0
aI0
aI0
aI0
aI3
aI4
aI1
asS'Jean-Paul Duminy'
p1035
(lp1036
I2
aI1
aI0
aI0
aI0
aI0
aI0
aI0
aI1
aI3
aI0
asS'TG Southee'
p1037
(lp1038
I2
aI0
aI0
aI0
aI0
aI0
aI0
aI0
aI0
aI2
aI1
asS'Imran Tahir'
p1039
(lp1040
I7
aI9
aI2
aI0
aI0
aI0
aI1
aI0
aI19
aI19
aI2
asS'Pawan Negi'
p1041
(lp1042
I0
aI3
aI0
aI0
aI0
aI0
aI0
aI0
aI3
aI3
aI0
asS'Zaheer Khan'
p1043
(lp1044
I0
aI3
aI0
aI0
aI0
aI0
aI0
aI0
aI3
aI3
aI0
asS'Yuzvendra Chahal'
p1045
(lp1046
I7
aI4
aI1
aI0
aI2
aI0
aI2
aI0
aI26
aI16
aI0
asS'Dhawal Kulkarni'
p1047
(lp1048
I0
aI1
aI0
aI0
aI1
aI0
aI0
aI0
aI5
aI2
aI0
asS'UT Yadav'
p1049
(lp1050
I0
aI2
aI0
aI0
aI0
aI0
aI0
aI0
aI2
aI2
aI0
asS'Stuart Binny'
p1051
(lp1052
I2
aI2
aI0
aI0
aI0
aI0
aI0
aI0
aI2
aI4
aI0
asS'Chris Morris'
p1053
(lp1054
I1
aI7
aI0
aI0
aI0
aI0
aI0
aI0
aI7
aI8
aI0
asS'Moises Henriques'
p1055
(lp1056
I1
aI3
aI1
aI0
aI0
aI0
aI1
aI0
aI11
aI6
aI0
asS'Suresh Raina'
p1057
(lp1058
I0
aI2
aI0
aI0
aI1
aI0
aI0
aI0
aI6
aI3
aI0
asS'Praveen Kumar'
p1059
(lp1060
I2
aI4
aI1
aI0
aI0
aI0
aI0
aI0
aI6
aI7
aI0
asS'Ravichandran Ashwin'
p1061
(lp1062
I8
aI5
aI0
aI0
aI0
aI0
aI0
aI0
aI5
aI13
aI1
asS'DJ Hooda'
p1063
(lp1064
I0
aI4
aI0
aI0
aI0
aI0
aI0
aI0
aI4
aI4
aI0
assS'Corey Anderson'
p1065
(dp1066
S'DJ Hooda'
p1067
(lp1068
I4
aI2
aI0
aI0
aI0
aI0
aI0
aI0
aI2
aI6
aI0
asS'Axar Patel'
p1069
(lp1070
I2
aI0
aI0
aI0
aI0
aI0
aI0
aI0
aI0
aI2
aI1
asS'James Faulkner'
p1071
(lp1072
I12
aI0
aI2
aI0
aI0
aI0
aI2
aI0
aI16
aI16
aI0
asS'Ashish Nehra'
p1073
(lp1074
I12
aI0
aI0
aI0
aI2
aI0
aI0
aI0
aI8
aI14
aI2
asS'Mitchell Johnson'
p1075
(lp1076
I4
aI0
aI0
aI0
aI0
aI0
aI0
aI0
aI0
aI4
aI0
asS'Sandeep Sharma'
p1077
(lp1078
I3
aI1
aI0
aI0
aI1
aI0
aI0
aI0
aI5
aI5
aI0
asS'Dhawal Kulkarni'
p1079
(lp1080
I2
aI4
aI0
aI0
aI0
aI0
aI0
aI0
aI4
aI6
aI0
asS'UT Yadav'
p1081
(lp1082
I0
aI1
aI1
aI0
aI0
aI0
aI0
aI0
aI3
aI2
aI0
asS'Sunil Narine'
p1083
(lp1084
I2
aI4
aI0
aI0
aI0
aI0
aI0
aI0
aI4
aI6
aI0
asS'PV Tambe'
p1085
(lp1086
I2
aI6
aI0
aI0
aI2
aI0
aI0
aI0
aI14
aI10
aI0
asS'Piyush Chawla'
p1087
(lp1088
I1
aI2
aI0
aI0
aI2
aI0
aI0
aI0
aI10
aI5
aI0
asS'Stuart Binny'
p1089
(lp1090
I4
aI0
aI0
aI0
aI2
aI0
aI0
aI0
aI8
aI6
aI0
asS'Morne Morkel'
p1091
(lp1092
I7
aI1
aI0
aI0
aI1
aI0
aI0
aI0
aI5
aI9
aI0
asS'Chris Morris'
p1093
(lp1094
I14
aI2
aI2
aI0
aI4
aI0
aI2
aI0
aI34
aI24
aI2
asS'Andre Russell'
p1095
(lp1096
I5
aI4
aI0
aI0
aI0
aI0
aI1
aI0
aI10
aI10
aI0
asS'TG Southee'
p1097
(lp1098
I2
aI2
aI0
aI0
aI2
aI0
aI2
aI0
aI22
aI8
aI0
asS'Shakib Al Hasan'
p1099
(lp1100
I1
aI3
aI2
aI0
aI1
aI0
aI2
aI0
aI23
aI9
aI0
assS'J Suchith'
p1101
(dp1102
S'Dwayne Bravo'
p1103
(lp1104
I0
aI1
aI0
aI0
aI0
aI0
aI0
aI0
aI1
aI1
asS'Shikhar Dhawan'
p1105
(lp1106
I4
aI2
aI0
aI0
aI1
aI0
aI0
aI0
aI6
aI7
asS'Anureet Singh'
p1107
(lp1108
I1
aI1
aI0
aI0
aI0
aI0
aI0
aI0
aI1
aI2
asS'Axar Patel'
p1109
(lp1110
I2
aI3
aI0
aI0
aI2
aI0
aI1
aI0
aI17
aI8
asS'Mitchell Johnson'
p1111
(lp1112
I2
aI0
aI0
aI0
aI1
aI0
aI1
aI0
aI10
aI4
asS'Yuzvendra Chahal'
p1113
(lp1114
I1
aI0
aI1
aI0
aI0
aI0
aI0
aI0
aI2
aI2
asS'Mitchell Starc'
p1115
(lp1116
I0
aI2
aI0
aI0
aI0
aI0
aI0
aI0
aI2
aI2
asS'TA Boult'
p1117
(lp1118
I0
aI1
aI1
aI0
aI0
aI0
aI0
aI0
aI3
aI2
asS'Bhuvneshwar Kumar'
p1119
(lp1120
I0
aI0
aI3
aI0
aI0
aI0
aI0
aI0
aI6
aI3
asS'Chris Morris'
p1121
(lp1122
I2
aI0
aI0
aI0
aI0
aI0
aI0
aI0
aI0
aI2
assS'Kane Williamson'
p1123
(dp1124
S'MM Sharma'
p1125
(lp1126
I0
aI2
aI0
aI0
aI1
aI0
aI1
aI0
aI12
aI4
aI0
asS'Dwayne Bravo'
p1127
(lp1128
I1
aI5
aI0
aI0
aI0
aI0
aI0
aI0
aI5
aI6
aI0
asS'Ashish Nehra'
p1129
(lp1130
I1
aI2
aI1
aI0
aI0
aI0
aI0
aI0
aI4
aI4
aI0
asS'Harshal Patel'
p1131
(lp1132
I3
aI2
aI0
aI0
aI0
aI0
aI0
aI0
aI2
aI5
aI0
asS'Yuzvendra Chahal'
p1133
(lp1134
I1
aI3
aI0
aI0
aI0
aI0
aI0
aI0
aI3
aI4
aI1
asS'IC Pandey'
p1135
(lp1136
I0
aI1
aI0
aI0
aI0
aI0
aI0
aI0
aI1
aI1
aI0
asS'Ravindra Jadeja'
p1137
(lp1138
I0
aI2
aI1
aI0
aI0
aI0
aI0
aI0
aI4
aI3
aI0
assS'NLTC Perera'
p1139
(dp1140
S'UT Yadav'
p1141
(lp1142
I2
aI0
aI0
aI0
aI0
aI0
aI0
aI0
aI0
aI2
asS'Jean-Paul Duminy'
p1143
(lp1144
I1
aI2
aI0
aI0
aI0
aI0
aI0
aI0
aI2
aI3
asS'Andre Russell'
p1145
(lp1146
I6
aI2
aI0
aI0
aI0
aI0
aI2
aI0
aI14
aI10
asS'Piyush Chawla'
p1147
(lp1148
I0
aI4
aI0
aI0
aI0
aI0
aI0
aI0
aI4
aI4
asS'NM Coulter-Nile'
p1149
(lp1150
I3
aI1
aI0
aI0
aI0
aI0
aI0
aI0
aI1
aI4
assS'Mitchell Starc'
p1151
(dp1152
S'MM Sharma'
p1153
(lp1154
I2
aI5
aI0
aI0
aI2
aI0
aI0
aI0
aI13
aI9
aI1
asS'Dwayne Bravo'
p1155
(lp1156
I4
aI7
aI0
aI0
aI0
aI0
aI0
aI0
aI7
aI11
aI0
assS'MJ McClenaghan'
p1157
(dp1158
S'Imran Tahir'
p1159
(lp1160
I1
aI0
aI0
aI0
aI0
aI0
aI0
aI0
aI0
aI1
asS'Bhuvneshwar Kumar'
p1161
(lp1162
I0
aI1
aI0
aI0
aI0
aI0
aI0
aI0
aI1
aI1
asS'Yuzvendra Chahal'
p1163
(lp1164
I2
aI0
aI0
aI0
aI0
aI0
aI2
aI0
aI12
aI4
assS'Bhuvneshwar Kumar'
p1165
(dp1166
S'UT Yadav'
p1167
(lp1168
I0
aI1
aI0
aI0
aI1
aI0
aI1
aI0
aI11
aI3
aI0
asS'Andre Russell'
p1169
(lp1170
I1
aI0
aI0
aI0
aI0
aI0
aI0
aI0
aI0
aI1
asS'Kieron Pollard'
p1171
(lp1172
I1
aI0
aI0
aI0
aI0
aI0
aI0
aI0
aI0
aI1
asS'MJ McClenaghan'
p1173
(lp1174
I1
aI0
aI0
aI0
aI0
aI0
aI0
aI0
aI0
aI1
asS'R Vinay Kumar'
p1175
(lp1176
I2
aI0
aI1
aI0
aI1
aI0
aI0
aI0
aI6
aI4
assS'Faf du Plessis'
p1177
(dp1178
S'Albie Morkel'
p1179
(lp1180
I4
aI4
aI1
aI0
aI3
aI0
aI0
aI0
aI18
aI12
aI1
asS'Axar Patel'
p1181
(lp1182
I3
aI6
aI1
aI0
aI2
aI0
aI1
aI0
aI22
aI13
aI0
asS'D Wiese'
p1183
(lp1184
I1
aI9
aI0
aI0
aI2
aI0
aI2
aI0
aI29
aI14
aI0
asS'James Faulkner'
p1185
(lp1186
I0
aI2
aI0
aI0
aI0
aI0
aI0
aI0
aI2
aI2
aI0
asS'BE Hendricks'
p1187
(lp1188
I1
aI1
aI0
aI2
aI1
aI0
aI0
aI0
aI11
aI5
aI0
asS'DJ Muthuswami'
p1189
(lp1190
I0
aI1
aI0
aI0
aI1
aI0
aI0
aI0
aI5
aI2
asS'Mitchell Starc'
p1191
(lp1192
I0
aI4
aI0
aI2
aI4
aI0
aI0
aI0
aI26
aI10
asS'Harbhajan Singh'
p1193
(lp1194
I7
aI13
aI1
aI0
aI3
aI0
aI1
aI0
aI33
aI25
asS'HH Pandya'
p1195
(lp1196
I0
aI2
aI0
aI0
aI0
aI0
aI0
aI0
aI2
aI2
asS'Rajat Bhatia'
p1197
(lp1198
I1
aI4
aI0
aI0
aI0
aI0
aI0
aI0
aI4
aI5
asS'MJ McClenaghan'
p1199
(lp1200
I5
aI0
aI0
aI0
aI4
aI0
aI1
aI0
aI22
aI10
aI1
asS'Amit Mishra'
p1201
(lp1202
I2
aI4
aI2
aI0
aI0
aI0
aI0
aI0
aI8
aI8
asS'Gurkeerat Singh'
p1203
(lp1204
I2
aI5
aI0
aI0
aI0
aI0
aI0
aI0
aI5
aI7
asS'Brad Hogg'
p1205
(lp1206
I4
aI5
aI0
aI0
aI2
aI0
aI0
aI0
aI13
aI11
aI1
asS'Anureet Singh'
p1207
(lp1208
I1
aI2
aI0
aI0
aI0
aI0
aI0
aI0
aI2
aI3
asS'Kieron Pollard'
p1209
(lp1210
I1
aI3
aI0
aI0
aI0
aI0
aI0
aI0
aI3
aI4
asS'Harshal Patel'
p1211
(lp1212
I4
aI3
aI0
aI0
aI0
aI0
aI0
aI0
aI3
aI7
asS'Sandeep Sharma'
p1213
(lp1214
I1
aI1
aI0
aI0
aI0
aI0
aI0
aI0
aI1
aI2
asS'TA Boult'
p1215
(lp1216
I0
aI2
aI0
aI0
aI1
aI0
aI0
aI0
aI6
aI3
asS'A Ashish Reddy'
p1217
(lp1218
I0
aI1
aI0
aI0
aI0
aI0
aI0
aI0
aI1
aI1
asS'PV Tambe'
p1219
(lp1220
I1
aI2
aI1
aI0
aI1
aI0
aI0
aI0
aI8
aI5
asS'S Aravind'
p1221
(lp1222
I5
aI2
aI0
aI1
aI0
aI0
aI0
aI0
aI5
aI8
asS'KV Sharma'
p1223
(lp1224
I0
aI4
aI1
aI0
aI0
aI0
aI0
aI0
aI6
aI5
asS'Ankit Sharma'
p1225
(lp1226
I9
aI3
aI0
aI1
aI2
aI0
aI0
aI0
aI14
aI15
aI2
asS'Jean-Paul Duminy'
p1227
(lp1228
I3
aI0
aI2
aI0
aI1
aI0
aI0
aI0
aI8
aI6
aI1
asS'PJ Cummins'
p1229
(lp1230
I1
aI3
aI0
aI0
aI0
aI0
aI0
aI0
aI3
aI4
asS'Imran Tahir'
p1231
(lp1232
I1
aI2
aI1
aI0
aI0
aI0
aI0
aI0
aI4
aI4
asS'Iqbal Abdulla'
p1233
(lp1234
I5
aI12
aI0
aI0
aI4
aI0
aI1
aI0
aI34
aI22
asS'Glenn Maxwell'
p1235
(lp1236
I1
aI1
aI0
aI0
aI1
aI0
aI0
aI0
aI5
aI3
asS'Yuzvendra Chahal'
p1237
(lp1238
I5
aI8
aI1
aI0
aI0
aI0
aI0
aI0
aI10
aI14
aI1
asS'J Suchith'
p1239
(lp1240
I2
aI5
aI0
aI0
aI0
aI0
aI0
aI0
aI5
aI7
aI1
asS'J Yadav'
p1241
(lp1242
I0
aI3
aI0
aI0
aI0
aI0
aI0
aI0
aI3
aI3
asS'UT Yadav'
p1243
(lp1244
I3
aI1
aI0
aI0
aI1
aI0
aI0
aI0
aI5
aI5
asS'Lasith Malinga'
p1245
(lp1246
I8
aI6
aI0
aI0
aI0
aI0
aI0
aI0
aI6
aI14
aI2
asS'Chris Morris'
p1247
(lp1248
I1
aI3
aI0
aI0
aI0
aI0
aI0
aI0
aI3
aI4
asS'Moises Henriques'
p1249
(lp1250
I3
aI4
aI0
aI0
aI2
aI0
aI0
aI0
aI12
aI9
asS'Shikhar Dhawan'
p1251
(lp1252
I4
aI1
aI2
aI0
aI1
aI0
aI0
aI0
aI9
aI8
asS'GS Sandhu'
p1253
(lp1254
I0
aI2
aI2
aI0
aI0
aI0
aI0
aI0
aI6
aI4
asS'R Vinay Kumar'
p1255
(lp1256
I10
aI4
aI1
aI0
aI2
aI0
aI0
aI0
aI14
aI17
aI1
asS'Praveen Kumar'
p1257
(lp1258
I0
aI2
aI1
aI0
aI1
aI0
aI0
aI0
aI8
aI4
asS'Yuvraj Singh'
p1259
(lp1260
I2
aI5
aI0
aI0
aI1
aI0
aI0
aI0
aI9
aI8
asS'Virat Kohli'
p1261
(lp1262
I0
aI2
aI1
aI0
aI0
aI0
aI0
aI0
aI4
aI3
asS'Andre Russell'
p1263
(lp1264
I0
aI4
aI1
aI0
aI0
aI0
aI0
aI0
aI6
aI5
asS'Piyush Chawla'
p1265
(lp1266
I4
aI6
aI2
aI0
aI3
aI0
aI0
aI0
aI22
aI15
assS'J Theron'
p1267
(dp1268
S'R Vinay Kumar'
p1269
(lp1270
I0
aI1
aI0
aI0
aI0
aI0
aI0
aI0
aI1
aI1
assS'SE Marsh'
p1271
(dp1272
S'MM Sharma'
p1273
(lp1274
I1
aI1
aI1
aI0
aI1
aI0
aI0
aI0
aI7
aI4
asS'Shane Watson'
p1275
(lp1276
I0
aI4
aI0
aI0
aI0
aI0
aI0
aI0
aI4
aI4
asS'James Faulkner'
p1277
(lp1278
I2
aI4
aI2
aI0
aI2
aI0
aI0
aI0
aI16
aI10
asS'Zaheer Khan'
p1279
(lp1280
I1
aI1
aI0
aI0
aI1
aI0
aI0
aI0
aI5
aI3
asS'TA Boult'
p1281
(lp1282
I2
aI1
aI0
aI0
aI0
aI0
aI0
aI0
aI1
aI3
asS'Ashish Nehra'
p1283
(lp1284
I1
aI2
aI0
aI0
aI0
aI0
aI0
aI0
aI2
aI3
aI1
asS'PV Tambe'
p1285
(lp1286
I6
aI4
aI0
aI2
aI2
aI0
aI0
aI0
aI18
aI14
aI2
asS'DJ Hooda'
p1287
(lp1288
I0
aI6
aI0
aI0
aI0
aI0
aI2
aI0
aI18
aI8
asS'R Tewatia'
p1289
(lp1290
I6
aI8
aI6
aI0
aI4
aI0
aI4
aI0
aI60
aI28
asS'Stuart Binny'
p1291
(lp1292
I2
aI0
aI2
aI0
aI2
aI0
aI0
aI0
aI12
aI6
asS'Bhuvneshwar Kumar'
p1293
(lp1294
I1
aI0
aI0
aI0
aI0
aI0
aI0
aI0
aI0
aI1
aI1
asS'Chris Morris'
p1295
(lp1296
I8
aI2
aI0
aI0
aI0
aI0
aI0
aI0
aI2
aI10
asS'Jean-Paul Duminy'
p1297
(lp1298
I1
aI0
aI0
aI0
aI0
aI0
aI0
aI0
aI0
aI1
aI1
asS'IC Pandey'
p1299
(lp1300
I2
aI1
aI0
aI0
aI0
aI0
aI0
aI0
aI1
aI3
assS'Eoin Morgan'
p1301
(dp1302
S'MM Sharma'
p1303
(lp1304
I2
aI3
aI1
aI0
aI1
aI0
aI1
aI0
aI15
aI8
aI0
asS'RG More'
p1305
(lp1306
I1
aI1
aI0
aI0
aI0
aI0
aI0
aI0
aI1
aI2
aI0
asS'YK Pathan'
p1307
(lp1308
I0
aI1
aI0
aI0
aI0
aI0
aI0
aI0
aI1
aI1
aI0
asS'D Wiese'
p1309
(lp1310
I0
aI2
aI0
aI0
aI0
aI0
aI0
aI0
aI2
aI2
aI0
asS'James Faulkner'
p1311
(lp1312
I6
aI8
aI0
aI0
aI0
aI0
aI2
aI0
aI20
aI16
aI0
asS'Ashish Nehra'
p1313
(lp1314
I0
aI1
aI0
aI0
aI0
aI0
aI0
aI0
aI1
aI1
asS'BE Hendricks'
p1315
(lp1316
I2
aI0
aI0
aI0
aI0
aI0
aI0
aI0
aI0
aI2
aI1
asS'Mitchell Starc'
p1317
(lp1318
I2
aI1
aI1
aI0
aI0
aI0
aI1
aI0
aI9
aI5
aI1
asS'Lasith Malinga'
p1319
(lp1320
I2
aI0
aI0
aI0
aI0
aI0
aI0
aI0
aI0
aI2
asS'Piyush Chawla'
p1321
(lp1322
I2
aI2
aI0
aI0
aI0
aI0
aI0
aI0
aI2
aI4
asS'MJ McClenaghan'
p1323
(lp1324
I7
aI1
aI1
aI0
aI0
aI0
aI0
aI0
aI3
aI9
aI1
asS'NM Coulter-Nile'
p1325
(lp1326
I4
aI1
aI0
aI0
aI0
aI0
aI0
aI0
aI1
aI5
asS'Dwayne Bravo'
p1327
(lp1328
I1
aI5
aI0
aI0
aI0
aI0
aI0
aI0
aI5
aI6
asS'Brad Hogg'
p1329
(lp1330
I1
aI0
aI0
aI0
aI0
aI0
aI0
aI0
aI0
aI1
asS'Johan Botha'
p1331
(lp1332
I2
aI2
aI0
aI0
aI0
aI0
aI0
aI0
aI2
aI4
asS'PV Tambe'
p1333
(lp1334
I9
aI1
aI3
aI0
aI1
aI0
aI2
aI0
aI23
aI16
aI2
asS'Glenn Maxwell'
p1335
(lp1336
I1
aI1
aI0
aI0
aI1
aI0
aI2
aI0
aI17
aI5
asS'Jean-Paul Duminy'
p1337
(lp1338
I4
aI4
aI0
aI0
aI1
aI0
aI0
aI0
aI8
aI9
aI2
asS'TG Southee'
p1339
(lp1340
I0
aI2
aI0
aI0
aI2
aI0
aI0
aI0
aI10
aI4
asS'Pawan Negi'
p1341
(lp1342
I1
aI1
aI0
aI0
aI0
aI0
aI1
aI0
aI7
aI3
asS'Zaheer Khan'
p1343
(lp1344
I1
aI2
aI0
aI0
aI1
aI0
aI0
aI0
aI6
aI4
asS'J Yadav'
p1345
(lp1346
I2
aI4
aI1
aI0
aI0
aI0
aI0
aI0
aI6
aI7
aI1
asS'Dhawal Kulkarni'
p1347
(lp1348
I10
aI2
aI0
aI0
aI0
aI0
aI0
aI0
aI2
aI12
asS'Stuart Binny'
p1349
(lp1350
I6
aI6
aI2
aI0
aI2
aI0
aI0
aI0
aI18
aI16
asS'Chris Morris'
p1351
(lp1352
I0
aI1
aI1
aI0
aI2
aI0
aI1
aI0
aI17
aI5
asS'RN ten Doeschate'
p1353
(lp1354
I1
aI0
aI0
aI0
aI0
aI0
aI0
aI0
aI0
aI1
asS'Shane Watson'
p1355
(lp1356
I2
aI1
aI2
aI0
aI1
aI0
aI2
aI0
aI21
aI8
aI1
asS'Suresh Raina'
p1357
(lp1358
I4
aI3
aI0
aI0
aI0
aI0
aI0
aI0
aI3
aI7
asS'R Vinay Kumar'
p1359
(lp1360
I0
aI2
aI0
aI0
aI1
aI0
aI0
aI0
aI6
aI3
asS'DJ Hooda'
p1361
(lp1362
I6
aI4
aI1
aI0
aI0
aI0
aI0
aI0
aI6
aI11
asS'Amit Mishra'
p1363
(lp1364
I1
aI3
aI0
aI0
aI0
aI0
aI0
aI0
aI3
aI4
assS'S Nadeem'
p1365
(dp1366
S'Iqbal Abdulla'
p1367
(lp1368
I2
aI2
aI0
aI0
aI0
aI0
aI0
aI0
aI2
aI4
asS'Mitchell Starc'
p1369
(lp1370
I3
aI0
aI0
aI0
aI0
aI0
aI0
aI0
aI0
aI3
assS'Parvez Rasool'
p1371
(dp1372
S'MM Sharma'
p1373
(lp1374
I0
aI2
aI0
aI0
aI0
aI0
aI0
aI0
aI2
aI2
assS'James Faulkner'
p1375
(dp1376
S'MM Sharma'
p1377
(lp1378
I1
aI1
aI0
aI0
aI0
aI0
aI0
aI0
aI1
aI2
aI1
asS'Axar Patel'
p1379
(lp1380
I5
aI5
aI1
aI0
aI0
aI0
aI1
aI0
aI13
aI12
asS'Ashish Nehra'
p1381
(lp1382
I1
aI2
aI0
aI0
aI1
aI0
aI0
aI0
aI6
aI4
asS'TA Boult'
p1383
(lp1384
I0
aI2
aI0
aI0
aI0
aI0
aI0
aI0
aI2
aI2
asS'Mitchell Starc'
p1385
(lp1386
I0
aI2
aI0
aI0
aI0
aI0
aI0
aI0
aI2
aI2
asS'I Sharma'
p1387
(lp1388
I0
aI2
aI0
aI0
aI0
aI0
aI2
aI0
aI14
aI4
asS'Karanveer Singh'
p1389
(lp1390
I0
aI2
aI2
aI0
aI0
aI0
aI0
aI0
aI6
aI4
asS'Amit Mishra'
p1391
(lp1392
I1
aI2
aI1
aI0
aI0
aI0
aI0
aI0
aI4
aI4
asS'Ravindra Jadeja'
p1393
(lp1394
I1
aI1
aI0
aI0
aI0
aI0
aI0
aI0
aI1
aI2
asS'Dwayne Bravo'
p1395
(lp1396
I0
aI4
aI0
aI0
aI1
aI0
aI0
aI0
aI8
aI5
asS'NM Coulter-Nile'
p1397
(lp1398
I1
aI1
aI0
aI0
aI2
aI0
aI0
aI0
aI9
aI4
asS'Anureet Singh'
p1399
(lp1400
I1
aI3
aI0
aI0
aI0
aI0
aI0
aI0
aI3
aI4
aI2
asS'Harshal Patel'
p1401
(lp1402
I1
aI2
aI0
aI0
aI0
aI0
aI0
aI0
aI2
aI3
aI1
asS'Sandeep Sharma'
p1403
(lp1404
I2
aI0
aI0
aI0
aI0
aI0
aI0
aI0
aI0
aI2
aI2
asS'S Aravind'
p1405
(lp1406
I3
aI0
aI0
aI0
aI1
aI0
aI0
aI0
aI4
aI4
aI1
asS'KV Sharma'
p1407
(lp1408
I1
aI1
aI0
aI0
aI0
aI0
aI0
aI0
aI1
aI2
asS'Bhuvneshwar Kumar'
p1409
(lp1410
I1
aI0
aI0
aI0
aI0
aI0
aI0
aI0
aI0
aI1
aI1
asS'Imran Tahir'
p1411
(lp1412
I1
aI2
aI1
aI0
aI0
aI0
aI0
aI0
aI4
aI4
aI1
asS'Mitchell Johnson'
p1413
(lp1414
I8
aI4
aI1
aI0
aI2
aI0
aI2
aI0
aI26
aI17
asS'Shakib Al Hasan'
p1415
(lp1416
I1
aI2
aI0
aI0
aI0
aI0
aI0
aI0
aI2
aI3
asS'RS Bopara'
p1417
(lp1418
I1
aI2
aI1
aI0
aI0
aI0
aI0
aI0
aI4
aI4
asS'Lasith Malinga'
p1419
(lp1420
I2
aI2
aI0
aI0
aI0
aI0
aI0
aI0
aI2
aI4
asS'P Suyal'
p1421
(lp1422
I0
aI4
aI2
aI0
aI0
aI0
aI0
aI0
aI8
aI6
asS'Moises Henriques'
p1423
(lp1424
I3
aI0
aI0
aI0
aI2
aI0
aI0
aI0
aI8
aI5
asS'S Gopal'
p1425
(lp1426
I0
aI2
aI0
aI0
aI0
aI0
aI0
aI0
aI2
aI2
asS'GS Sandhu'
p1427
(lp1428
I0
aI0
aI2
aI0
aI1
aI0
aI0
aI0
aI8
aI3
asS'Praveen Kumar'
p1429
(lp1430
I5
aI3
aI1
aI0
aI2
aI0
aI0
aI0
aI13
aI11
asS'Andre Russell'
p1431
(lp1432
I2
aI0
aI0
aI0
aI1
aI0
aI0
aI0
aI4
aI3
aI1
assS'TG Southee'
p1433
(dp1434
S'Imran Tahir'
p1435
(lp1436
I1
aI0
aI0
aI0
aI0
aI0
aI0
aI0
aI0
aI1
asS'Lasith Malinga'
p1437
(lp1438
I0
aI2
aI1
aI0
aI0
aI0
aI0
aI0
aI4
aI3
asS'Angelo Mathews'
p1439
(lp1440
I0
aI1
aI1
aI0
aI1
aI0
aI0
aI0
aI7
aI3
asS'R Vinay Kumar'
p1441
(lp1442
I0
aI2
aI0
aI0
aI0
aI0
aI0
aI0
aI2
aI2
assS'SN Thakur'
p1443
(dp1444
S'Imran Tahir'
p1445
(lp1446
I1
aI2
aI0
aI0
aI0
aI0
aI0
aI0
aI2
aI3
asS'NM Coulter-Nile'
p1447
(lp1448
I1
aI1
aI0
aI0
aI1
aI0
aI0
aI0
aI5
aI3
assS'Chris Morris'
p1449
(dp1450
S'Imran Tahir'
p1451
(lp1452
I1
aI1
aI0
aI0
aI0
aI0
aI1
aI0
aI7
aI3
asS'MM Sharma'
p1453
(lp1454
I1
aI3
aI0
aI0
aI0
aI0
aI0
aI0
aI3
aI4
asS'Dwayne Bravo'
p1455
(lp1456
I0
aI3
aI2
aI0
aI0
aI0
aI1
aI0
aI13
aI6
asS'Anureet Singh'
p1457
(lp1458
I2
aI2
aI1
aI0
aI0
aI0
aI0
aI0
aI4
aI5
asS'Axar Patel'
p1459
(lp1460
I1
aI1
aI0
aI0
aI0
aI0
aI0
aI0
aI1
aI2
asS'Harshal Patel'
p1461
(lp1462
I0
aI2
aI0
aI0
aI0
aI0
aI0
aI0
aI2
aI2
asS'Mitchell Johnson'
p1463
(lp1464
I0
aI1
aI0
aI0
aI0
aI0
aI0
aI0
aI1
aI1
asS'Mitchell Starc'
p1465
(lp1466
I2
aI1
aI0
aI0
aI0
aI0
aI0
aI0
aI1
aI3
aI1
asS'UT Yadav'
p1467
(lp1468
I1
aI2
aI0
aI0
aI0
aI0
aI0
aI0
aI2
aI3
asS'Praveen Kumar'
p1469
(lp1470
I0
aI1
aI1
aI0
aI0
aI0
aI3
aI0
aI21
aI5
asS'S Aravind'
p1471
(lp1472
I1
aI0
aI0
aI0
aI0
aI0
aI0
aI0
aI0
aI1
asS'Morne Morkel'
p1473
(lp1474
I0
aI2
aI0
aI0
aI0
aI0
aI0
aI0
aI2
aI2
asS'Angelo Mathews'
p1475
(lp1476
I0
aI2
aI0
aI0
aI1
aI0
aI0
aI0
aI6
aI3
asS'Bhuvneshwar Kumar'
p1477
(lp1478
I0
aI3
aI1
aI0
aI2
aI0
aI0
aI0
aI13
aI6
assS'HH Pandya'
p1479
(dp1480
S'Imran Tahir'
p1481
(lp1482
I1
aI0
aI0
aI0
aI0
aI0
aI0
aI0
aI0
aI1
asS'Pawan Negi'
p1483
(lp1484
I2
aI0
aI0
aI0
aI0
aI0
aI3
aI0
aI18
aI5
asS'Dwayne Bravo'
p1485
(lp1486
I2
aI4
aI0
aI0
aI0
aI0
aI0
aI0
aI4
aI6
asS'Andre Russell'
p1487
(lp1488
I3
aI4
aI1
aI0
aI3
aI0
aI1
aI0
aI24
aI12
asS'D Wiese'
p1489
(lp1490
I0
aI2
aI0
aI0
aI0
aI0
aI0
aI0
aI2
aI2
asS'Sunil Narine'
p1491
(lp1492
I3
aI4
aI0
aI0
aI0
aI0
aI1
aI0
aI10
aI8
asS'Zaheer Khan'
p1493
(lp1494
I1
aI1
aI0
aI0
aI1
aI0
aI0
aI0
aI5
aI3
asS'Yuzvendra Chahal'
p1495
(lp1496
I1
aI1
aI0
aI0
aI0
aI0
aI1
aI0
aI7
aI3
asS'AN Ahmed'
p1497
(lp1498
I2
aI2
aI2
aI0
aI0
aI0
aI4
aI0
aI30
aI10
asS'UT Yadav'
p1499
(lp1500
I0
aI3
aI1
aI0
aI5
aI0
aI0
aI0
aI25
aI9
asS'Ashish Nehra'
p1501
(lp1502
I1
aI0
aI0
aI0
aI0
aI0
aI0
aI0
aI0
aI1
asS'S Aravind'
p1503
(lp1504
I0
aI1
aI0
aI0
aI0
aI0
aI0
aI0
aI1
aI1
asS'NM Coulter-Nile'
p1505
(lp1506
I5
aI0
aI0
aI0
aI0
aI0
aI0
aI0
aI0
aI5
asS'Shakib Al Hasan'
p1507
(lp1508
I0
aI2
aI0
aI0
aI0
aI0
aI0
aI0
aI2
aI2
assS'S Gopal'
p1509
(dp1510
S'Chris Morris'
p1511
(lp1512
I0
aI2
aI0
aI0
aI0
aI0
aI0
aI0
aI2
aI2
assS'DR Smith'
p1513
(dp1514
S'NM Coulter-Nile'
p1515
(lp1516
I3
aI1
aI0
aI0
aI0
aI0
aI0
aI0
aI1
aI4
asS'Albie Morkel'
p1517
(lp1518
I4
aI2
aI0
aI0
aI3
aI0
aI0
aI0
aI14
aI9
asS'D Wiese'
p1519
(lp1520
I6
aI2
aI0
aI0
aI2
aI0
aI4
aI0
aI34
aI14
asS'James Faulkner'
p1521
(lp1522
I10
aI0
aI2
aI0
aI0
aI0
aI2
aI0
aI16
aI14
asS'DJ Muthuswami'
p1523
(lp1524
I5
aI2
aI1
aI0
aI2
aI0
aI0
aI0
aI12
aI10
asS'Mitchell Starc'
p1525
(lp1526
I20
aI7
aI0
aI0
aI2
aI0
aI0
aI0
aI15
aI29
asS'Harbhajan Singh'
p1527
(lp1528
I10
aI8
aI1
aI0
aI6
aI0
aI2
aI0
aI46
aI27
asS'Lasith Malinga'
p1529
(lp1530
I14
aI3
aI2
aI0
aI5
aI0
aI0
aI0
aI27
aI24
asS'I Sharma'
p1531
(lp1532
I5
aI1
aI0
aI0
aI2
aI0
aI0
aI0
aI9
aI8
asS'MJ McClenaghan'
p1533
(lp1534
I9
aI3
aI1
aI0
aI2
aI0
aI1
aI0
aI19
aI16
asS'Karanveer Singh'
p1535
(lp1536
I6
aI0
aI1
aI0
aI3
aI0
aI2
aI0
aI26
aI12
asS'Brad Hogg'
p1537
(lp1538
I0
aI3
aI0
aI0
aI0
aI0
aI0
aI0
aI3
aI3
asS'Amit Mishra'
p1539
(lp1540
I1
aI2
aI0
aI0
aI0
aI0
aI0
aI0
aI2
aI3
asS'Anureet Singh'
p1541
(lp1542
I1
aI0
aI0
aI0
aI0
aI0
aI0
aI0
aI0
aI1
asS'Harshal Patel'
p1543
(lp1544
I8
aI4
aI0
aI0
aI2
aI0
aI0
aI0
aI12
aI14
asS'PV Tambe'
p1545
(lp1546
I0
aI4
aI2
aI0
aI0
aI0
aI0
aI0
aI8
aI6
asS'S Aravind'
p1547
(lp1548
I2
aI2
aI0
aI0
aI1
aI0
aI0
aI0
aI6
aI5
asS'KV Sharma'
p1549
(lp1550
I1
aI3
aI0
aI0
aI0
aI0
aI1
aI0
aI9
aI5
asS'Ankit Sharma'
p1551
(lp1552
I3
aI4
aI4
aI0
aI2
aI0
aI2
aI0
aI32
aI15
asS'Bhuvneshwar Kumar'
p1553
(lp1554
I10
aI1
aI0
aI0
aI1
aI0
aI1
aI0
aI11
aI13
asS'PJ Cummins'
p1555
(lp1556
I6
aI1
aI0
aI0
aI1
aI0
aI0
aI0
aI5
aI8
asS'M de Lange'
p1557
(lp1558
I12
aI0
aI0
aI0
aI0
aI0
aI0
aI0
aI0
aI12
asS'Imran Tahir'
p1559
(lp1560
I4
aI1
aI0
aI0
aI1
aI0
aI0
aI0
aI5
aI6
asS'TA Boult'
p1561
(lp1562
I9
aI2
aI0
aI0
aI3
aI0
aI0
aI0
aI14
aI14
asS'Zaheer Khan'
p1563
(lp1564
I7
aI0
aI0
aI0
aI1
aI0
aI0
aI0
aI4
aI8
asS'Yuzvendra Chahal'
p1565
(lp1566
I4
aI4
aI2
aI0
aI2
aI0
aI2
aI0
aI28
aI14
asS'J Suchith'
p1567
(lp1568
I10
aI3
aI0
aI0
aI7
aI0
aI6
aI0
aI67
aI26
asS'UT Yadav'
p1569
(lp1570
I3
aI2
aI0
aI0
aI2
aI0
aI1
aI0
aI16
aI8
asS'HH Pandya'
p1571
(lp1572
I6
aI4
aI0
aI0
aI4
aI0
aI0
aI0
aI20
aI14
asS'P Suyal'
p1573
(lp1574
I8
aI6
aI0
aI0
aI4
aI0
aI0
aI0
aI22
aI18
asS'Chris Morris'
p1575
(lp1576
I18
aI1
aI2
aI0
aI0
aI0
aI0
aI0
aI5
aI21
asS'Moises Henriques'
p1577
(lp1578
I1
aI0
aI0
aI0
aI0
aI0
aI0
aI0
aI0
aI1
asS'S Nadeem'
p1579
(lp1580
I9
aI2
aI0
aI0
aI0
aI0
aI1
aI0
aI8
aI12
asS'Shane Watson'
p1581
(lp1582
I2
aI1
aI0
aI0
aI1
aI0
aI0
aI0
aI5
aI4
asS'GS Sandhu'
p1583
(lp1584
I0
aI2
aI0
aI0
aI1
aI0
aI0
aI0
aI6
aI3
asS'R Vinay Kumar'
p1585
(lp1586
I5
aI3
aI0
aI0
aI1
aI0
aI0
aI0
aI7
aI9
asS'Praveen Kumar'
p1587
(lp1588
I2
aI1
aI0
aI0
aI1
aI0
aI0
aI0
aI5
aI4
asS'DJ Hooda'
p1589
(lp1590
I0
aI4
aI0
aI0
aI4
aI0
aI0
aI0
aI20
aI8
asS'Andre Russell'
p1591
(lp1592
I0
aI1
aI0
aI0
aI0
aI0
aI0
aI0
aI1
aI1
assS'Harbhajan Singh'
p1593
(dp1594
S'Imran Tahir'
p1595
(lp1596
I2
aI1
aI0
aI0
aI0
aI0
aI0
aI0
aI1
aI3
asS'MM Sharma'
p1597
(lp1598
I8
aI4
aI6
aI0
aI2
aI0
aI0
aI0
aI24
aI20
aI2
asS'Dwayne Bravo'
p1599
(lp1600
I2
aI2
aI0
aI0
aI1
aI0
aI1
aI0
aI12
aI6
asS'Shikhar Dhawan'
p1601
(lp1602
I1
aI2
aI1
aI0
aI4
aI0
aI1
aI0
aI26
aI9
asS'Anureet Singh'
p1603
(lp1604
I4
aI1
aI0
aI0
aI1
aI0
aI4
aI0
aI29
aI10
aI1
asS'Axar Patel'
p1605
(lp1606
I0
aI2
aI0
aI0
aI0
aI0
aI0
aI0
aI2
aI2
asS'Harshal Patel'
p1607
(lp1608
I0
aI1
aI0
aI0
aI0
aI0
aI0
aI0
aI1
aI1
asS'Mitchell Johnson'
p1609
(lp1610
I1
aI1
aI0
aI0
aI0
aI0
aI1
aI0
aI7
aI3
asS'Mitchell Starc'
p1611
(lp1612
I1
aI0
aI1
aI0
aI0
aI0
aI0
aI0
aI2
aI2
aI1
asS'AN Ahmed'
p1613
(lp1614
I2
aI0
aI0
aI0
aI0
aI0
aI0
aI0
aI0
aI2
asS'Praveen Kumar'
p1615
(lp1616
I2
aI0
aI0
aI0
aI0
aI0
aI0
aI0
aI0
aI2
aI1
asS'Angelo Mathews'
p1617
(lp1618
I3
aI1
aI0
aI0
aI0
aI0
aI0
aI0
aI1
aI4
asS'Bhuvneshwar Kumar'
p1619
(lp1620
I2
aI0
aI0
aI0
aI0
aI0
aI0
aI0
aI0
aI2
asS'NM Coulter-Nile'
p1621
(lp1622
I3
aI2
aI0
aI0
aI1
aI0
aI1
aI0
aI12
aI7
aI1
asS'IC Pandey'
p1623
(lp1624
I4
aI0
aI0
aI0
aI0
aI0
aI0
aI0
aI0
aI4
asS'Ravindra Jadeja'
p1625
(lp1626
I10
aI4
aI0
aI0
aI2
aI0
aI2
aI0
aI24
aI18
assS'Morne Morkel'
p1627
(dp1628
S'Chris Morris'
p1629
(lp1630
I0
aI2
aI1
aI0
aI0
aI0
aI0
aI0
aI4
aI3
assS'Rajat Bhatia'
p1631
(dp1632
S'MM Sharma'
p1633
(lp1634
I1
aI0
aI0
aI0
aI0
aI0
aI0
aI0
aI0
aI1
aI1
assS'Unmukt Chand'
p1635
(dp1636
S'Iqbal Abdulla'
p1637
(lp1638
I6
aI6
aI2
aI0
aI4
aI0
aI2
aI0
aI38
aI20
asS'Amit Mishra'
p1639
(lp1640
I1
aI2
aI0
aI0
aI2
aI0
aI0
aI0
aI10
aI5
aI1
asS'Shane Watson'
p1641
(lp1642
I2
aI2
aI1
aI0
aI0
aI0
aI0
aI0
aI4
aI5
asS'D Wiese'
p1643
(lp1644
I2
aI8
aI0
aI0
aI8
aI0
aI0
aI0
aI40
aI18
asS'James Faulkner'
p1645
(lp1646
I2
aI0
aI0
aI0
aI0
aI0
aI0
aI0
aI0
aI2
asS'DJ Muthuswami'
p1647
(lp1648
I2
aI0
aI1
aI0
aI0
aI0
aI0
aI0
aI2
aI3
asS'Yuzvendra Chahal'
p1649
(lp1650
I18
aI8
aI0
aI0
aI4
aI0
aI2
aI0
aI36
aI32
aI2
asS'PV Tambe'
p1651
(lp1652
I2
aI2
aI4
aI0
aI0
aI0
aI0
aI0
aI10
aI8
aI2
asS'AN Ahmed'
p1653
(lp1654
I0
aI2
aI0
aI0
aI0
aI0
aI0
aI0
aI2
aI2
asS'Dhawal Kulkarni'
p1655
(lp1656
I5
aI2
aI0
aI0
aI0
aI0
aI0
aI0
aI2
aI7
asS'Dale Steyn'
p1657
(lp1658
I1
aI0
aI0
aI0
aI1
aI0
aI0
aI0
aI4
aI2
asS'Praveen Kumar'
p1659
(lp1660
I1
aI1
aI0
aI0
aI0
aI0
aI0
aI0
aI1
aI2
aI1
asS'DJ Hooda'
p1661
(lp1662
I2
aI4
aI0
aI0
aI0
aI0
aI0
aI0
aI4
aI6
asS'Ankit Sharma'
p1663
(lp1664
I0
aI2
aI0
aI0
aI1
aI0
aI0
aI0
aI6
aI3
asS'Stuart Binny'
p1665
(lp1666
I0
aI3
aI0
aI0
aI0
aI0
aI0
aI0
aI3
aI3
asS'Varun Aaron'
p1667
(lp1668
I2
aI0
aI0
aI0
aI0
aI0
aI0
aI0
aI0
aI2
asS'TG Southee'
p1669
(lp1670
I12
aI0
aI0
aI0
aI2
aI0
aI0
aI0
aI8
aI14
aI1
asS'S Nadeem'
p1671
(lp1672
I1
aI2
aI0
aI0
aI0
aI0
aI0
aI0
aI2
aI3
assS'Mandeep Singh'
p1673
(dp1674
S'MM Sharma'
p1675
(lp1676
I1
aI1
aI0
aI0
aI0
aI0
aI0
aI0
aI1
aI2
asS'Axar Patel'
p1677
(lp1678
I2
aI2
aI0
aI0
aI1
aI0
aI0
aI0
aI6
aI5
asS'James Faulkner'
p1679
(lp1680
I3
aI4
aI0
aI0
aI5
aI0
aI1
aI0
aI30
aI13
asS'BE Hendricks'
p1681
(lp1682
I1
aI2
aI0
aI0
aI0
aI0
aI0
aI0
aI2
aI3
asS'Piyush Chawla'
p1683
(lp1684
I1
aI2
aI1
aI0
aI2
aI0
aI0
aI0
aI12
aI6
asS'Brad Hogg'
p1685
(lp1686
I1
aI2
aI0
aI0
aI0
aI0
aI1
aI0
aI8
aI4
asS'YK Pathan'
p1687
(lp1688
I2
aI0
aI0
aI0
aI0
aI0
aI1
aI0
aI6
aI3
asS'Sandeep Sharma'
p1689
(lp1690
I0
aI1
aI0
aI0
aI1
aI0
aI0
aI0
aI5
aI2
asS'PV Tambe'
p1691
(lp1692
I0
aI0
aI1
aI0
aI1
aI0
aI0
aI0
aI6
aI2
asS'KV Sharma'
p1693
(lp1694
I0
aI1
aI0
aI0
aI0
aI0
aI0
aI0
aI1
aI1
asS'Ankit Sharma'
p1695
(lp1696
I0
aI2
aI0
aI0
aI1
aI0
aI0
aI0
aI6
aI3
asS'RS Bopara'
p1697
(lp1698
I1
aI0
aI0
aI0
aI0
aI0
aI0
aI0
aI0
aI1
asS'TG Southee'
p1699
(lp1700
I1
aI1
aI0
aI0
aI1
aI0
aI0
aI0
aI5
aI3
asS'Dhawal Kulkarni'
p1701
(lp1702
I5
aI3
aI0
aI0
aI2
aI0
aI1
aI0
aI17
aI11
asS'UT Yadav'
p1703
(lp1704
I0
aI1
aI0
aI0
aI2
aI0
aI0
aI0
aI9
aI3
asS'Stuart Binny'
p1705
(lp1706
I7
aI1
aI1
aI0
aI1
aI0
aI0
aI0
aI7
aI10
asS'Chris Morris'
p1707
(lp1708
I2
aI2
aI1
aI0
aI0
aI0
aI0
aI0
aI4
aI5
asS'Moises Henriques'
p1709
(lp1710
I1
aI0
aI0
aI0
aI0
aI0
aI0
aI0
aI0
aI1
asS'Shane Watson'
p1711
(lp1712
I1
aI6
aI0
aI0
aI0
aI0
aI0
aI0
aI6
aI7
asS'Shikhar Dhawan'
p1713
(lp1714
I0
aI1
aI3
aI0
aI0
aI0
aI0
aI0
aI7
aI4
asS'Praveen Kumar'
p1715
(lp1716
I1
aI0
aI0
aI0
aI0
aI0
aI0
aI0
aI0
aI1
asS'Ravichandran Ashwin'
p1717
(lp1718
I3
aI1
aI1
aI0
aI0
aI0
aI0
aI0
aI3
aI5
asS'Andre Russell'
p1719
(lp1720
I0
aI2
aI1
aI0
aI0
aI0
aI2
aI0
aI16
aI5
assS'Albie Morkel'
p1721
(dp1722
S'MM Sharma'
p1723
(lp1724
I2
aI4
aI0
aI0
aI2
aI0
aI0
aI0
aI12
aI8
asS'Dwayne Bravo'
p1725
(lp1726
I3
aI7
aI2
aI0
aI3
aI0
aI1
aI0
aI29
aI16
asS'Pawan Negi'
p1727
(lp1728
I1
aI1
aI0
aI0
aI0
aI0
aI1
aI0
aI7
aI3
aI1
asS'Ashish Nehra'
p1729
(lp1730
I1
aI4
aI0
aI0
aI0
aI0
aI0
aI0
aI4
aI5
asS'UT Yadav'
p1731
(lp1732
I0
aI1
aI0
aI0
aI1
aI0
aI0
aI0
aI5
aI2
asS'Ravichandran Ashwin'
p1733
(lp1734
I9
aI7
aI1
aI0
aI1
aI0
aI0
aI0
aI13
aI18
asS'IC Pandey'
p1735
(lp1736
I5
aI4
aI2
aI0
aI2
aI0
aI0
aI0
aI16
aI13
assS'Lokesh Rahul'
p1737
(dp1738
S'MM Sharma'
p1739
(lp1740
I2
aI1
aI0
aI0
aI0
aI0
aI0
aI0
aI1
aI3
aI1
asS'Ashish Nehra'
p1741
(lp1742
I4
aI0
aI0
aI0
aI1
aI0
aI0
aI0
aI4
aI5
asS'BE Hendricks'
p1743
(lp1744
I2
aI1
aI0
aI0
aI0
aI0
aI0
aI0
aI1
aI3
asS'Harbhajan Singh'
p1745
(lp1746
I3
aI3
aI0
aI1
aI0
aI0
aI0
aI0
aI6
aI7
aI1
asS'HH Pandya'
p1747
(lp1748
I2
aI1
aI2
aI0
aI1
aI0
aI0
aI0
aI9
aI6
asS'MJ McClenaghan'
p1749
(lp1750
I1
aI2
aI0
aI0
aI0
aI0
aI0
aI0
aI2
aI3
aI1
asS'Amit Mishra'
p1751
(lp1752
I2
aI8
aI0
aI0
aI0
aI0
aI2
aI0
aI20
aI12
asS'Anureet Singh'
p1753
(lp1754
I1
aI1
aI1
aI0
aI0
aI0
aI1
aI0
aI9
aI4
asS'Sandeep Sharma'
p1755
(lp1756
I0
aI1
aI1
aI0
aI1
aI0
aI0
aI0
aI7
aI3
asS'AN Ahmed'
p1757
(lp1758
I1
aI3
aI2
aI0
aI1
aI0
aI0
aI0
aI11
aI7
asS'Jean-Paul Duminy'
p1759
(lp1760
I2
aI2
aI0
aI0
aI0
aI0
aI0
aI0
aI2
aI4
asS'TG Southee'
p1761
(lp1762
I6
aI0
aI2
aI0
aI0
aI0
aI0
aI0
aI4
aI8
asS'Imran Tahir'
p1763
(lp1764
I6
aI6
aI0
aI0
aI0
aI0
aI0
aI0
aI6
aI12
asS'Yuzvendra Chahal'
p1765
(lp1766
I2
aI6
aI0
aI0
aI1
aI0
aI0
aI0
aI10
aI9
asS'J Suchith'
p1767
(lp1768
I10
aI11
aI1
aI0
aI1
aI0
aI1
aI0
aI23
aI24
asS'Dhawal Kulkarni'
p1769
(lp1770
I2
aI0
aI0
aI0
aI0
aI0
aI0
aI0
aI0
aI2
aI1
asS'UT Yadav'
p1771
(lp1772
I6
aI0
aI0
aI0
aI0
aI0
aI0
aI0
aI0
aI6
asS'Angelo Mathews'
p1773
(lp1774
I4
aI0
aI2
aI0
aI0
aI0
aI0
aI0
aI4
aI6
aI1
asS'Darren Sammy'
p1775
(lp1776
I0
aI2
aI1
aI0
aI1
aI0
aI0
aI0
aI8
aI4
asS'R Vinay Kumar'
p1777
(lp1778
I3
aI6
aI2
aI0
aI0
aI0
aI0
aI0
aI10
aI11
asS'Varun Aaron'
p1779
(lp1780
I0
aI3
aI0
aI0
aI1
aI0
aI1
aI0
aI13
aI5
asS'Yuvraj Singh'
p1781
(lp1782
I2
aI4
aI0
aI0
aI0
aI0
aI2
aI0
aI16
aI8
asS'SA Abbott'
p1783
(lp1784
I1
aI2
aI0
aI0
aI0
aI0
aI0
aI0
aI2
aI3
assS'Moises Henriques'
p1785
(dp1786
S'NM Coulter-Nile'
p1787
(lp1788
I1
aI3
aI0
aI0
aI1
aI0
aI0
aI0
aI7
aI5
asS'Albie Morkel'
p1789
(lp1790
I1
aI3
aI3
aI0
aI0
aI0
aI2
aI0
aI21
aI9
asS'Axar Patel'
p1791
(lp1792
I4
aI9
aI2
aI0
aI1
aI0
aI0
aI0
aI17
aI16
asS'D Wiese'
p1793
(lp1794
I1
aI1
aI0
aI0
aI0
aI0
aI0
aI0
aI1
aI2
aI1
asS'Johan Botha'
p1795
(lp1796
I0
aI4
aI0
aI0
aI0
aI0
aI0
aI0
aI4
aI4
asS'BE Hendricks'
p1797
(lp1798
I0
aI2
aI0
aI0
aI2
aI0
aI0
aI0
aI10
aI4
asS'Mitchell Starc'
p1799
(lp1800
I0
aI1
aI1
aI0
aI0
aI0
aI0
aI0
aI3
aI2
asS'Piyush Chawla'
p1801
(lp1802
I2
aI7
aI0
aI0
aI0
aI0
aI0
aI0
aI7
aI9
asS'MJ McClenaghan'
p1803
(lp1804
I4
aI2
aI0
aI0
aI1
aI0
aI0
aI0
aI6
aI7
asS'Brad Hogg'
p1805
(lp1806
I2
aI3
aI0
aI0
aI0
aI0
aI0
aI0
aI3
aI5
aI1
asS'Gurkeerat Singh'
p1807
(lp1808
I3
aI2
aI0
aI0
aI1
aI0
aI0
aI0
aI6
aI6
aI1
asS'YK Pathan'
p1809
(lp1810
I1
aI0
aI1
aI0
aI1
aI0
aI2
aI0
aI18
aI5
asS'Amit Mishra'
p1811
(lp1812
I1
aI2
aI4
aI0
aI0
aI0
aI2
aI0
aI22
aI9
asS'Anureet Singh'
p1813
(lp1814
I1
aI5
aI0
aI0
aI0
aI0
aI0
aI0
aI5
aI6
asS'Harshal Patel'
p1815
(lp1816
I1
aI0
aI1
aI0
aI3
aI0
aI1
aI0
aI20
aI6
asS'James Faulkner'
p1817
(lp1818
I1
aI2
aI1
aI0
aI3
aI0
aI0
aI0
aI16
aI7
asS'Sandeep Sharma'
p1819
(lp1820
I4
aI2
aI0
aI0
aI0
aI0
aI0
aI0
aI2
aI6
asS'PV Tambe'
p1821
(lp1822
I8
aI3
aI0
aI0
aI0
aI0
aI0
aI0
aI3
aI11
aI1
asS'Glenn Maxwell'
p1823
(lp1824
I2
aI3
aI0
aI0
aI1
aI0
aI0
aI0
aI7
aI6
asS'Jean-Paul Duminy'
p1825
(lp1826
I1
aI2
aI3
aI0
aI0
aI0
aI0
aI0
aI8
aI6
asS'Pawan Negi'
p1827
(lp1828
I1
aI2
aI0
aI0
aI1
aI0
aI0
aI0
aI6
aI4
aI1
asS'M Vijay'
p1829
(lp1830
I0
aI7
aI0
aI0
aI0
aI0
aI0
aI0
aI7
aI7
asS'Zaheer Khan'
p1831
(lp1832
I1
aI3
aI1
aI0
aI0
aI0
aI1
aI0
aI11
aI6
asS'Mitchell Johnson'
p1833
(lp1834
I0
aI3
aI0
aI0
aI0
aI0
aI0
aI0
aI3
aI3
asS'Yuzvendra Chahal'
p1835
(lp1836
I0
aI1
aI1
aI0
aI1
aI0
aI2
aI0
aI19
aI5
asS'J Suchith'
p1837
(lp1838
I2
aI1
aI0
aI0
aI0
aI0
aI0
aI0
aI1
aI3
aI1
asS'J Yadav'
p1839
(lp1840
I7
aI3
aI1
aI0
aI0
aI0
aI0
aI0
aI5
aI11
asS'UT Yadav'
p1841
(lp1842
I0
aI5
aI0
aI0
aI2
aI0
aI0
aI0
aI13
aI7
asS'Lasith Malinga'
p1843
(lp1844
I3
aI1
aI0
aI0
aI0
aI0
aI0
aI0
aI1
aI4
asS'RN ten Doeschate'
p1845
(lp1846
I1
aI2
aI0
aI0
aI0
aI0
aI0
aI0
aI2
aI3
asS'Shane Watson'
p1847
(lp1848
I2
aI1
aI0
aI0
aI0
aI0
aI0
aI0
aI1
aI3
asS'Suresh Raina'
p1849
(lp1850
I2
aI1
aI0
aI0
aI0
aI0
aI2
aI0
aI13
aI5
asS'Shikhar Dhawan'
p1851
(lp1852
I1
aI1
aI0
aI0
aI0
aI0
aI0
aI0
aI1
aI2
asS'R Vinay Kumar'
p1853
(lp1854
I2
aI3
aI0
aI0
aI0
aI0
aI0
aI0
aI3
aI5
asS'AB Dinda'
p1855
(lp1856
I1
aI4
aI0
aI0
aI1
aI0
aI1
aI0
aI14
aI7
asS'Andre Russell'
p1857
(lp1858
I7
aI0
aI2
aI0
aI1
aI0
aI0
aI0
aI8
aI10
assS'KV Sharma'
p1859
(dp1860
S'Imran Tahir'
p1861
(lp1862
I0
aI4
aI0
aI0
aI0
aI0
aI4
aI0
aI28
aI8
asS'Dwayne Bravo'
p1863
(lp1864
I2
aI3
aI0
aI0
aI1
aI0
aI0
aI0
aI7
aI6
asS'Brad Hogg'
p1865
(lp1866
I1
aI4
aI0
aI0
aI0
aI0
aI0
aI0
aI4
aI5
asS'Anureet Singh'
p1867
(lp1868
I0
aI2
aI0
aI0
aI0
aI0
aI0
aI0
aI2
aI2
asS'Johan Botha'
p1869
(lp1870
I3
aI2
aI1
aI0
aI0
aI0
aI3
aI0
aI22
aI9
asS'Ashish Nehra'
p1871
(lp1872
I1
aI1
aI0
aI0
aI0
aI0
aI0
aI0
aI1
aI2
asS'Albie Morkel'
p1873
(lp1874
I1
aI1
aI1
aI0
aI0
aI0
aI0
aI0
aI3
aI3
asS'BE Hendricks'
p1875
(lp1876
I1
aI1
aI0
aI0
aI0
aI0
aI0
aI0
aI1
aI2
asS'Sandeep Sharma'
p1877
(lp1878
I0
aI3
aI0
aI0
aI0
aI0
aI1
aI0
aI9
aI4
asS'J Suchith'
p1879
(lp1880
I2
aI2
aI0
aI0
aI0
aI0
aI0
aI0
aI2
aI4
asS'R Vinay Kumar'
p1881
(lp1882
I1
aI0
aI1
aI0
aI0
aI0
aI0
aI0
aI2
aI2
asS'Harbhajan Singh'
p1883
(lp1884
I2
aI5
aI0
aI0
aI0
aI0
aI0
aI0
aI5
aI7
asS'UT Yadav'
p1885
(lp1886
I0
aI3
aI0
aI0
aI0
aI0
aI0
aI0
aI3
aI3
asS'Lasith Malinga'
p1887
(lp1888
I4
aI2
aI0
aI0
aI0
aI0
aI0
aI0
aI2
aI6
asS'Piyush Chawla'
p1889
(lp1890
I0
aI3
aI0
aI0
aI0
aI0
aI0
aI0
aI3
aI3
asS'MJ McClenaghan'
p1891
(lp1892
I2
aI2
aI1
aI0
aI0
aI0
aI0
aI0
aI4
aI5
asS'Angelo Mathews'
p1893
(lp1894
I2
aI2
aI0
aI0
aI0
aI0
aI0
aI0
aI2
aI4
asS'Amit Mishra'
p1895
(lp1896
I1
aI0
aI1
aI0
aI1
aI0
aI0
aI0
aI6
aI3
asS'Kieron Pollard'
p1897
(lp1898
I0
aI2
aI0
aI0
aI0
aI0
aI0
aI0
aI2
aI2
asS'NM Coulter-Nile'
p1899
(lp1900
I5
aI7
aI2
aI0
aI1
aI0
aI0
aI0
aI15
aI15
assS'AN Ahmed'
p1901
(dp1902
S'Bhuvneshwar Kumar'
p1903
(lp1904
I1
aI0
aI0
aI0
aI0
aI0
aI0
aI0
aI0
aI1
asS'TA Boult'
p1905
(lp1906
I0
aI0
aI0
aI0
aI1
aI0
aI0
aI0
aI4
aI1
asS'Kieron Pollard'
p1907
(lp1908
I0
aI2
aI0
aI0
aI0
aI0
aI0
aI0
aI2
aI2
asS'Morne Morkel'
p1909
(lp1910
I0
aI1
aI0
aI0
aI1
aI0
aI0
aI0
aI5
aI2
assS'Ankit Sharma'
p1911
(dp1912
S'Dwayne Bravo'
p1913
(lp1914
I1
aI0
aI0
aI0
aI0
aI0
aI0
aI0
aI0
aI1
aI1
asS'Yuzvendra Chahal'
p1915
(lp1916
I0
aI2
aI0
aI0
aI0
aI0
aI0
aI0
aI2
aI2
asS'Mitchell Starc'
p1917
(lp1918
I1
aI0
aI0
aI0
aI0
aI0
aI0
aI0
aI0
aI1
asS'D Wiese'
p1919
(lp1920
I0
aI1
aI0
aI0
aI1
aI0
aI0
aI0
aI5
aI2
assS'Lasith Malinga'
p1921
(dp1922
S'Angelo Mathews'
p1923
(lp1924
I2
aI1
aI0
aI0
aI1
aI0
aI0
aI0
aI5
aI4
asS'Imran Tahir'
p1925
(lp1926
I4
aI1
aI0
aI0
aI0
aI0
aI0
aI0
aI1
aI5
asS'NM Coulter-Nile'
p1927
(lp1928
I1
aI0
aI0
aI0
aI0
aI0
aI0
aI0
aI0
aI1
assS'RR Rossouw'
p1929
(dp1930
S'Ashish Nehra'
p1931
(lp1932
I6
aI4
aI0
aI0
aI0
aI0
aI0
aI0
aI4
aI10
asS'MM Sharma'
p1933
(lp1934
I2
aI0
aI2
aI0
aI2
aI0
aI2
aI0
aI24
aI8
asS'Harbhajan Singh'
p1935
(lp1936
I2
aI0
aI0
aI0
aI0
aI0
aI0
aI0
aI0
aI2
assS'M Vijay'
p1937
(dp1938
S'MM Sharma'
p1939
(lp1940
I2
aI0
aI0
aI0
aI0
aI0
aI0
aI0
aI0
aI2
asS'Bipul Sharma'
p1941
(lp1942
I1
aI0
aI0
aI0
aI0
aI0
aI0
aI0
aI0
aI1
asS'James Faulkner'
p1943
(lp1944
I4
aI4
aI2
aI0
aI1
aI0
aI0
aI0
aI12
aI11
asS'Ashish Nehra'
p1945
(lp1946
I8
aI2
aI1
aI0
aI2
aI0
aI0
aI0
aI12
aI13
asS'DJ Muthuswami'
p1947
(lp1948
I10
aI4
aI2
aI0
aI2
aI0
aI2
aI0
aI28
aI20
asS'Mitchell Starc'
p1949
(lp1950
I0
aI1
aI0
aI0
aI0
aI0
aI0
aI0
aI1
aI1
asS'Harbhajan Singh'
p1951
(lp1952
I6
aI6
aI1
aI1
aI0
aI0
aI0
aI0
aI11
aI14
asS'Lasith Malinga'
p1953
(lp1954
I2
aI1
aI0
aI0
aI1
aI0
aI0
aI0
aI5
aI4
asS'Stuart Binny'
p1955
(lp1956
I8
aI1
aI0
aI0
aI0
aI0
aI2
aI0
aI13
aI11
asS'I Sharma'
p1957
(lp1958
I1
aI0
aI0
aI0
aI1
aI0
aI0
aI0
aI4
aI2
asS'MJ McClenaghan'
p1959
(lp1960
I1
aI1
aI0
aI1
aI2
aI0
aI0
aI0
aI12
aI5
asS'NM Coulter-Nile'
p1961
(lp1962
I8
aI2
aI0
aI0
aI0
aI0
aI0
aI0
aI2
aI10
asS'Ravindra Jadeja'
p1963
(lp1964
I3
aI3
aI0
aI0
aI1
aI0
aI0
aI0
aI7
aI7
asS'Harshal Patel'
p1965
(lp1966
I2
aI0
aI0
aI0
aI0
aI0
aI0
aI0
aI0
aI2
asS'Johan Botha'
p1967
(lp1968
I1
aI2
aI0
aI0
aI0
aI0
aI0
aI0
aI2
aI3
asS'Sunil Narine'
p1969
(lp1970
I5
aI2
aI0
aI0
aI1
aI0
aI0
aI0
aI6
aI8
asS'PV Tambe'
p1971
(lp1972
I2
aI5
aI2
aI0
aI0
aI0
aI0
aI0
aI9
aI9
asS'S Aravind'
p1973
(lp1974
I2
aI1
aI0
aI0
aI0
aI0
aI0
aI0
aI1
aI3
asS'KV Sharma'
p1975
(lp1976
I0
aI2
aI0
aI0
aI0
aI0
aI0
aI0
aI2
aI2
asS'Bhuvneshwar Kumar'
p1977
(lp1978
I8
aI3
aI0
aI0
aI1
aI0
aI0
aI0
aI7
aI12
asS'TG Southee'
p1979
(lp1980
I2
aI1
aI1
aI1
aI2
aI0
aI0
aI0
aI14
aI7
asS'TA Boult'
p1981
(lp1982
I8
aI3
aI1
aI1
aI2
aI0
aI1
aI0
aI22
aI16
asS'J Suchith'
p1983
(lp1984
I3
aI9
aI1
aI0
aI2
aI0
aI1
aI0
aI25
aI16
asS'Dhawal Kulkarni'
p1985
(lp1986
I7
aI2
aI0
aI0
aI1
aI0
aI0
aI0
aI6
aI10
asS'UT Yadav'
p1987
(lp1988
I12
aI1
aI0
aI0
aI3
aI0
aI1
aI0
aI19
aI17
asS'Angelo Mathews'
p1989
(lp1990
I4
aI0
aI0
aI0
aI2
aI0
aI0
aI0
aI8
aI6
asS'P Suyal'
p1991
(lp1992
I4
aI0
aI0
aI0
aI0
aI0
aI0
aI0
aI0
aI4
asS'Chris Morris'
p1993
(lp1994
I13
aI1
aI3
aI0
aI0
aI0
aI3
aI0
aI25
aI20
asS'Moises Henriques'
p1995
(lp1996
I0
aI1
aI0
aI0
aI0
aI0
aI0
aI0
aI1
aI1
asS'R Vinay Kumar'
p1997
(lp1998
I12
aI3
aI1
aI0
aI4
aI0
aI0
aI0
aI21
aI20
asS'Ravichandran Ashwin'
p1999
(lp2000
I2
aI1
aI0
aI0
aI0
aI0
aI0
aI0
aI1
aI3
asS'Andre Russell'
p2001
(lp2002
I0
aI1
aI0
aI0
aI0
aI0
aI0
aI0
aI1
aI1
asS'IC Pandey'
p2003
(lp2004
I2
aI2
aI1
aI0
aI1
aI0
aI1
aI0
aI14
aI7
assS'MEK Hussey'
p2005
(dp2006
S'D Wiese'
p2007
(lp2008
I3
aI7
aI0
aI0
aI1
aI0
aI0
aI0
aI11
aI11
asS'Sandeep Sharma'
p2009
(lp2010
I3
aI1
aI0
aI0
aI0
aI0
aI0
aI0
aI1
aI4
asS'Harshal Patel'
p2011
(lp2012
I2
aI2
aI0
aI0
aI1
aI0
aI0
aI0
aI6
aI5
asS'Yuzvendra Chahal'
p2013
(lp2014
I3
aI6
aI0
aI1
aI0
aI0
aI2
aI0
aI21
aI12
asS'Mitchell Starc'
p2015
(lp2016
I3
aI5
aI0
aI0
aI0
aI0
aI0
aI0
aI5
aI8
asS'R Vinay Kumar'
p2017
(lp2018
I4
aI1
aI0
aI0
aI1
aI0
aI1
aI0
aI11
aI7
asS'S Aravind'
p2019
(lp2020
I2
aI5
aI2
aI0
aI1
aI0
aI0
aI0
aI13
aI10
asS'MJ McClenaghan'
p2021
(lp2022
I3
aI2
aI0
aI0
aI1
aI0
aI0
aI0
aI6
aI6
asS'Lasith Malinga'
p2023
(lp2024
I4
aI3
aI0
aI0
aI0
aI0
aI0
aI0
aI3
aI7
assS'D Wiese'
p2025
(dp2026
S'MM Sharma'
p2027
(lp2028
I3
aI4
aI0
aI0
aI1
aI0
aI2
aI0
aI20
aI10
asS'Dwayne Bravo'
p2029
(lp2030
I12
aI10
aI1
aI0
aI5
aI0
aI1
aI0
aI38
aI29
asS'Andre Russell'
p2031
(lp2032
I0
aI3
aI1
aI0
aI0
aI0
aI0
aI0
aI5
aI4
asS'Shane Watson'
p2033
(lp2034
I0
aI2
aI0
aI0
aI0
aI0
aI0
aI0
aI2
aI2
asS'Axar Patel'
p2035
(lp2036
I0
aI1
aI0
aI0
aI0
aI0
aI0
aI0
aI1
aI1
asS'Ashish Nehra'
p2037
(lp2038
I8
aI7
aI1
aI0
aI0
aI0
aI0
aI0
aI9
aI16
asS'Kieron Pollard'
p2039
(lp2040
I2
aI4
aI2
aI0
aI2
aI0
aI0
aI0
aI16
aI10
asS'Dhawal Kulkarni'
p2041
(lp2042
I3
aI0
aI0
aI0
aI2
aI0
aI0
aI0
aI8
aI5
asS'UT Yadav'
p2043
(lp2044
I0
aI2
aI1
aI0
aI0
aI0
aI0
aI0
aI4
aI3
asS'HH Pandya'
p2045
(lp2046
I0
aI4
aI0
aI0
aI2
aI0
aI2
aI0
aI24
aI8
asS'PV Tambe'
p2047
(lp2048
I0
aI1
aI0
aI0
aI0
aI0
aI0
aI0
aI1
aI1
asS'MJ McClenaghan'
p2049
(lp2050
I2
aI2
aI0
aI0
aI6
aI0
aI0
aI0
aI26
aI10
asS'Lasith Malinga'
p2051
(lp2052
I4
aI2
aI0
aI0
aI0
aI0
aI0
aI0
aI2
aI6
asS'Anureet Singh'
p2053
(lp2054
I1
aI3
aI0
aI0
aI0
aI0
aI0
aI0
aI3
aI4
asS'Harbhajan Singh'
p2055
(lp2056
I6
aI2
aI0
aI0
aI2
aI0
aI0
aI0
aI10
aI10
asS'Jasprit Bumrah'
p2057
(lp2058
I0
aI4
aI0
aI0
aI0
aI0
aI2
aI0
aI16
aI6
asS'Ravindra Jadeja'
p2059
(lp2060
I0
aI6
aI0
aI0
aI0
aI0
aI0
aI0
aI6
aI6
assS'Parthiv Patel'
p2061
(dp2062
S'MM Sharma'
p2063
(lp2064
I2
aI4
aI1
aI0
aI3
aI0
aI0
aI0
aI18
aI10
asS'Axar Patel'
p2065
(lp2066
I1
aI4
aI1
aI0
aI0
aI0
aI0
aI0
aI6
aI6
asS'D Wiese'
p2067
(lp2068
I6
aI0
aI0
aI0
aI0
aI0
aI0
aI0
aI0
aI6
aI1
asS'Ashish Nehra'
p2069
(lp2070
I7
aI2
aI0
aI0
aI3
aI0
aI0
aI0
aI14
aI12
asS'DJ Muthuswami'
p2071
(lp2072
I4
aI1
aI0
aI1
aI0
aI0
aI0
aI0
aI4
aI6
asS'Mitchell Starc'
p2073
(lp2074
I2
aI2
aI1
aI0
aI3
aI0
aI0
aI0
aI16
aI8
asS'Angelo Mathews'
p2075
(lp2076
I5
aI0
aI0
aI0
aI2
aI0
aI1
aI0
aI14
aI8
asS'M Vijay'
p2077
(lp2078
I1
aI1
aI0
aI0
aI1
aI0
aI0
aI0
aI5
aI3
asS'Karanveer Singh'
p2079
(lp2080
I2
aI4
aI2
aI0
aI0
aI0
aI0
aI0
aI8
aI8
asS'NM Coulter-Nile'
p2081
(lp2082
I2
aI3
aI1
aI0
aI1
aI0
aI0
aI0
aI9
aI7
asS'Ravindra Jadeja'
p2083
(lp2084
I1
aI4
aI1
aI0
aI1
aI0
aI0
aI0
aI10
aI7
asS'Dwayne Bravo'
p2085
(lp2086
I1
aI1
aI1
aI0
aI0
aI0
aI0
aI0
aI3
aI3
aI1
asS'Anureet Singh'
p2087
(lp2088
I1
aI0
aI0
aI0
aI0
aI0
aI0
aI0
aI0
aI1
asS'Sandeep Sharma'
p2089
(lp2090
I5
aI1
aI0
aI0
aI1
aI0
aI0
aI0
aI5
aI7
asS'AN Ahmed'
p2091
(lp2092
I8
aI4
aI0
aI0
aI4
aI0
aI0
aI0
aI20
aI16
asS'TA Boult'
p2093
(lp2094
I0
aI2
aI0
aI0
aI0
aI0
aI0
aI0
aI2
aI2
asS'S Aravind'
p2095
(lp2096
I0
aI3
aI0
aI0
aI0
aI0
aI0
aI0
aI3
aI3
asS'KV Sharma'
p2097
(lp2098
I2
aI3
aI0
aI0
aI2
aI0
aI0
aI0
aI11
aI7
asS'Glenn Maxwell'
p2099
(lp2100
I0
aI1
aI0
aI0
aI0
aI0
aI1
aI0
aI7
aI2
asS'Bhuvneshwar Kumar'
p2101
(lp2102
I7
aI4
aI0
aI0
aI4
aI0
aI0
aI0
aI20
aI15
asS'Jean-Paul Duminy'
p2103
(lp2104
I1
aI1
aI0
aI0
aI2
aI0
aI0
aI0
aI9
aI4
asS'TG Southee'
p2105
(lp2106
I2
aI3
aI0
aI0
aI1
aI0
aI0
aI0
aI7
aI6
asS'Pawan Negi'
p2107
(lp2108
I3
aI5
aI2
aI0
aI2
aI0
aI1
aI0
aI23
aI13
asS'Iqbal Abdulla'
p2109
(lp2110
I0
aI2
aI0
aI0
aI0
aI0
aI0
aI0
aI2
aI2
asS'Zaheer Khan'
p2111
(lp2112
I5
aI0
aI1
aI1
aI0
aI0
aI0
aI0
aI5
aI7
asS'Mitchell Johnson'
p2113
(lp2114
I1
aI2
aI1
aI0
aI3
aI0
aI2
aI0
aI28
aI9
asS'Dhawal Kulkarni'
p2115
(lp2116
I5
aI3
aI0
aI0
aI4
aI0
aI0
aI0
aI19
aI12
aI1
asS'Dale Steyn'
p2117
(lp2118
I7
aI6
aI0
aI0
aI3
aI0
aI0
aI0
aI18
aI16
aI2
asS'Shakib Al Hasan'
p2119
(lp2120
I3
aI1
aI0
aI0
aI1
aI0
aI0
aI0
aI5
aI5
aI1
asS'Stuart Binny'
p2121
(lp2122
I4
aI2
aI2
aI0
aI0
aI0
aI0
aI0
aI6
aI8
asS'Chris Morris'
p2123
(lp2124
I2
aI0
aI0
aI2
aI2
aI0
aI0
aI0
aI14
aI6
asS'Moises Henriques'
p2125
(lp2126
I3
aI4
aI0
aI0
aI2
aI0
aI0
aI0
aI12
aI9
asS'UT Yadav'
p2127
(lp2128
I1
aI1
aI0
aI0
aI1
aI0
aI0
aI0
aI5
aI3
asS'Varun Aaron'
p2129
(lp2130
I0
aI2
aI0
aI0
aI0
aI0
aI0
aI0
aI2
aI2
asS'Praveen Kumar'
p2131
(lp2132
I3
aI1
aI0
aI0
aI1
aI0
aI0
aI0
aI5
aI5
asS'Ravichandran Ashwin'
p2133
(lp2134
I10
aI5
aI0
aI1
aI1
aI0
aI0
aI0
aI12
aI17
aI1
asS'Morne Morkel'
p2135
(lp2136
I0
aI3
aI2
aI0
aI1
aI0
aI0
aI0
aI11
aI6
asS'J Theron'
p2137
(lp2138
I1
aI1
aI0
aI0
aI2
aI0
aI0
aI0
aI9
aI4
assS'KK Nair'
p2139
(dp2140
S'Axar Patel'
p2141
(lp2142
I1
aI0
aI0
aI0
aI2
aI0
aI1
aI0
aI14
aI4
asS'D Wiese'
p2143
(lp2144
I4
aI4
aI0
aI0
aI1
aI0
aI0
aI0
aI8
aI9
asS'Shivam Sharma'
p2145
(lp2146
I0
aI2
aI4
aI0
aI2
aI0
aI0
aI0
aI18
aI8
asS'Angelo Mathews'
p2147
(lp2148
I3
aI4
aI1
aI0
aI1
aI0
aI0
aI0
aI10
aI9
asS'I Sharma'
p2149
(lp2150
I4
aI0
aI0
aI0
aI0
aI0
aI0
aI0
aI0
aI4
asS'MJ McClenaghan'
p2151
(lp2152
I1
aI1
aI0
aI0
aI0
aI0
aI0
aI0
aI1
aI2
asS'Amit Mishra'
p2153
(lp2154
I7
aI5
aI4
aI0
aI6
aI0
aI0
aI0
aI37
aI22
asS'Ravindra Jadeja'
p2155
(lp2156
I3
aI4
aI0
aI0
aI0
aI0
aI0
aI0
aI4
aI7
asS'Dwayne Bravo'
p2157
(lp2158
I0
aI2
aI0
aI0
aI0
aI0
aI0
aI0
aI2
aI2
asS'NM Coulter-Nile'
p2159
(lp2160
I2
aI1
aI1
aI0
aI0
aI0
aI1
aI0
aI9
aI5
asS'Anureet Singh'
p2161
(lp2162
I6
aI1
aI0
aI0
aI0
aI0
aI0
aI0
aI1
aI7
asS'Azhar Mahmood'
p2163
(lp2164
I1
aI1
aI0
aI0
aI0
aI0
aI0
aI0
aI1
aI2
asS'Harshal Patel'
p2165
(lp2166
I2
aI2
aI0
aI0
aI0
aI0
aI0
aI0
aI2
aI4
asS'Sandeep Sharma'
p2167
(lp2168
I5
aI5
aI0
aI0
aI0
aI0
aI2
aI0
aI17
aI12
asS'S Aravind'
p2169
(lp2170
I1
aI0
aI1
aI0
aI0
aI0
aI0
aI0
aI2
aI2
asS'KV Sharma'
p2171
(lp2172
I3
aI3
aI1
aI0
aI0
aI0
aI0
aI0
aI5
aI7
asS'RS Bopara'
p2173
(lp2174
I6
aI0
aI0
aI0
aI0
aI0
aI0
aI0
aI0
aI6
asS'Imran Tahir'
p2175
(lp2176
I1
aI1
aI2
aI0
aI0
aI0
aI0
aI0
aI5
aI4
asS'Pawan Negi'
p2177
(lp2178
I2
aI2
aI0
aI0
aI1
aI0
aI0
aI0
aI6
aI5
asS'Iqbal Abdulla'
p2179
(lp2180
I2
aI2
aI0
aI0
aI0
aI0
aI1
aI0
aI8
aI5
asS'Zaheer Khan'
p2181
(lp2182
I1
aI1
aI0
aI0
aI0
aI0
aI0
aI0
aI1
aI2
asS'Mitchell Johnson'
p2183
(lp2184
I0
aI4
aI2
aI0
aI0
aI0
aI0
aI0
aI8
aI6
asS'Yuzvendra Chahal'
p2185
(lp2186
I2
aI3
aI0
aI0
aI1
aI0
aI0
aI0
aI7
aI6
asS'UT Yadav'
p2187
(lp2188
I1
aI1
aI0
aI0
aI2
aI0
aI0
aI0
aI9
aI4
asS'Lasith Malinga'
p2189
(lp2190
I1
aI1
aI0
aI0
aI0
aI0
aI0
aI0
aI1
aI2
asS'Moises Henriques'
p2191
(lp2192
I1
aI1
aI0
aI0
aI0
aI0
aI0
aI0
aI1
aI2
asS'GS Sandhu'
p2193
(lp2194
I2
aI1
aI2
aI0
aI2
aI0
aI1
aI0
aI19
aI8
asS'R Vinay Kumar'
p2195
(lp2196
I0
aI1
aI0
aI0
aI1
aI0
aI0
aI0
aI5
aI2
asS'Praveen Kumar'
p2197
(lp2198
I1
aI0
aI0
aI0
aI0
aI0
aI0
aI0
aI0
aI1
asS'Morne Morkel'
p2199
(lp2200
I1
aI1
aI0
aI0
aI0
aI0
aI0
aI0
aI1
aI2
asS'Virat Kohli'
p2201
(lp2202
I0
aI1
aI0
aI0
aI0
aI0
aI0
aI0
aI1
aI1
asS'Andre Russell'
p2203
(lp2204
I0
aI1
aI0
aI0
aI1
aI0
aI0
aI0
aI5
aI2
assS'RN ten Doeschate'
p2205
(dp2206
S'Imran Tahir'
p2207
(lp2208
I0
aI2
aI0
aI0
aI0
aI0
aI0
aI0
aI2
aI2
asS'MM Sharma'
p2209
(lp2210
I2
aI3
aI0
aI0
aI0
aI0
aI0
aI0
aI3
aI5
asS'Dwayne Bravo'
p2211
(lp2212
I4
aI4
aI1
aI0
aI2
aI0
aI1
aI0
aI20
aI12
asS'Bipul Sharma'
p2213
(lp2214
I0
aI2
aI0
aI0
aI0
aI0
aI0
aI0
aI2
aI2
asS'D Wiese'
p2215
(lp2216
I0
aI2
aI0
aI0
aI0
aI0
aI0
aI0
aI2
aI2
asS'Ashish Nehra'
p2217
(lp2218
I1
aI4
aI0
aI0
aI1
aI0
aI1
aI0
aI14
aI7
asS'Suresh Raina'
p2219
(lp2220
I3
aI1
aI0
aI0
aI0
aI0
aI0
aI0
aI1
aI4
asS'Harshal Patel'
p2221
(lp2222
I2
aI0
aI0
aI0
aI1
aI0
aI1
aI0
aI10
aI4
asS'Sandeep Sharma'
p2223
(lp2224
I2
aI0
aI0
aI0
aI0
aI0
aI0
aI0
aI0
aI2
asS'Mitchell Starc'
p2225
(lp2226
I1
aI0
aI0
aI0
aI0
aI0
aI0
aI0
aI0
aI1
asS'KV Sharma'
p2227
(lp2228
I0
aI1
aI1
aI0
aI0
aI0
aI0
aI0
aI3
aI2
asS'Amit Mishra'
p2229
(lp2230
I0
aI0
aI2
aI0
aI0
aI0
aI0
aI0
aI4
aI2
asS'Moises Henriques'
p2231
(lp2232
I1
aI1
aI1
aI0
aI0
aI0
aI0
aI0
aI3
aI3
assS'Praveen Kumar'
p2233
(dp2234
S'NM Coulter-Nile'
p2235
(lp2236
I0
aI2
aI0
aI0
aI0
aI0
aI0
aI0
aI2
aI2
asS'Andre Russell'
p2237
(lp2238
I4
aI0
aI0
aI0
aI0
aI0
aI0
aI0
aI0
aI4
aI1
asS'Johan Botha'
p2239
(lp2240
I1
aI2
aI0
aI0
aI0
aI0
aI0
aI0
aI2
aI3
asS'R Vinay Kumar'
p2241
(lp2242
I1
aI0
aI0
aI0
aI0
aI0
aI0
aI0
aI0
aI1
asS'UT Yadav'
p2243
(lp2244
I1
aI1
aI1
aI0
aI0
aI0
aI0
aI0
aI3
aI3
asS'MJ McClenaghan'
p2245
(lp2246
I0
aI1
aI0
aI0
aI0
aI0
aI0
aI0
aI1
aI1
asS'Lasith Malinga'
p2247
(lp2248
I3
aI2
aI0
aI0
aI0
aI0
aI0
aI0
aI2
aI5
aI1
asS'Brad Hogg'
p2249
(lp2250
I2
aI3
aI0
aI0
aI1
aI0
aI0
aI0
aI7
aI6
asS'Kieron Pollard'
p2251
(lp2252
I0
aI1
aI0
aI0
aI0
aI0
aI0
aI0
aI1
aI1
assS'Robin Uthappa'
p2253
(dp2254
S'MM Sharma'
p2255
(lp2256
I6
aI5
aI1
aI0
aI5
aI0
aI0
aI0
aI27
aI17
asS'Albie Morkel'
p2257
(lp2258
I4
aI1
aI1
aI0
aI2
aI0
aI0
aI0
aI11
aI8
asS'RG More'
p2259
(lp2260
I1
aI7
aI7
aI0
aI1
aI0
aI0
aI0
aI25
aI16
asS'Bipul Sharma'
p2261
(lp2262
I3
aI3
aI0
aI0
aI0
aI0
aI0
aI0
aI3
aI6
asS'D Wiese'
p2263
(lp2264
I0
aI1
aI0
aI0
aI0
aI0
aI0
aI0
aI1
aI1
asS'Ashish Nehra'
p2265
(lp2266
I5
aI5
aI1
aI1
aI5
aI0
aI1
aI0
aI36
aI18
asS'BE Hendricks'
p2267
(lp2268
I1
aI1
aI0
aI0
aI1
aI0
aI0
aI0
aI5
aI3
asS'DJ Muthuswami'
p2269
(lp2270
I4
aI2
aI0
aI0
aI2
aI0
aI0
aI0
aI10
aI8
aI1
asS'Imran Tahir'
p2271
(lp2272
I0
aI1
aI1
aI0
aI0
aI0
aI0
aI0
aI3
aI2
asS'Mitchell Starc'
p2273
(lp2274
I3
aI1
aI0
aI0
aI0
aI0
aI0
aI0
aI1
aI4
asS'Harbhajan Singh'
p2275
(lp2276
I2
aI0
aI0
aI0
aI0
aI0
aI1
aI0
aI6
aI3
aI1
asS'Lasith Malinga'
p2277
(lp2278
I7
aI3
aI1
aI0
aI1
aI0
aI0
aI0
aI9
aI12
asS'MJ McClenaghan'
p2279
(lp2280
I2
aI3
aI0
aI0
aI1
aI0
aI0
aI0
aI7
aI6
asS'Amit Mishra'
p2281
(lp2282
I7
aI0
aI0
aI0
aI0
aI0
aI0
aI0
aI0
aI7
aI1
asS'Ravindra Jadeja'
p2283
(lp2284
I1
aI3
aI0
aI0
aI1
aI0
aI0
aI0
aI7
aI5
asS'Dwayne Bravo'
p2285
(lp2286
I1
aI2
aI1
aI0
aI0
aI0
aI0
aI0
aI4
aI4
asS'NM Coulter-Nile'
p2287
(lp2288
I8
aI6
aI0
aI0
aI2
aI0
aI0
aI0
aI14
aI16
asS'Anureet Singh'
p2289
(lp2290
I1
aI4
aI1
aI0
aI3
aI0
aI0
aI0
aI18
aI9
aI1
asS'Harshal Patel'
p2291
(lp2292
I5
aI2
aI0
aI0
aI4
aI0
aI0
aI0
aI18
aI11
aI1
asS'Sandeep Sharma'
p2293
(lp2294
I10
aI4
aI2
aI0
aI3
aI0
aI0
aI0
aI20
aI19
aI1
asS'AN Ahmed'
p2295
(lp2296
I3
aI5
aI1
aI0
aI0
aI0
aI0
aI0
aI7
aI9
aI1
asS'KV Sharma'
p2297
(lp2298
I5
aI8
aI3
aI0
aI0
aI0
aI0
aI0
aI14
aI16
aI1
asS'Bhuvneshwar Kumar'
p2299
(lp2300
I4
aI7
aI0
aI0
aI2
aI1
aI0
aI0
aI20
aI14
asS'Jean-Paul Duminy'
p2301
(lp2302
I1
aI1
aI0
aI0
aI0
aI0
aI1
aI0
aI7
aI3
asS'Corey Anderson'
p2303
(lp2304
I2
aI1
aI0
aI0
aI0
aI0
aI1
aI0
aI7
aI4
asS'Pawan Negi'
p2305
(lp2306
I2
aI6
aI1
aI0
aI0
aI0
aI0
aI0
aI8
aI9
asS'Zaheer Khan'
p2307
(lp2308
I6
aI3
aI0
aI0
aI2
aI0
aI0
aI0
aI11
aI11
asS'Yuzvendra Chahal'
p2309
(lp2310
I1
aI5
aI1
aI0
aI0
aI0
aI0
aI0
aI7
aI7
asS'Dhawal Kulkarni'
p2311
(lp2312
I2
aI0
aI0
aI0
aI1
aI0
aI0
aI0
aI4
aI3
asS'Dale Steyn'
p2313
(lp2314
I4
aI7
aI2
aI0
aI1
aI0
aI2
aI0
aI27
aI16
aI1
asS'Angelo Mathews'
p2315
(lp2316
I0
aI2
aI0
aI0
aI0
aI0
aI0
aI0
aI2
aI2
asS'Chris Morris'
p2317
(lp2318
I1
aI1
aI0
aI0
aI1
aI0
aI0
aI0
aI5
aI3
asS'Moises Henriques'
p2319
(lp2320
I3
aI3
aI0
aI0
aI0
aI0
aI0
aI0
aI3
aI6
aI1
asS'BB Sran'
p2321
(lp2322
I0
aI1
aI0
aI0
aI1
aI0
aI0
aI0
aI5
aI2
asS'Darren Sammy'
p2323
(lp2324
I1
aI1
aI0
aI0
aI0
aI0
aI0
aI0
aI1
aI2
asS'R Vinay Kumar'
p2325
(lp2326
I5
aI1
aI0
aI0
aI1
aI0
aI0
aI0
aI5
aI7
asS'Varun Aaron'
p2327
(lp2328
I2
aI4
aI1
aI0
aI2
aI0
aI0
aI0
aI14
aI9
asS'Praveen Kumar'
p2329
(lp2330
I2
aI3
aI0
aI0
aI4
aI0
aI2
aI0
aI31
aI11
asS'Ravichandran Ashwin'
p2331
(lp2332
I1
aI0
aI0
aI0
aI0
aI0
aI0
aI0
aI0
aI1
aI1
asS'SA Abbott'
p2333
(lp2334
I1
aI3
aI1
aI0
aI1
aI0
aI0
aI0
aI9
aI6
asS'IC Pandey'
p2335
(lp2336
I1
aI2
aI0
aI0
aI1
aI0
aI1
aI0
aI12
aI5
assS'Naman Ojha'
p2337
(dp2338
S'MM Sharma'
p2339
(lp2340
I0
aI1
aI0
aI0
aI2
aI0
aI0
aI0
aI9
aI3
asS'RG More'
p2341
(lp2342
I1
aI1
aI0
aI0
aI1
aI0
aI1
aI0
aI11
aI4
asS'Axar Patel'
p2343
(lp2344
I2
aI2
aI1
aI0
aI0
aI0
aI0
aI0
aI4
aI5
aI1
asS'James Faulkner'
p2345
(lp2346
I6
aI3
aI0
aI0
aI5
aI0
aI0
aI0
aI23
aI14
asS'Ashish Nehra'
p2347
(lp2348
I1
aI0
aI0
aI0
aI0
aI0
aI0
aI0
aI0
aI1
aI1
asS'BE Hendricks'
p2349
(lp2350
I0
aI1
aI0
aI0
aI0
aI0
aI0
aI0
aI1
aI1
asS'Angelo Mathews'
p2351
(lp2352
I2
aI6
aI2
aI0
aI2
aI0
aI0
aI0
aI18
aI12
asS'NM Coulter-Nile'
p2353
(lp2354
I0
aI2
aI0
aI0
aI0
aI0
aI0
aI0
aI2
aI2
asS'Dwayne Bravo'
p2355
(lp2356
I5
aI1
aI1
aI0
aI0
aI0
aI0
aI0
aI3
aI7
asS'Anureet Singh'
p2357
(lp2358
I6
aI4
aI0
aI0
aI2
aI0
aI0
aI0
aI12
aI12
asS'PV Tambe'
p2359
(lp2360
I10
aI0
aI4
aI0
aI0
aI0
aI0
aI0
aI8
aI14
aI2
asS'TG Southee'
p2361
(lp2362
I4
aI2
aI2
aI0
aI0
aI0
aI0
aI0
aI6
aI8
asS'Imran Tahir'
p2363
(lp2364
I2
aI4
aI0
aI0
aI0
aI0
aI0
aI0
aI4
aI6
aI1
asS'M Vijay'
p2365
(lp2366
I0
aI3
aI0
aI0
aI0
aI0
aI0
aI0
aI3
aI3
asS'Mitchell Johnson'
p2367
(lp2368
I1
aI2
aI1
aI0
aI0
aI0
aI0
aI0
aI4
aI4
asS'J Suchith'
p2369
(lp2370
I3
aI2
aI2
aI0
aI0
aI0
aI0
aI0
aI6
aI7
aI1
asS'Dhawal Kulkarni'
p2371
(lp2372
I8
aI2
aI0
aI0
aI0
aI0
aI0
aI0
aI2
aI10
asS'UT Yadav'
p2373
(lp2374
I9
aI2
aI0
aI0
aI0
aI0
aI4
aI0
aI26
aI15
aI2
asS'Stuart Binny'
p2375
(lp2376
I2
aI6
aI0
aI0
aI0
aI0
aI0
aI0
aI6
aI8
asS'Chris Morris'
p2377
(lp2378
I9
aI4
aI0
aI0
aI2
aI0
aI0
aI0
aI12
aI15
asS'Shane Watson'
p2379
(lp2380
I0
aI1
aI0
aI0
aI0
aI0
aI0
aI0
aI1
aI1
asS'Shikhar Dhawan'
p2381
(lp2382
I1
aI2
aI0
aI0
aI1
aI0
aI0
aI0
aI6
aI4
asS'R Vinay Kumar'
p2383
(lp2384
I0
aI3
aI0
aI0
aI0
aI0
aI0
aI0
aI3
aI3
asS'Ravichandran Ashwin'
p2385
(lp2386
I2
aI3
aI1
aI0
aI0
aI0
aI1
aI0
aI11
aI7
aI1
asS'Morne Morkel'
p2387
(lp2388
I0
aI2
aI0
aI0
aI2
aI0
aI0
aI0
aI10
aI4
asS'IC Pandey'
p2389
(lp2390
I0
aI1
aI0
aI0
aI0
aI0
aI0
aI0
aI1
aI1
assS'David Warner'
p2391
(dp2392
S'MM Sharma'
p2393
(lp2394
I2
aI5
aI1
aI0
aI5
aI0
aI2
aI0
aI39
aI15
asS'RG More'
p2395
(lp2396
I0
aI2
aI0
aI0
aI2
aI0
aI0
aI0
aI10
aI4
asS'YK Pathan'
p2397
(lp2398
I2
aI8
aI0
aI0
aI2
aI0
aI2
aI0
aI28
aI14
asS'D Wiese'
p2399
(lp2400
I1
aI3
aI0
aI0
aI2
aI0
aI0
aI0
aI11
aI6
asS'Johan Botha'
p2401
(lp2402
I12
aI8
aI2
aI0
aI6
aI0
aI0
aI0
aI36
aI28
asS'Ashish Nehra'
p2403
(lp2404
I2
aI7
aI1
aI0
aI4
aI0
aI0
aI0
aI25
aI14
asS'BE Hendricks'
p2405
(lp2406
I2
aI4
aI2
aI0
aI0
aI0
aI1
aI0
aI14
aI9
aI1
asS'DJ Muthuswami'
p2407
(lp2408
I4
aI0
aI4
aI0
aI8
aI0
aI0
aI0
aI40
aI16
asS'Mitchell Starc'
p2409
(lp2410
I1
aI5
aI2
aI0
aI1
aI0
aI0
aI0
aI13
aI9
asS'Harbhajan Singh'
p2411
(lp2412
I2
aI0
aI0
aI0
aI1
aI0
aI0
aI0
aI4
aI3
asS'Piyush Chawla'
p2413
(lp2414
I0
aI2
aI0
aI0
aI2
aI0
aI0
aI0
aI10
aI4
asS'MJ McClenaghan'
p2415
(lp2416
I1
aI0
aI0
aI0
aI0
aI0
aI0
aI0
aI0
aI1
aI1
asS'NM Coulter-Nile'
p2417
(lp2418
I10
aI5
aI4
aI0
aI0
aI0
aI1
aI0
aI19
aI20
aI2
asS'Gurkeerat Singh'
p2419
(lp2420
I3
aI3
aI1
aI0
aI2
aI0
aI1
aI0
aI19
aI10
asS'Axar Patel'
p2421
(lp2422
I5
aI7
aI0
aI0
aI1
aI0
aI2
aI0
aI23
aI15
aI2
asS'Dwayne Bravo'
p2423
(lp2424
I3
aI4
aI4
aI0
aI0
aI0
aI0
aI0
aI12
aI11
asS'Anureet Singh'
p2425
(lp2426
I7
aI2
aI0
aI0
aI4
aI0
aI1
aI0
aI24
aI14
asS'Harshal Patel'
p2427
(lp2428
I2
aI0
aI1
aI0
aI4
aI0
aI1
aI0
aI24
aI8
asS'Sandeep Sharma'
p2429
(lp2430
I15
aI3
aI0
aI1
aI5
aI0
aI0
aI0
aI26
aI24
asS'AN Ahmed'
p2431
(lp2432
I4
aI2
aI0
aI0
aI0
aI0
aI1
aI0
aI8
aI7
asS'Sunil Narine'
p2433
(lp2434
I14
aI4
aI8
aI0
aI2
aI0
aI4
aI0
aI52
aI32
asS'Glenn Maxwell'
p2435
(lp2436
I3
aI3
aI0
aI0
aI0
aI0
aI0
aI0
aI3
aI6
asS'Jean-Paul Duminy'
p2437
(lp2438
I6
aI4
aI0
aI0
aI0
aI0
aI0
aI0
aI4
aI10
aI1
asS'TG Southee'
p2439
(lp2440
I2
aI4
aI0
aI0
aI0
aI0
aI2
aI0
aI16
aI8
asS'DJ Hooda'
p2441
(lp2442
I3
aI0
aI0
aI0
aI2
aI0
aI0
aI0
aI8
aI5
asS'M Vijay'
p2443
(lp2444
I3
aI4
aI1
aI0
aI0
aI0
aI0
aI0
aI6
aI8
asS'Zaheer Khan'
p2445
(lp2446
I3
aI1
aI0
aI1
aI0
aI0
aI0
aI0
aI4
aI5
asS'Mitchell Johnson'
p2447
(lp2448
I0
aI2
aI0
aI0
aI4
aI0
aI1
aI0
aI24
aI7
asS'Yuzvendra Chahal'
p2449
(lp2450
I2
aI4
aI1
aI0
aI1
aI0
aI2
aI0
aI22
aI10
aI1
asS'J Yadav'
p2451
(lp2452
I1
aI2
aI0
aI0
aI1
aI0
aI0
aI0
aI6
aI4
asS'Dhawal Kulkarni'
p2453
(lp2454
I5
aI3
aI0
aI0
aI0
aI0
aI0
aI0
aI3
aI8
asS'UT Yadav'
p2455
(lp2456
I6
aI6
aI4
aI0
aI1
aI0
aI2
aI0
aI30
aI19
aI2
asS'Lasith Malinga'
p2457
(lp2458
I3
aI3
aI0
aI0
aI2
aI0
aI0
aI0
aI11
aI8
aI1
asS'Chris Morris'
p2459
(lp2460
I13
aI1
aI1
aI0
aI7
aI0
aI0
aI0
aI31
aI22
asS'Shane Watson'
p2461
(lp2462
I1
aI0
aI0
aI0
aI2
aI0
aI0
aI0
aI8
aI3
asS'Suresh Raina'
p2463
(lp2464
I2
aI1
aI0
aI0
aI0
aI0
aI0
aI0
aI1
aI3
aI1
asS'Darren Sammy'
p2465
(lp2466
I0
aI2
aI0
aI0
aI0
aI0
aI0
aI0
aI2
aI2
asS'Varun Aaron'
p2467
(lp2468
I3
aI1
aI0
aI0
aI2
aI0
aI1
aI0
aI15
aI7
asS'AB Dinda'
p2469
(lp2470
I1
aI5
aI1
aI0
aI0
aI0
aI0
aI0
aI7
aI7
asS'Ravichandran Ashwin'
p2471
(lp2472
I4
aI7
aI1
aI0
aI0
aI0
aI0
aI0
aI9
aI12
asS'SA Abbott'
p2473
(lp2474
I0
aI1
aI1
aI0
aI1
aI0
aI0
aI0
aI7
aI3
asS'Morne Morkel'
p2475
(lp2476
I4
aI6
aI0
aI0
aI6
aI0
aI0
aI0
aI30
aI16
aI1
asS'IC Pandey'
p2477
(lp2478
I6
aI2
aI0
aI0
aI1
aI0
aI2
aI0
aI18
aI11
assS'Dwayne Bravo'
p2479
(dp2480
S'Albie Morkel'
p2481
(lp2482
I1
aI2
aI0
aI0
aI0
aI0
aI0
aI0
aI2
aI3
asS'YK Pathan'
p2483
(lp2484
I3
aI3
aI0
aI0
aI1
aI0
aI0
aI0
aI7
aI7
asS'James Faulkner'
p2485
(lp2486
I6
aI5
aI5
aI2
aI1
aI0
aI0
aI0
aI25
aI19
asS'DJ Muthuswami'
p2487
(lp2488
I1
aI0
aI0
aI0
aI0
aI0
aI0
aI0
aI0
aI1
aI1
asS'Mitchell Starc'
p2489
(lp2490
I3
aI2
aI1
aI0
aI2
aI0
aI0
aI0
aI12
aI8
aI1
asS'Harbhajan Singh'
p2491
(lp2492
I3
aI4
aI1
aI0
aI0
aI0
aI0
aI0
aI6
aI8
asS'Piyush Chawla'
p2493
(lp2494
I8
aI2
aI0
aI0
aI1
aI0
aI0
aI0
aI6
aI11
aI1
asS'MJ McClenaghan'
p2495
(lp2496
I2
aI0
aI0
aI0
aI0
aI0
aI1
aI0
aI6
aI3
aI1
asS'Amit Mishra'
p2497
(lp2498
I1
aI1
aI0
aI0
aI0
aI0
aI0
aI0
aI1
aI2
aI0
asS'Brad Hogg'
p2499
(lp2500
I3
aI3
aI0
aI0
aI1
aI0
aI0
aI0
aI7
aI7
asS'Kieron Pollard'
p2501
(lp2502
I0
aI1
aI2
aI0
aI2
aI0
aI2
aI0
aI25
aI7
asS'TA Boult'
p2503
(lp2504
I0
aI1
aI0
aI0
aI1
aI0
aI0
aI0
aI5
aI2
asS'A Ashish Reddy'
p2505
(lp2506
I0
aI3
aI0
aI0
aI0
aI0
aI0
aI0
aI3
aI3
asS'PV Tambe'
p2507
(lp2508
I2
aI12
aI0
aI0
aI6
aI0
aI2
aI0
aI48
aI22
asS'Ankit Sharma'
p2509
(lp2510
I4
aI4
aI0
aI0
aI0
aI0
aI0
aI0
aI4
aI8
asS'Bhuvneshwar Kumar'
p2511
(lp2512
I1
aI3
aI0
aI0
aI2
aI0
aI0
aI0
aI11
aI6
asS'PJ Cummins'
p2513
(lp2514
I0
aI2
aI1
aI0
aI0
aI0
aI0
aI0
aI4
aI3
asS'Iqbal Abdulla'
p2515
(lp2516
I4
aI0
aI0
aI0
aI0
aI0
aI0
aI0
aI0
aI4
asS'J Suchith'
p2517
(lp2518
I4
aI2
aI0
aI0
aI2
aI0
aI1
aI0
aI16
aI9
asS'P Suyal'
p2519
(lp2520
I2
aI2
aI0
aI0
aI0
aI0
aI0
aI0
aI2
aI4
asS'Chris Morris'
p2521
(lp2522
I2
aI10
aI0
aI0
aI3
aI0
aI0
aI0
aI22
aI15
asS'Moises Henriques'
p2523
(lp2524
I2
aI1
aI0
aI0
aI0
aI0
aI0
aI0
aI1
aI3
asS'Shane Watson'
p2525
(lp2526
I2
aI2
aI0
aI0
aI6
aI0
aI0
aI0
aI26
aI10
asS'GS Sandhu'
p2527
(lp2528
I2
aI0
aI0
aI0
aI0
aI0
aI1
aI0
aI6
aI3
asS'Praveen Kumar'
p2529
(lp2530
I1
aI5
aI0
aI0
aI0
aI0
aI0
aI0
aI5
aI6
asS'Yuvraj Singh'
p2531
(lp2532
I2
aI0
aI0
aI0
aI0
aI0
aI0
aI0
aI0
aI2
asS'DJ Hooda'
p2533
(lp2534
I0
aI2
aI2
aI0
aI2
aI0
aI0
aI0
aI14
aI6
asS'Andre Russell'
p2535
(lp2536
I6
aI3
aI0
aI0
aI2
aI0
aI0
aI0
aI11
aI11
aI1
assS'Darren Sammy'
p2537
(dp2538
S'YK Pathan'
p2539
(lp2540
I0
aI2
aI0
aI0
aI0
aI0
aI0
aI0
aI2
aI2
asS'A Ashish Reddy'
p2541
(lp2542
I1
aI0
aI0
aI0
aI0
aI0
aI0
aI0
aI0
aI1
aI1
asS'Sunil Narine'
p2543
(lp2544
I0
aI2
aI0
aI0
aI0
aI0
aI0
aI0
aI2
aI2
asS'Shakib Al Hasan'
p2545
(lp2546
I2
aI1
aI0
aI0
aI0
aI0
aI0
aI0
aI1
aI3
aI1
asS'KV Sharma'
p2547
(lp2548
I2
aI4
aI0
aI0
aI0
aI0
aI0
aI0
aI4
aI6
asS'RS Bopara'
p2549
(lp2550
I0
aI2
aI0
aI0
aI0
aI0
aI0
aI0
aI2
aI2
asS'Piyush Chawla'
p2551
(lp2552
I0
aI2
aI0
aI0
aI0
aI0
aI0
aI0
aI2
aI2
assS'Imran Tahir'
p2553
(dp2554
S'Ashish Nehra'
p2555
(lp2556
I0
aI0
aI1
aI0
aI0
aI0
aI0
aI0
aI2
aI1
asS'Dwayne Bravo'
p2557
(lp2558
I1
aI0
aI0
aI0
aI0
aI0
aI0
aI0
aI0
aI1
aI1
asS'Mitchell Starc'
p2559
(lp2560
I1
aI1
aI0
aI0
aI0
aI0
aI0
aI0
aI1
aI2
asS'D Wiese'
p2561
(lp2562
I0
aI1
aI0
aI0
aI0
aI0
aI0
aI0
aI1
aI1
asS'Harshal Patel'
p2563
(lp2564
I0
aI1
aI0
aI0
aI0
aI0
aI0
aI0
aI1
aI1
assS'Anureet Singh'
p2565
(dp2566
S'Imran Tahir'
p2567
(lp2568
I0
aI2
aI0
aI0
aI0
aI0
aI1
aI0
aI8
aI3
asS'MM Sharma'
p2569
(lp2570
I3
aI1
aI0
aI0
aI0
aI0
aI0
aI0
aI1
aI4
aI1
asS'Dwayne Bravo'
p2571
(lp2572
I3
aI5
aI0
aI0
aI0
aI0
aI0
aI0
aI5
aI8
asS'James Faulkner'
p2573
(lp2574
I1
aI0
aI0
aI0
aI0
aI0
aI0
aI0
aI0
aI1
asS'Ashish Nehra'
p2575
(lp2576
I4
aI1
aI0
aI0
aI0
aI0
aI0
aI0
aI1
aI5
asS'Mitchell Starc'
p2577
(lp2578
I2
aI0
aI0
aI0
aI0
aI0
aI0
aI0
aI0
aI2
aI1
asS'Praveen Kumar'
p2579
(lp2580
I1
aI0
aI0
aI0
aI0
aI0
aI0
aI0
aI0
aI1
aI1
asS'Ravichandran Ashwin'
p2581
(lp2582
I0
aI2
aI0
aI0
aI0
aI0
aI0
aI0
aI2
aI2
asS'Bhuvneshwar Kumar'
p2583
(lp2584
I1
aI0
aI0
aI0
aI0
aI0
aI0
aI0
aI0
aI1
asS'Morne Morkel'
p2585
(lp2586
I2
aI0
aI0
aI0
aI0
aI0
aI0
aI0
aI0
aI2
asS'Chris Morris'
p2587
(lp2588
I2
aI0
aI0
aI0
aI0
aI0
aI0
aI0
aI0
aI2
asS'Ravindra Jadeja'
p2589
(lp2590
I0
aI1
aI0
aI0
aI0
aI0
aI0
aI0
aI1
aI1
assS'M Vohra'
p2591
(dp2592
S'Pawan Negi'
p2593
(lp2594
I1
aI1
aI0
aI0
aI0
aI0
aI0
aI0
aI1
aI2
asS'Andre Russell'
p2595
(lp2596
I4
aI2
aI3
aI0
aI1
aI0
aI1
aI0
aI18
aI11
asS'Bipul Sharma'
p2597
(lp2598
I3
aI1
aI0
aI0
aI1
aI0
aI0
aI0
aI5
aI5
asS'D Wiese'
p2599
(lp2600
I1
aI0
aI0
aI1
aI0
aI0
aI0
aI0
aI3
aI2
asS'Johan Botha'
p2601
(lp2602
I1
aI1
aI0
aI0
aI0
aI0
aI1
aI0
aI7
aI3
asS'Zaheer Khan'
p2603
(lp2604
I4
aI0
aI0
aI0
aI0
aI0
aI0
aI0
aI0
aI4
asS'UT Yadav'
p2605
(lp2606
I2
aI1
aI0
aI0
aI0
aI0
aI0
aI0
aI1
aI3
asS'Harshal Patel'
p2607
(lp2608
I1
aI0
aI0
aI0
aI0
aI0
aI0
aI0
aI0
aI1
asS'TA Boult'
p2609
(lp2610
I3
aI1
aI0
aI0
aI0
aI0
aI0
aI0
aI1
aI4
asS'Mitchell Starc'
p2611
(lp2612
I2
aI1
aI1
aI0
aI0
aI0
aI0
aI0
aI3
aI4
asS'Brad Hogg'
p2613
(lp2614
I5
aI3
aI0
aI0
aI0
aI0
aI0
aI0
aI3
aI8
asS'Sunil Narine'
p2615
(lp2616
I3
aI3
aI0
aI0
aI0
aI0
aI0
aI0
aI3
aI6
asS'I Sharma'
p2617
(lp2618
I2
aI4
aI0
aI0
aI0
aI0
aI1
aI0
aI10
aI7
asS'Piyush Chawla'
p2619
(lp2620
I1
aI1
aI0
aI0
aI0
aI0
aI1
aI0
aI7
aI3
asS'Bhuvneshwar Kumar'
p2621
(lp2622
I5
aI1
aI0
aI0
aI2
aI0
aI0
aI0
aI9
aI8
asS'Jean-Paul Duminy'
p2623
(lp2624
I2
aI1
aI0
aI0
aI0
aI0
aI0
aI0
aI1
aI3
asS'IC Pandey'
p2625
(lp2626
I3
aI1
aI1
aI0
aI0
aI0
aI0
aI0
aI3
aI5
asS'S Aravind'
p2627
(lp2628
I0
aI1
aI0
aI0
aI0
aI0
aI1
aI0
aI7
aI2
assS'DJ Hooda'
p2629
(dp2630
S'Axar Patel'
p2631
(lp2632
I1
aI5
aI0
aI0
aI0
aI0
aI0
aI0
aI5
aI6
asS'D Wiese'
p2633
(lp2634
I3
aI2
aI1
aI0
aI0
aI0
aI0
aI0
aI4
aI6
asS'Shivam Sharma'
p2635
(lp2636
I4
aI0
aI0
aI0
aI2
aI0
aI0
aI0
aI8
aI6
asS'Mitchell Starc'
p2637
(lp2638
I2
aI1
aI1
aI0
aI0
aI0
aI0
aI0
aI3
aI4
asS'Lasith Malinga'
p2639
(lp2640
I3
aI0
aI0
aI0
aI0
aI0
aI0
aI0
aI0
aI3
asS'MJ McClenaghan'
p2641
(lp2642
I0
aI1
aI0
aI0
aI0
aI0
aI0
aI0
aI1
aI1
asS'Karanveer Singh'
p2643
(lp2644
I3
aI1
aI2
aI0
aI0
aI0
aI2
aI0
aI17
aI8
asS'JD Unadkat'
p2645
(lp2646
I1
aI1
aI0
aI0
aI0
aI0
aI2
aI0
aI13
aI4
asS'Amit Mishra'
p2647
(lp2648
I2
aI3
aI2
aI0
aI0
aI0
aI0
aI0
aI7
aI7
asS'Ravindra Jadeja'
p2649
(lp2650
I2
aI1
aI0
aI0
aI0
aI0
aI0
aI0
aI1
aI3
asS'Dwayne Bravo'
p2651
(lp2652
I1
aI3
aI0
aI0
aI0
aI0
aI0
aI0
aI3
aI4
asS'NM Coulter-Nile'
p2653
(lp2654
I0
aI1
aI1
aI0
aI1
aI0
aI0
aI0
aI7
aI3
asS'Anureet Singh'
p2655
(lp2656
I1
aI2
aI0
aI0
aI1
aI0
aI1
aI0
aI12
aI5
asS'Harshal Patel'
p2657
(lp2658
I3
aI0
aI2
aI0
aI0
aI0
aI0
aI0
aI4
aI5
asS'KV Sharma'
p2659
(lp2660
I2
aI0
aI1
aI0
aI0
aI0
aI0
aI0
aI2
aI3
asS'Glenn Maxwell'
p2661
(lp2662
I2
aI2
aI0
aI0
aI0
aI0
aI4
aI0
aI26
aI8
asS'RS Bopara'
p2663
(lp2664
I1
aI2
aI1
aI0
aI0
aI0
aI0
aI0
aI4
aI4
asS'Imran Tahir'
p2665
(lp2666
I1
aI2
aI0
aI0
aI0
aI0
aI1
aI0
aI8
aI4
asS'Pawan Negi'
p2667
(lp2668
I1
aI3
aI2
aI0
aI1
aI0
aI0
aI0
aI11
aI7
asS'Iqbal Abdulla'
p2669
(lp2670
I1
aI0
aI0
aI0
aI0
aI0
aI0
aI0
aI0
aI1
asS'Yuzvendra Chahal'
p2671
(lp2672
I0
aI1
aI0
aI0
aI0
aI0
aI0
aI0
aI1
aI1
asS'Angelo Mathews'
p2673
(lp2674
I0
aI1
aI1
aI0
aI2
aI0
aI1
aI0
aI17
aI5
asS'Moises Henriques'
p2675
(lp2676
I1
aI1
aI0
aI0
aI0
aI0
aI0
aI0
aI1
aI2
asS'S Gopal'
p2677
(lp2678
I0
aI2
aI0
aI0
aI0
aI0
aI4
aI0
aI26
aI6
asS'Yuvraj Singh'
p2679
(lp2680
I0
aI2
aI0
aI0
aI0
aI0
aI0
aI0
aI2
aI2
assS'Virat Kohli'
p2681
(dp2682
S'MM Sharma'
p2683
(lp2684
I10
aI10
aI2
aI1
aI0
aI0
aI0
aI0
aI17
aI23
asS'Axar Patel'
p2685
(lp2686
I2
aI3
aI0
aI0
aI0
aI0
aI1
aI0
aI9
aI6
asS'James Faulkner'
p2687
(lp2688
I2
aI4
aI2
aI0
aI0
aI0
aI0
aI0
aI8
aI8
asS'Ashish Nehra'
p2689
(lp2690
I17
aI6
aI3
aI0
aI2
aI0
aI1
aI0
aI26
aI29
aI2
asS'BE Hendricks'
p2691
(lp2692
I2
aI1
aI1
aI0
aI0
aI0
aI0
aI0
aI3
aI4
asS'TA Boult'
p2693
(lp2694
I9
aI1
aI0
aI0
aI1
aI0
aI1
aI0
aI11
aI12
asS'Harbhajan Singh'
p2695
(lp2696
I6
aI10
aI1
aI0
aI0
aI0
aI3
aI0
aI30
aI20
asS'HH Pandya'
p2697
(lp2698
I4
aI4
aI1
aI0
aI3
aI0
aI1
aI0
aI24
aI13
asS'Piyush Chawla'
p2699
(lp2700
I0
aI2
aI0
aI0
aI0
aI0
aI1
aI0
aI8
aI3
asS'MJ McClenaghan'
p2701
(lp2702
I8
aI5
aI1
aI0
aI1
aI0
aI0
aI0
aI11
aI15
aI1
asS'NM Coulter-Nile'
p2703
(lp2704
I2
aI2
aI0
aI0
aI2
aI0
aI0
aI0
aI10
aI6
asS'Ravindra Jadeja'
p2705
(lp2706
I12
aI15
aI3
aI0
aI3
aI0
aI2
aI0
aI45
aI35
asS'Dwayne Bravo'
p2707
(lp2708
I4
aI3
aI3
aI0
aI4
aI0
aI0
aI0
aI25
aI14
asS'Amit Mishra'
p2709
(lp2710
I2
aI3
aI0
aI0
aI3
aI0
aI0
aI0
aI15
aI8
asS'Anureet Singh'
p2711
(lp2712
I3
aI3
aI1
aI0
aI3
aI0
aI1
aI0
aI23
aI11
asS'Sandeep Sharma'
p2713
(lp2714
I3
aI2
aI0
aI0
aI0
aI0
aI0
aI0
aI2
aI5
aI1
asS'Brad Hogg'
p2715
(lp2716
I0
aI2
aI0
aI0
aI0
aI0
aI0
aI0
aI2
aI2
asS'Sunil Narine'
p2717
(lp2718
I1
aI3
aI0
aI0
aI0
aI0
aI0
aI0
aI3
aI4
asS'PV Tambe'
p2719
(lp2720
I3
aI7
aI2
aI0
aI0
aI0
aI2
aI0
aI23
aI14
asS'Angelo Mathews'
p2721
(lp2722
I1
aI1
aI0
aI0
aI0
aI0
aI0
aI0
aI1
aI2
asS'KV Sharma'
p2723
(lp2724
I1
aI4
aI4
aI0
aI1
aI0
aI1
aI0
aI22
aI11
asS'Glenn Maxwell'
p2725
(lp2726
I0
aI3
aI0
aI0
aI1
aI0
aI0
aI0
aI7
aI4
asS'RS Bopara'
p2727
(lp2728
I2
aI3
aI0
aI0
aI0
aI0
aI0
aI0
aI3
aI5
aI1
asS'Jean-Paul Duminy'
p2729
(lp2730
I1
aI2
aI0
aI0
aI0
aI0
aI0
aI0
aI2
aI3
asS'Jasprit Bumrah'
p2731
(lp2732
I7
aI11
aI3
aI0
aI4
aI0
aI1
aI0
aI39
aI26
asS'PJ Cummins'
p2733
(lp2734
I4
aI3
aI0
aI0
aI1
aI0
aI1
aI0
aI13
aI9
asS'Imran Tahir'
p2735
(lp2736
I0
aI3
aI0
aI0
aI1
aI0
aI0
aI0
aI7
aI4
asS'Pawan Negi'
p2737
(lp2738
I3
aI2
aI3
aI0
aI0
aI0
aI1
aI0
aI14
aI9
asS'Mitchell Johnson'
p2739
(lp2740
I6
aI1
aI1
aI0
aI1
aI0
aI0
aI0
aI7
aI9
asS'Ankit Sharma'
p2741
(lp2742
I3
aI2
aI0
aI0
aI0
aI0
aI0
aI0
aI2
aI5
asS'J Suchith'
p2743
(lp2744
I2
aI4
aI0
aI0
aI0
aI0
aI1
aI0
aI10
aI7
asS'J Yadav'
p2745
(lp2746
I1
aI1
aI0
aI0
aI0
aI0
aI0
aI0
aI1
aI2
asS'Dhawal Kulkarni'
p2747
(lp2748
I8
aI10
aI3
aI0
aI1
aI0
aI0
aI0
aI20
aI22
aI1
asS'UT Yadav'
p2749
(lp2750
I2
aI1
aI0
aI0
aI1
aI0
aI1
aI0
aI11
aI5
asS'Bhuvneshwar Kumar'
p2751
(lp2752
I3
aI2
aI0
aI0
aI3
aI0
aI1
aI0
aI20
aI9
asS'Lasith Malinga'
p2753
(lp2754
I1
aI4
aI0
aI0
aI0
aI0
aI0
aI0
aI4
aI5
asS'Chris Morris'
p2755
(lp2756
I1
aI7
aI0
aI0
aI0
aI0
aI0
aI0
aI7
aI8
asS'Moises Henriques'
p2757
(lp2758
I1
aI2
aI0
aI0
aI0
aI0
aI0
aI0
aI2
aI3
asS'Dale Steyn'
p2759
(lp2760
I1
aI0
aI1
aI0
aI1
aI0
aI0
aI0
aI6
aI3
asS'Shane Watson'
p2761
(lp2762
I1
aI5
aI2
aI0
aI0
aI0
aI1
aI0
aI15
aI9
asS'TG Southee'
p2763
(lp2764
I2
aI0
aI0
aI0
aI0
aI0
aI0
aI0
aI0
aI2
asS'Praveen Kumar'
p2765
(lp2766
I6
aI3
aI1
aI0
aI1
aI0
aI2
aI0
aI21
aI13
asS'Ravichandran Ashwin'
p2767
(lp2768
I2
aI4
aI0
aI0
aI2
aI0
aI2
aI0
aI24
aI10
asS'Morne Morkel'
p2769
(lp2770
I8
aI1
aI0
aI1
aI0
aI0
aI1
aI0
aI10
aI11
asS'Andre Russell'
p2771
(lp2772
I1
aI0
aI0
aI0
aI0
aI0
aI0
aI0
aI0
aI1
aI1
asS'IC Pandey'
p2773
(lp2774
I6
aI11
aI0
aI0
aI0
aI0
aI0
aI0
aI11
aI17
assS'UT Yadav'
p2775
(dp2776
S'Ashish Nehra'
p2777
(lp2778
I1
aI0
aI0
aI0
aI0
aI0
aI0
aI0
aI0
aI1
aI1
asS'Kieron Pollard'
p2779
(lp2780
I0
aI1
aI0
aI0
aI1
aI0
aI0
aI0
aI5
aI2
asS'Chris Morris'
p2781
(lp2782
I0
aI2
aI0
aI0
aI0
aI0
aI0
aI0
aI2
aI2
asS'Shane Watson'
p2783
(lp2784
I3
aI0
aI0
aI0
aI1
aI0
aI0
aI0
aI4
aI4
asS'James Faulkner'
p2785
(lp2786
I1
aI0
aI0
aI0
aI3
aI0
aI1
aI0
aI18
aI5
assS'RG More'
p2787
(dp2788
S'Andre Russell'
p2789
(lp2790
I0
aI2
aI0
aI0
aI0
aI0
aI0
aI0
aI2
aI2
assS'Dinesh Karthik'
p2791
(dp2792
S'MM Sharma'
p2793
(lp2794
I9
aI10
aI2
aI0
aI2
aI0
aI0
aI0
aI22
aI23
asS'YK Pathan'
p2795
(lp2796
I1
aI0
aI0
aI0
aI0
aI0
aI0
aI0
aI0
aI1
aI1
asS'James Faulkner'
p2797
(lp2798
I1
aI1
aI0
aI0
aI1
aI0
aI0
aI0
aI5
aI3
asS'Ashish Nehra'
p2799
(lp2800
I2
aI2
aI0
aI0
aI1
aI0
aI0
aI0
aI6
aI5
aI1
asS'BE Hendricks'
p2801
(lp2802
I2
aI1
aI0
aI0
aI0
aI0
aI0
aI0
aI1
aI3
aI1
asS'Harbhajan Singh'
p2803
(lp2804
I0
aI2
aI0
aI0
aI0
aI0
aI0
aI0
aI2
aI2
asS'KC Cariappa'
p2805
(lp2806
I0
aI1
aI0
aI0
aI0
aI0
aI0
aI0
aI1
aI1
asS'Stuart Binny'
p2807
(lp2808
I3
aI1
aI0
aI0
aI2
aI0
aI1
aI0
aI15
aI7
asS'MJ McClenaghan'
p2809
(lp2810
I0
aI2
aI0
aI0
aI0
aI0
aI0
aI0
aI2
aI2
asS'Ravindra Jadeja'
p2811
(lp2812
I1
aI3
aI0
aI0
aI0
aI0
aI0
aI0
aI3
aI4
asS'Axar Patel'
p2813
(lp2814
I0
aI1
aI0
aI0
aI0
aI0
aI0
aI0
aI1
aI1
asS'Dwayne Bravo'
p2815
(lp2816
I5
aI0
aI0
aI0
aI0
aI0
aI0
aI0
aI0
aI5
asS'Sandeep Sharma'
p2817
(lp2818
I1
aI0
aI1
aI0
aI0
aI0
aI1
aI0
aI8
aI3
asS'PV Tambe'
p2819
(lp2820
I1
aI2
aI1
aI0
aI0
aI0
aI0
aI0
aI4
aI4
asS'KV Sharma'
p2821
(lp2822
I1
aI2
aI0
aI0
aI0
aI0
aI0
aI0
aI2
aI3
aI1
asS'Bhuvneshwar Kumar'
p2823
(lp2824
I0
aI1
aI0
aI0
aI0
aI0
aI0
aI0
aI1
aI1
asS'TG Southee'
p2825
(lp2826
I1
aI3
aI0
aI0
aI0
aI0
aI0
aI0
aI3
aI4
asS'Pawan Negi'
p2827
(lp2828
I2
aI2
aI0
aI0
aI1
aI0
aI0
aI0
aI6
aI5
asS'HH Pandya'
p2829
(lp2830
I4
aI4
aI4
aI0
aI2
aI0
aI2
aI0
aI32
aI16
asS'RS Bopara'
p2831
(lp2832
I1
aI1
aI0
aI0
aI0
aI0
aI0
aI0
aI1
aI2
asS'Lasith Malinga'
p2833
(lp2834
I2
aI0
aI0
aI0
aI0
aI0
aI0
aI0
aI0
aI2
aI1
asS'Chris Morris'
p2835
(lp2836
I1
aI0
aI1
aI0
aI0
aI0
aI1
aI0
aI8
aI3
aI1
asS'Suresh Raina'
p2837
(lp2838
I2
aI3
aI1
aI0
aI3
aI0
aI0
aI0
aI17
aI9
asS'Praveen Kumar'
p2839
(lp2840
I3
aI3
aI0
aI0
aI1
aI0
aI0
aI0
aI7
aI7
asS'Ravichandran Ashwin'
p2841
(lp2842
I4
aI2
aI1
aI0
aI2
aI0
aI0
aI0
aI12
aI9
asS'Morne Morkel'
p2843
(lp2844
I1
aI0
aI0
aI0
aI0
aI0
aI0
aI0
aI0
aI1
asS'Andre Russell'
p2845
(lp2846
I3
aI1
aI0
aI0
aI1
aI0
aI0
aI0
aI5
aI5
asS'IC Pandey'
p2847
(lp2848
I6
aI1
aI0
aI0
aI1
aI0
aI0
aI0
aI5
aI8
aI1
assS'Kieron Pollard'
p2849
(dp2850
S'MM Sharma'
p2851
(lp2852
I5
aI5
aI1
aI0
aI1
aI0
aI1
aI0
aI17
aI13
asS'Axar Patel'
p2853
(lp2854
I3
aI3
aI1
aI0
aI1
aI0
aI0
aI0
aI9
aI8
aI1
asS'D Wiese'
p2855
(lp2856
I3
aI2
aI0
aI0
aI2
aI0
aI0
aI0
aI10
aI7
aI1
asS'James Faulkner'
p2857
(lp2858
I8
aI2
aI0
aI0
aI4
aI0
aI4
aI0
aI42
aI18
asS'Ashish Nehra'
p2859
(lp2860
I3
aI3
aI2
aI0
aI1
aI0
aI3
aI0
aI29
aI12
asS'TA Boult'
p2861
(lp2862
I3
aI4
aI1
aI0
aI0
aI0
aI0
aI0
aI6
aI8
asS'Mitchell Starc'
p2863
(lp2864
I1
aI1
aI1
aI0
aI2
aI0
aI0
aI0
aI11
aI5
asS'Piyush Chawla'
p2865
(lp2866
I1
aI0
aI0
aI0
aI0
aI0
aI0
aI0
aI0
aI1
asS'Amit Mishra'
p2867
(lp2868
I3
aI2
aI1
aI0
aI0
aI0
aI1
aI0
aI10
aI7
asS'Ravindra Jadeja'
p2869
(lp2870
I4
aI4
aI0
aI0
aI2
aI0
aI8
aI0
aI60
aI18
asS'Dwayne Bravo'
p2871
(lp2872
I7
aI18
aI5
aI0
aI3
aI0
aI4
aI0
aI64
aI37
aI2
asS'NM Coulter-Nile'
p2873
(lp2874
I1
aI1
aI1
aI0
aI0
aI0
aI1
aI0
aI9
aI4
asS'Anureet Singh'
p2875
(lp2876
I1
aI2
aI1
aI0
aI0
aI0
aI0
aI0
aI4
aI4
asS'Harshal Patel'
p2877
(lp2878
I2
aI3
aI0
aI0
aI1
aI0
aI1
aI0
aI13
aI7
asS'Sandeep Sharma'
p2879
(lp2880
I0
aI3
aI0
aI0
aI0
aI0
aI0
aI0
aI3
aI3
asS'Sunil Narine'
p2881
(lp2882
I2
aI7
aI1
aI0
aI0
aI0
aI1
aI0
aI15
aI11
asS'PV Tambe'
p2883
(lp2884
I6
aI6
aI4
aI0
aI0
aI0
aI2
aI0
aI26
aI18
asS'S Aravind'
p2885
(lp2886
I1
aI1
aI1
aI0
aI3
aI0
aI0
aI0
aI15
aI6
aI1
asS'KV Sharma'
p2887
(lp2888
I1
aI2
aI0
aI0
aI0
aI0
aI0
aI0
aI2
aI3
asS'Ankit Sharma'
p2889
(lp2890
I0
aI2
aI0
aI0
aI0
aI0
aI0
aI0
aI2
aI2
asS'Bhuvneshwar Kumar'
p2891
(lp2892
I1
aI1
aI0
aI0
aI1
aI0
aI0
aI0
aI5
aI3
aI1
asS'TG Southee'
p2893
(lp2894
I4
aI3
aI0
aI0
aI6
aI0
aI4
aI0
aI51
aI17
aI1
asS'Imran Tahir'
p2895
(lp2896
I2
aI2
aI0
aI0
aI0
aI0
aI2
aI0
aI14
aI6
asS'Pawan Negi'
p2897
(lp2898
I3
aI3
aI0
aI0
aI0
aI0
aI2
aI0
aI15
aI8
asS'Zaheer Khan'
p2899
(lp2900
I0
aI2
aI0
aI0
aI0
aI0
aI0
aI0
aI2
aI2
asS'Mitchell Johnson'
p2901
(lp2902
I5
aI2
aI0
aI0
aI0
aI0
aI0
aI0
aI2
aI7
asS'Yuzvendra Chahal'
p2903
(lp2904
I0
aI4
aI0
aI0
aI0
aI0
aI1
aI0
aI10
aI5
asS'Dhawal Kulkarni'
p2905
(lp2906
I3
aI4
aI0
aI0
aI2
aI0
aI0
aI0
aI12
aI9
asS'UT Yadav'
p2907
(lp2908
I0
aI3
aI1
aI0
aI0
aI0
aI0
aI0
aI5
aI4
asS'Shakib Al Hasan'
p2909
(lp2910
I4
aI2
aI0
aI0
aI0
aI0
aI0
aI0
aI2
aI6
asS'Angelo Mathews'
p2911
(lp2912
I2
aI1
aI0
aI0
aI0
aI0
aI0
aI0
aI1
aI3
asS'Chris Morris'
p2913
(lp2914
I4
aI2
aI0
aI0
aI2
aI0
aI0
aI0
aI10
aI8
asS'Dale Steyn'
p2915
(lp2916
I2
aI2
aI1
aI0
aI1
aI0
aI0
aI0
aI8
aI6
asS'DR Smith'
p2917
(lp2918
I0
aI1
aI0
aI0
aI0
aI0
aI0
aI0
aI1
aI1
asS'Shane Watson'
p2919
(lp2920
I0
aI1
aI1
aI0
aI1
aI0
aI1
aI0
aI13
aI4
asS'J Theron'
p2921
(lp2922
I2
aI2
aI1
aI0
aI1
aI0
aI0
aI0
aI8
aI6
aI1
asS'Shikhar Dhawan'
p2923
(lp2924
I2
aI3
aI0
aI0
aI0
aI0
aI1
aI0
aI9
aI6
asS'Praveen Kumar'
p2925
(lp2926
I0
aI2
aI0
aI0
aI1
aI0
aI1
aI0
aI12
aI4
asS'Ravichandran Ashwin'
p2927
(lp2928
I4
aI0
aI0
aI0
aI2
aI0
aI0
aI0
aI8
aI6
asS'Morne Morkel'
p2929
(lp2930
I4
aI0
aI0
aI0
aI0
aI0
aI0
aI0
aI0
aI4
asS'Andre Russell'
p2931
(lp2932
I5
aI5
aI1
aI0
aI1
aI0
aI0
aI0
aI11
aI12
asS'IC Pandey'
p2933
(lp2934
I0
aI0
aI2
aI0
aI2
aI0
aI0
aI0
aI12
aI4
assS'Shane Watson'
p2935
(dp2936
S'MM Sharma'
p2937
(lp2938
I13
aI9
aI4
aI1
aI4
aI0
aI0
aI0
aI36
aI31
asS'Axar Patel'
p2939
(lp2940
I4
aI6
aI0
aI0
aI0
aI0
aI2
aI0
aI18
aI12
aI1
asS'Ashish Nehra'
p2941
(lp2942
I11
aI11
aI2
aI0
aI3
aI0
aI0
aI0
aI27
aI27
asS'Shivam Sharma'
p2943
(lp2944
I0
aI0
aI0
aI0
aI6
aI0
aI2
aI0
aI36
aI8
asS'Mitchell Starc'
p2945
(lp2946
I5
aI2
aI0
aI0
aI5
aI0
aI0
aI0
aI22
aI12
asS'Harbhajan Singh'
p2947
(lp2948
I0
aI1
aI0
aI0
aI0
aI0
aI0
aI0
aI1
aI1
asS'Angelo Mathews'
p2949
(lp2950
I1
aI0
aI0
aI0
aI1
aI0
aI0
aI0
aI4
aI2
aI1
asS'I Sharma'
p2951
(lp2952
I2
aI0
aI0
aI0
aI0
aI0
aI0
aI0
aI0
aI2
aI1
asS'MJ McClenaghan'
p2953
(lp2954
I2
aI3
aI0
aI0
aI0
aI0
aI1
aI0
aI9
aI6
asS'NM Coulter-Nile'
p2955
(lp2956
I3
aI2
aI0
aI0
aI1
aI0
aI0
aI0
aI6
aI6
asS'Ravindra Jadeja'
p2957
(lp2958
I11
aI13
aI2
aI0
aI0
aI0
aI4
aI0
aI41
aI30
aI2
asS'Dwayne Bravo'
p2959
(lp2960
I2
aI4
aI0
aI0
aI4
aI0
aI2
aI0
aI32
aI12
asS'Anureet Singh'
p2961
(lp2962
I6
aI4
aI0
aI2
aI4
aI0
aI0
aI0
aI26
aI16
asS'Azhar Mahmood'
p2963
(lp2964
I3
aI3
aI0
aI0
aI4
aI0
aI1
aI0
aI25
aI11
asS'Harshal Patel'
p2965
(lp2966
I1
aI1
aI0
aI0
aI0
aI0
aI0
aI0
aI1
aI2
asS'Sandeep Sharma'
p2967
(lp2968
I16
aI4
aI0
aI0
aI0
aI0
aI0
aI0
aI4
aI20
asS'S Aravind'
p2969
(lp2970
I1
aI1
aI0
aI0
aI0
aI0
aI0
aI0
aI1
aI2
aI1
asS'Bhuvneshwar Kumar'
p2971
(lp2972
I2
aI0
aI0
aI0
aI2
aI0
aI0
aI0
aI8
aI4
asS'Pawan Negi'
p2973
(lp2974
I1
aI4
aI0
aI0
aI1
aI0
aI0
aI0
aI8
aI6
asS'Iqbal Abdulla'
p2975
(lp2976
I5
aI2
aI0
aI0
aI0
aI0
aI0
aI0
aI2
aI7
asS'Zaheer Khan'
p2977
(lp2978
I12
aI0
aI1
aI0
aI2
aI0
aI0
aI0
aI10
aI15
asS'Mitchell Johnson'
p2979
(lp2980
I8
aI6
aI0
aI0
aI0
aI0
aI0
aI0
aI6
aI14
asS'Yuzvendra Chahal'
p2981
(lp2982
I2
aI0
aI0
aI0
aI1
aI0
aI1
aI0
aI10
aI4
aI1
asS'J Suchith'
p2983
(lp2984
I8
aI1
aI0
aI0
aI1
aI0
aI1
aI0
aI11
aI11
aI1
asS'UT Yadav'
p2985
(lp2986
I1
aI8
aI1
aI0
aI3
aI0
aI0
aI0
aI22
aI13
asS'Shakib Al Hasan'
p2987
(lp2988
I4
aI4
aI2
aI0
aI2
aI0
aI2
aI0
aI28
aI14
asS'Lasith Malinga'
p2989
(lp2990
I0
aI1
aI0
aI0
aI0
aI0
aI0
aI0
aI1
aI1
asS'GS Sandhu'
p2991
(lp2992
I0
aI1
aI0
aI0
aI0
aI0
aI0
aI0
aI1
aI1
asS'R Vinay Kumar'
p2993
(lp2994
I1
aI2
aI0
aI0
aI1
aI0
aI0
aI0
aI6
aI4
asS'Praveen Kumar'
p2995
(lp2996
I5
aI0
aI0
aI0
aI1
aI0
aI0
aI0
aI4
aI6
asS'Ravichandran Ashwin'
p2997
(lp2998
I0
aI8
aI0
aI0
aI0
aI0
aI2
aI0
aI20
aI10
asS'Morne Morkel'
p2999
(lp3000
I2
aI5
aI1
aI0
aI0
aI0
aI1
aI0
aI13
aI9
asS'Andre Russell'
p3001
(lp3002
I2
aI6
aI1
aI0
aI0
aI0
aI0
aI0
aI8
aI9
asS'IC Pandey'
p3003
(lp3004
I4
aI2
aI0
aI0
aI2
aI0
aI0
aI0
aI10
aI8
asS'Piyush Chawla'
p3005
(lp3006
I0
aI2
aI0
aI0
aI0
aI0
aI1
aI0
aI8
aI3
assS'Angelo Mathews'
p3007
(dp3008
S'Axar Patel'
p3009
(lp3010
I2
aI2
aI0
aI0
aI2
aI0
aI0
aI0
aI10
aI6
asS'James Faulkner'
p3011
(lp3012
I5
aI2
aI3
aI0
aI2
aI0
aI1
aI0
aI22
aI13
asS'Harbhajan Singh'
p3013
(lp3014
I0
aI1
aI0
aI0
aI0
aI0
aI0
aI0
aI1
aI1
asS'Lasith Malinga'
p3015
(lp3016
I0
aI1
aI0
aI0
aI1
aI0
aI0
aI0
aI5
aI2
asS'Rajat Bhatia'
p3017
(lp3018
I0
aI1
aI0
aI0
aI0
aI0
aI0
aI0
aI1
aI1
asS'MJ McClenaghan'
p3019
(lp3020
I2
aI2
aI2
aI0
aI2
aI0
aI0
aI0
aI14
aI8
aI1
asS'Brad Hogg'
p3021
(lp3022
I0
aI1
aI1
aI0
aI0
aI0
aI1
aI0
aI9
aI3
asS'Anureet Singh'
p3023
(lp3024
I0
aI2
aI0
aI0
aI0
aI0
aI0
aI0
aI2
aI2
asS'Sunil Narine'
p3025
(lp3026
I2
aI5
aI2
aI0
aI2
aI0
aI4
aI0
aI41
aI15
asS'Harshal Patel'
p3027
(lp3028
I2
aI1
aI0
aI0
aI0
aI0
aI0
aI0
aI1
aI3
asS'A Ashish Reddy'
p3029
(lp3030
I0
aI4
aI0
aI0
aI0
aI0
aI0
aI0
aI4
aI4
asS'Bhuvneshwar Kumar'
p3031
(lp3032
I2
aI10
aI0
aI0
aI0
aI0
aI0
aI0
aI10
aI12
asS'TG Southee'
p3033
(lp3034
I0
aI3
aI0
aI0
aI1
aI0
aI0
aI0
aI7
aI4
asS'HH Pandya'
p3035
(lp3036
I2
aI1
aI0
aI0
aI0
aI0
aI1
aI0
aI7
aI4
aI1
asS'J Suchith'
p3037
(lp3038
I1
aI2
aI0
aI0
aI0
aI0
aI0
aI0
aI2
aI3
asS'UT Yadav'
p3039
(lp3040
I7
aI9
aI0
aI0
aI0
aI0
aI0
aI0
aI9
aI16
aI1
asS'Stuart Binny'
p3041
(lp3042
I2
aI0
aI0
aI0
aI1
aI0
aI0
aI0
aI4
aI3
aI1
asS'Chris Morris'
p3043
(lp3044
I1
aI3
aI0
aI0
aI0
aI0
aI0
aI0
aI3
aI4
asS'Shane Watson'
p3045
(lp3046
I4
aI0
aI1
aI0
aI1
aI0
aI0
aI0
aI6
aI6
asS'Varun Aaron'
p3047
(lp3048
I1
aI0
aI0
aI0
aI0
aI0
aI0
aI0
aI0
aI1
aI1
asS'Praveen Kumar'
p3049
(lp3050
I0
aI4
aI0
aI0
aI0
aI0
aI2
aI0
aI16
aI6
asS'Morne Morkel'
p3051
(lp3052
I0
aI2
aI0
aI0
aI0
aI0
aI0
aI0
aI2
aI2
asS'Andre Russell'
p3053
(lp3054
I10
aI3
aI0
aI0
aI1
aI0
aI0
aI0
aI7
aI14
aI1
asS'Piyush Chawla'
p3055
(lp3056
I0
aI6
aI0
aI0
aI1
aI0
aI0
aI0
aI10
aI7
assS'MM Sharma'
p3057
(dp3058
S'Andre Russell'
p3059
(lp3060
I1
aI0
aI0
aI0
aI0
aI0
aI0
aI0
aI0
aI1
asS'D Wiese'
p3061
(lp3062
I0
aI4
aI0
aI0
aI0
aI0
aI0
aI0
aI4
aI4
asS'Mitchell Starc'
p3063
(lp3064
I8
aI0
aI0
aI0
aI0
aI0
aI0
aI0
aI0
aI8
asS'R Vinay Kumar'
p3065
(lp3066
I0
aI0
aI2
aI0
aI1
aI0
aI2
aI0
aI20
aI5
asS'MJ McClenaghan'
p3067
(lp3068
I1
aI2
aI0
aI0
aI0
aI0
aI0
aI0
aI2
aI3
asS'Lasith Malinga'
p3069
(lp3070
I0
aI2
aI0
aI0
aI0
aI0
aI0
aI0
aI2
aI2
asS'NM Coulter-Nile'
p3071
(lp3072
I0
aI0
aI1
aI0
aI0
aI0
aI0
aI0
aI2
aI1
assS'Sarfaraz Khan'
p3073
(dp3074
S'Pawan Negi'
p3075
(lp3076
I2
aI1
aI1
aI0
aI0
aI0
aI0
aI0
aI3
aI4
asS'Dwayne Bravo'
p3077
(lp3078
I2
aI4
aI1
aI0
aI2
aI0
aI0
aI0
aI14
aI9
aI1
asS'Anureet Singh'
p3079
(lp3080
I2
aI4
aI0
aI0
aI1
aI0
aI0
aI0
aI8
aI7
aI1
asS'Axar Patel'
p3081
(lp3082
I0
aI4
aI0
aI0
aI0
aI0
aI0
aI0
aI4
aI4
asS'James Faulkner'
p3083
(lp3084
I0
aI2
aI0
aI0
aI1
aI0
aI0
aI0
aI6
aI3
asS'Ashish Nehra'
p3085
(lp3086
I3
aI3
aI0
aI0
aI0
aI0
aI0
aI0
aI3
aI6
aI1
asS'Suresh Raina'
p3087
(lp3088
I0
aI1
aI0
aI0
aI0
aI0
aI0
aI0
aI1
aI1
asS'MM Sharma'
p3089
(lp3090
I1
aI2
aI0
aI0
aI1
aI0
aI0
aI0
aI6
aI4
asS'Sandeep Sharma'
p3091
(lp3092
I0
aI1
aI1
aI0
aI0
aI0
aI0
aI0
aI3
aI2
asS'IC Pandey'
p3093
(lp3094
I0
aI4
aI0
aI0
aI0
aI0
aI0
aI0
aI4
aI4
asS'Dhawal Kulkarni'
p3095
(lp3096
I0
aI0
aI0
aI0
aI1
aI0
aI0
aI0
aI4
aI1
asS'PV Tambe'
p3097
(lp3098
I0
aI3
aI1
aI0
aI2
aI0
aI1
aI0
aI19
aI7
asS'Stuart Binny'
p3099
(lp3100
I1
aI0
aI0
aI0
aI0
aI0
aI0
aI0
aI0
aI1
asS'Shane Watson'
p3101
(lp3102
I0
aI3
aI0
aI0
aI2
aI0
aI0
aI0
aI11
aI5
asS'Chris Morris'
p3103
(lp3104
I0
aI1
aI0
aI0
aI0
aI0
aI0
aI0
aI1
aI1
asS'TG Southee'
p3105
(lp3106
I1
aI1
aI2
aI0
aI0
aI0
aI0
aI0
aI5
aI4
asS'Ravindra Jadeja'
p3107
(lp3108
I5
aI2
aI4
aI0
aI2
aI0
aI2
aI0
aI30
aI15
aI2
assS'AJ Finch'
p3109
(dp3110
S'Anureet Singh'
p3111
(lp3112
I3
aI0
aI1
aI0
aI1
aI0
aI0
aI0
aI6
aI5
asS'Mitchell Johnson'
p3113
(lp3114
I2
aI0
aI0
aI0
aI0
aI0
aI0
aI0
aI0
aI2
asS'Sandeep Sharma'
p3115
(lp3116
I5
aI2
aI0
aI0
aI0
aI0
aI0
aI0
aI2
aI7
asS'Dhawal Kulkarni'
p3117
(lp3118
I8
aI0
aI0
aI0
aI0
aI0
aI0
aI0
aI0
aI8
asS'UT Yadav'
p3119
(lp3120
I1
aI1
aI0
aI0
aI0
aI0
aI0
aI0
aI1
aI2
asS'Stuart Binny'
p3121
(lp3122
I2
aI2
aI0
aI0
aI0
aI0
aI0
aI0
aI2
aI4
asS'Morne Morkel'
p3123
(lp3124
I2
aI0
aI0
aI0
aI1
aI0
aI0
aI0
aI4
aI3
asS'Chris Morris'
p3125
(lp3126
I4
aI0
aI0
aI0
aI2
aI0
aI0
aI0
aI8
aI6
asS'TG Southee'
p3127
(lp3128
I6
aI2
aI0
aI0
aI2
aI0
aI0
aI0
aI10
aI10
assS'RS Bopara'
p3129
(dp3130
S'Albie Morkel'
p3131
(lp3132
I0
aI3
aI2
aI0
aI1
aI0
aI0
aI0
aI11
aI6
asS'James Faulkner'
p3133
(lp3134
I3
aI2
aI0
aI0
aI2
aI0
aI0
aI0
aI10
aI7
asS'Harbhajan Singh'
p3135
(lp3136
I4
aI3
aI1
aI0
aI0
aI0
aI0
aI0
aI5
aI8
asS'Lasith Malinga'
p3137
(lp3138
I1
aI2
aI1
aI0
aI0
aI0
aI0
aI0
aI4
aI4
asS'MJ McClenaghan'
p3139
(lp3140
I3
aI3
aI1
aI0
aI0
aI0
aI0
aI0
aI5
aI7
asS'Amit Mishra'
p3141
(lp3142
I4
aI9
aI1
aI0
aI0
aI0
aI0
aI0
aI11
aI14
asS'Ravindra Jadeja'
p3143
(lp3144
I0
aI1
aI0
aI0
aI0
aI0
aI2
aI0
aI13
aI3
asS'Dwayne Bravo'
p3145
(lp3146
I1
aI1
aI0
aI0
aI0
aI0
aI0
aI0
aI1
aI2
asS'NM Coulter-Nile'
p3147
(lp3148
I6
aI0
aI0
aI0
aI2
aI0
aI2
aI0
aI20
aI10
asS'Sunil Narine'
p3149
(lp3150
I0
aI2
aI0
aI0
aI0
aI0
aI0
aI0
aI2
aI2
asS'PV Tambe'
p3151
(lp3152
I6
aI8
aI2
aI0
aI0
aI0
aI2
aI0
aI24
aI18
asS'Ravichandran Ashwin'
p3153
(lp3154
I3
aI2
aI0
aI0
aI0
aI0
aI0
aI0
aI2
aI5
asS'Jean-Paul Duminy'
p3155
(lp3156
I2
aI7
aI0
aI0
aI0
aI0
aI2
aI0
aI19
aI11
asS'TG Southee'
p3157
(lp3158
I0
aI4
aI0
aI0
aI0
aI0
aI0
aI0
aI4
aI4
asS'Imran Tahir'
p3159
(lp3160
I4
aI10
aI0
aI2
aI0
aI0
aI2
aI0
aI28
aI18
asS'Zaheer Khan'
p3161
(lp3162
I0
aI2
aI0
aI0
aI0
aI0
aI0
aI0
aI2
aI2
asS'Mitchell Johnson'
p3163
(lp3164
I2
aI0
aI0
aI0
aI0
aI0
aI0
aI0
aI0
aI2
asS'J Suchith'
p3165
(lp3166
I0
aI3
aI0
aI0
aI1
aI0
aI0
aI0
aI7
aI4
asS'Angelo Mathews'
p3167
(lp3168
I2
aI4
aI0
aI0
aI0
aI0
aI0
aI0
aI4
aI6
asS'Chris Morris'
p3169
(lp3170
I6
aI6
aI0
aI0
aI2
aI0
aI0
aI0
aI14
aI14
asS'Shane Watson'
p3171
(lp3172
I0
aI0
aI0
aI1
aI0
aI0
aI0
aI0
aI3
aI1
asS'R Vinay Kumar'
p3173
(lp3174
I2
aI2
aI0
aI0
aI0
aI0
aI0
aI0
aI2
aI4
asS'Yuvraj Singh'
p3175
(lp3176
I0
aI4
aI0
aI0
aI0
aI0
aI0
aI0
aI4
aI4
asS'DJ Hooda'
p3177
(lp3178
I0
aI4
aI2
aI0
aI0
aI0
aI0
aI0
aI8
aI6
asS'Morne Morkel'
p3179
(lp3180
I4
aI2
aI0
aI0
aI0
aI0
aI0
aI0
aI2
aI6
asS'IC Pandey'
p3181
(lp3182
I1
aI2
aI2
aI0
aI0
aI0
aI0
aI0
aI6
aI5
assS'Shakib Al Hasan'
p3183
(dp3184
S'Shane Watson'
p3185
(lp3186
I0
aI1
aI0
aI0
aI0
aI0
aI0
aI0
aI1
aI1
asS'James Faulkner'
p3187
(lp3188
I1
aI3
aI0
aI0
aI0
aI0
aI0
aI0
aI3
aI4
asS'R Vinay Kumar'
p3189
(lp3190
I1
aI0
aI1
aI0
aI0
aI0
aI0
aI0
aI2
aI2
asS'Dhawal Kulkarni'
p3191
(lp3192
I0
aI1
aI0
aI0
aI2
aI0
aI0
aI0
aI9
aI3
asS'MJ McClenaghan'
p3193
(lp3194
I1
aI2
aI0
aI0
aI1
aI0
aI0
aI0
aI6
aI4
asS'Varun Aaron'
p3195
(lp3196
I1
aI0
aI0
aI0
aI0
aI0
aI0
aI0
aI0
aI1
asS'HH Pandya'
p3197
(lp3198
I1
aI1
aI2
aI0
aI1
aI0
aI0
aI0
aI9
aI5
asS'Chris Morris'
p3199
(lp3200
I3
aI0
aI0
aI0
aI0
aI0
aI0
aI0
aI0
aI3
asS'Harbhajan Singh'
p3201
(lp3202
I1
aI2
aI0
aI0
aI1
aI0
aI0
aI0
aI6
aI4
assS'Shikhar Dhawan'
p3203
(dp3204
S'Pawan Negi'
p3205
(lp3206
I4
aI0
aI1
aI0
aI1
aI0
aI0
aI0
aI6
aI6
asS'Dwayne Bravo'
p3207
(lp3208
I0
aI4
aI0
aI0
aI0
aI0
aI1
aI0
aI10
aI5
asS'Ashish Nehra'
p3209
(lp3210
I2
aI1
aI0
aI0
aI0
aI0
aI1
aI0
aI7
aI4
asS'Suresh Raina'
p3211
(lp3212
I2
aI1
aI0
aI0
aI0
aI0
aI0
aI0
aI1
aI3
asS'TA Boult'
p3213
(lp3214
I1
aI1
aI1
aI0
aI0
aI0
aI0
aI0
aI3
aI3
asS'Mitchell Starc'
p3215
(lp3216
I0
aI1
aI0
aI0
aI0
aI0
aI0
aI0
aI1
aI1
asS'J Suchith'
p3217
(lp3218
I2
aI1
aI0
aI0
aI0
aI0
aI0
aI0
aI1
aI3
asS'Lasith Malinga'
p3219
(lp3220
I1
aI1
aI0
aI0
aI1
aI0
aI0
aI0
aI5
aI3
aI1
asS'Bhuvneshwar Kumar'
p3221
(lp3222
I2
aI1
aI0
aI0
aI0
aI0
aI0
aI0
aI1
aI3
aI1
asS'Ravindra Jadeja'
p3223
(lp3224
I1
aI1
aI0
aI0
aI0
aI0
aI0
aI0
aI1
aI2
assS'Yuvraj Singh'
p3225
(dp3226
S'MM Sharma'
p3227
(lp3228
I0
aI1
aI2
aI0
aI1
aI0
aI0
aI0
aI9
aI4
asS'YK Pathan'
p3229
(lp3230
I0
aI4
aI0
aI0
aI0
aI0
aI0
aI0
aI4
aI4
asS'D Wiese'
p3231
(lp3232
I3
aI2
aI2
aI0
aI0
aI0
aI0
aI0
aI6
aI7
asS'James Faulkner'
p3233
(lp3234
I3
aI5
aI1
aI0
aI0
aI0
aI2
aI0
aI19
aI11
asS'Harbhajan Singh'
p3235
(lp3236
I8
aI3
aI1
aI0
aI0
aI0
aI0
aI0
aI5
aI12
asS'Lasith Malinga'
p3237
(lp3238
I6
aI4
aI0
aI0
aI5
aI0
aI0
aI0
aI24
aI15
aI1
asS'Piyush Chawla'
p3239
(lp3240
I13
aI6
aI0
aI0
aI4
aI0
aI0
aI0
aI22
aI23
aI2
asS'MJ McClenaghan'
p3241
(lp3242
I1
aI5
aI0
aI0
aI0
aI0
aI2
aI0
aI17
aI8
asS'Ravindra Jadeja'
p3243
(lp3244
I4
aI3
aI0
aI0
aI1
aI0
aI0
aI0
aI7
aI8
aI1
asS'Axar Patel'
p3245
(lp3246
I8
aI4
aI2
aI0
aI0
aI0
aI4
aI0
aI32
aI18
asS'Dwayne Bravo'
p3247
(lp3248
I2
aI0
aI0
aI0
aI0
aI0
aI0
aI0
aI0
aI2
aI1
asS'Anureet Singh'
p3249
(lp3250
I4
aI2
aI0
aI0
aI0
aI0
aI2
aI0
aI14
aI8
aI1
asS'Sunil Narine'
p3251
(lp3252
I4
aI2
aI0
aI0
aI0
aI0
aI0
aI0
aI2
aI6
asS'TG Southee'
p3253
(lp3254
I0
aI2
aI1
aI0
aI0
aI0
aI0
aI0
aI4
aI3
asS'Sandeep Sharma'
p3255
(lp3256
I8
aI2
aI0
aI0
aI2
aI0
aI0
aI0
aI10
aI12
asS'A Ashish Reddy'
p3257
(lp3258
I2
aI0
aI0
aI0
aI0
aI0
aI0
aI0
aI0
aI2
aI1
asS'Parvez Rasool'
p3259
(lp3260
I3
aI1
aI0
aI0
aI0
aI0
aI0
aI0
aI1
aI4
aI1
asS'KV Sharma'
p3261
(lp3262
I2
aI1
aI0
aI0
aI0
aI0
aI0
aI0
aI1
aI3
asS'Glenn Maxwell'
p3263
(lp3264
I0
aI4
aI0
aI0
aI0
aI0
aI0
aI0
aI4
aI4
asS'RS Bopara'
p3265
(lp3266
I2
aI6
aI0
aI0
aI0
aI0
aI0
aI0
aI6
aI8
asS'Jasprit Bumrah'
p3267
(lp3268
I1
aI0
aI0
aI0
aI0
aI0
aI0
aI0
aI0
aI1
asS'Pawan Negi'
p3269
(lp3270
I1
aI2
aI0
aI0
aI1
aI0
aI0
aI0
aI6
aI4
asS'Mitchell Johnson'
p3271
(lp3272
I8
aI6
aI0
aI0
aI6
aI0
aI0
aI0
aI30
aI20
asS'Yuzvendra Chahal'
p3273
(lp3274
I2
aI1
aI0
aI0
aI0
aI0
aI1
aI0
aI7
aI4
asS'J Suchith'
p3275
(lp3276
I0
aI3
aI0
aI0
aI1
aI0
aI0
aI0
aI7
aI4
asS'Dhawal Kulkarni'
p3277
(lp3278
I1
aI1
aI0
aI0
aI3
aI0
aI0
aI0
aI13
aI5
asS'Dale Steyn'
p3279
(lp3280
I6
aI6
aI2
aI0
aI0
aI0
aI0
aI0
aI10
aI14
asS'HH Pandya'
p3281
(lp3282
I5
aI2
aI0
aI0
aI1
aI0
aI0
aI0
aI6
aI8
asS'Chris Morris'
p3283
(lp3284
I1
aI1
aI0
aI0
aI0
aI0
aI0
aI0
aI1
aI2
asS'Shane Watson'
p3285
(lp3286
I4
aI2
aI0
aI0
aI1
aI0
aI0
aI0
aI6
aI7
asS'Suresh Raina'
p3287
(lp3288
I0
aI2
aI0
aI0
aI0
aI0
aI0
aI0
aI2
aI2
asS'Shikhar Dhawan'
p3289
(lp3290
I6
aI6
aI2
aI0
aI2
aI0
aI0
aI0
aI18
aI16
asS'Varun Aaron'
p3291
(lp3292
I1
aI0
aI0
aI0
aI0
aI0
aI0
aI0
aI0
aI1
aI1
asS'Praveen Kumar'
p3293
(lp3294
I0
aI2
aI0
aI0
aI0
aI0
aI0
aI0
aI2
aI2
asS'Ravichandran Ashwin'
p3295
(lp3296
I3
aI2
aI0
aI0
aI0
aI0
aI1
aI0
aI8
aI6
asS'DJ Hooda'
p3297
(lp3298
I2
aI4
aI1
aI0
aI0
aI0
aI0
aI0
aI6
aI7
asS'Morne Morkel'
p3299
(lp3300
I4
aI2
aI0
aI0
aI0
aI0
aI2
aI0
aI14
aI8
asS'IC Pandey'
p3301
(lp3302
I5
aI1
aI0
aI0
aI2
aI0
aI0
aI0
aI9
aI8
assS'MS Dhoni'
p3303
(dp3304
S'Albie Morkel'
p3305
(lp3306
I2
aI3
aI0
aI0
aI1
aI0
aI0
aI0
aI7
aI6
asS'Axar Patel'
p3307
(lp3308
I2
aI2
aI1
aI0
aI0
aI0
aI1
aI0
aI10
aI6
asS'D Wiese'
p3309
(lp3310
I3
aI7
aI2
aI0
aI2
aI0
aI0
aI0
aI19
aI14
aI1
asS'James Faulkner'
p3311
(lp3312
I9
aI8
aI0
aI0
aI3
aI0
aI1
aI0
aI26
aI21
asS'BE Hendricks'
p3313
(lp3314
I3
aI1
aI0
aI0
aI1
aI0
aI0
aI0
aI5
aI5
asS'TA Boult'
p3315
(lp3316
I5
aI3
aI1
aI0
aI2
aI0
aI0
aI0
aI13
aI11
aI1
asS'Mitchell Starc'
p3317
(lp3318
I2
aI5
aI2
aI0
aI2
aI0
aI0
aI0
aI17
aI11
asS'Harbhajan Singh'
p3319
(lp3320
I3
aI6
aI0
aI0
aI1
aI0
aI1
aI0
aI16
aI11
aI1
asS'Moises Henriques'
p3321
(lp3322
I1
aI2
aI1
aI0
aI0
aI0
aI0
aI0
aI4
aI4
asS'Stuart Binny'
p3323
(lp3324
I8
aI2
aI0
aI0
aI2
aI0
aI0
aI0
aI10
aI12
asS'Piyush Chawla'
p3325
(lp3326
I2
aI3
aI0
aI0
aI0
aI0
aI0
aI0
aI3
aI5
aI1
asS'MJ McClenaghan'
p3327
(lp3328
I3
aI4
aI0
aI0
aI1
aI0
aI0
aI0
aI8
aI8
asS'Karanveer Singh'
p3329
(lp3330
I2
aI2
aI4
aI0
aI0
aI0
aI1
aI0
aI16
aI9
asS'NM Coulter-Nile'
p3331
(lp3332
I6
aI1
aI0
aI0
aI0
aI0
aI2
aI0
aI13
aI9
aI1
asS'Amit Mishra'
p3333
(lp3334
I1
aI2
aI0
aI0
aI0
aI0
aI0
aI0
aI2
aI3
asS'Anureet Singh'
p3335
(lp3336
I3
aI5
aI2
aI0
aI1
aI0
aI2
aI0
aI25
aI13
asS'Kieron Pollard'
p3337
(lp3338
I2
aI2
aI0
aI0
aI0
aI0
aI0
aI0
aI2
aI4
aI1
asS'Harshal Patel'
p3339
(lp3340
I7
aI6
aI2
aI0
aI2
aI0
aI0
aI0
aI18
aI17
asS'Sandeep Sharma'
p3341
(lp3342
I2
aI2
aI0
aI0
aI0
aI0
aI0
aI0
aI2
aI4
asS'Brad Hogg'
p3343
(lp3344
I1
aI0
aI0
aI0
aI0
aI0
aI0
aI0
aI0
aI1
asS'A Ashish Reddy'
p3345
(lp3346
I2
aI1
aI1
aI0
aI0
aI0
aI0
aI0
aI3
aI4
asS'PV Tambe'
p3347
(lp3348
I4
aI6
aI0
aI0
aI0
aI0
aI0
aI0
aI6
aI10
asS'S Aravind'
p3349
(lp3350
I0
aI1
aI0
aI0
aI0
aI0
aI0
aI0
aI1
aI1
asS'KV Sharma'
p3351
(lp3352
I2
aI2
aI0
aI0
aI1
aI0
aI3
aI0
aI24
aI8
asS'Bhuvneshwar Kumar'
p3353
(lp3354
I1
aI2
aI1
aI0
aI0
aI0
aI1
aI0
aI10
aI5
asS'Jean-Paul Duminy'
p3355
(lp3356
I0
aI1
aI1
aI0
aI0
aI0
aI0
aI0
aI3
aI2
asS'M de Lange'
p3357
(lp3358
I1
aI2
aI0
aI0
aI1
aI0
aI0
aI0
aI6
aI4
asS'Imran Tahir'
p3359
(lp3360
I2
aI4
aI1
aI0
aI0
aI0
aI0
aI0
aI6
aI7
asS'Iqbal Abdulla'
p3361
(lp3362
I10
aI3
aI0
aI0
aI1
aI0
aI1
aI0
aI13
aI15
asS'Zaheer Khan'
p3363
(lp3364
I1
aI0
aI0
aI0
aI0
aI0
aI0
aI0
aI0
aI1
aI1
asS'Mitchell Johnson'
p3365
(lp3366
I1
aI0
aI0
aI0
aI2
aI0
aI0
aI0
aI8
aI3
asS'Yuzvendra Chahal'
p3367
(lp3368
I7
aI7
aI0
aI0
aI0
aI0
aI1
aI0
aI13
aI15
aI1
asS'J Suchith'
p3369
(lp3370
I4
aI3
aI1
aI0
aI0
aI0
aI0
aI0
aI5
aI8
asS'J Yadav'
p3371
(lp3372
I6
aI1
aI0
aI0
aI1
aI0
aI0
aI0
aI5
aI8
asS'RS Bopara'
p3373
(lp3374
I3
aI5
aI0
aI0
aI3
aI0
aI0
aI0
aI17
aI11
asS'HH Pandya'
p3375
(lp3376
I4
aI3
aI1
aI0
aI0
aI0
aI0
aI0
aI5
aI8
asS'Chris Morris'
p3377
(lp3378
I9
aI5
aI2
aI0
aI2
aI0
aI0
aI0
aI17
aI18
asS'Lasith Malinga'
p3379
(lp3380
I5
aI3
aI1
aI0
aI0
aI0
aI1
aI0
aI11
aI10
asS'DJ Muthuswami'
p3381
(lp3382
I2
aI1
aI0
aI0
aI0
aI0
aI0
aI0
aI1
aI3
asS'Shane Watson'
p3383
(lp3384
I8
aI4
aI0
aI0
aI2
aI0
aI0
aI0
aI12
aI14
asS'Shikhar Dhawan'
p3385
(lp3386
I3
aI0
aI0
aI0
aI0
aI0
aI0
aI0
aI0
aI3
asS'GS Sandhu'
p3387
(lp3388
I1
aI2
aI0
aI0
aI1
aI0
aI0
aI0
aI6
aI4
asS'R Vinay Kumar'
p3389
(lp3390
I0
aI4
aI0
aI0
aI0
aI0
aI1
aI0
aI10
aI5
asS'Praveen Kumar'
p3391
(lp3392
I0
aI2
aI0
aI0
aI0
aI0
aI0
aI0
aI2
aI2
asS'Yuvraj Singh'
p3393
(lp3394
I3
aI2
aI1
aI0
aI1
aI0
aI1
aI0
aI14
aI8
asS'DJ Hooda'
p3395
(lp3396
I2
aI4
aI0
aI0
aI0
aI0
aI0
aI0
aI4
aI6
asS'Andre Russell'
p3397
(lp3398
I3
aI1
aI0
aI0
aI0
aI0
aI0
aI0
aI1
aI4
assS'Quinton de Kock'
p3399
(dp3400
S'MM Sharma'
p3401
(lp3402
I1
aI1
aI0
aI0
aI0
aI0
aI0
aI0
aI1
aI2
asS'D Wiese'
p3403
(lp3404
I0
aI3
aI0
aI0
aI3
aI0
aI1
aI0
aI21
aI7
asS'Chris Gayle'
p3405
(lp3406
I3
aI3
aI0
aI0
aI0
aI0
aI0
aI0
aI3
aI6
asS'IC Pandey'
p3407
(lp3408
I3
aI2
aI0
aI0
aI0
aI0
aI0
aI0
aI2
aI5
asS'Harshal Patel'
p3409
(lp3410
I3
aI3
aI0
aI0
aI2
aI0
aI0
aI0
aI11
aI8
asS'Yuzvendra Chahal'
p3411
(lp3412
I1
aI0
aI0
aI0
aI0
aI0
aI0
aI0
aI0
aI1
asS'Mitchell Starc'
p3413
(lp3414
I3
aI2
aI0
aI0
aI1
aI0
aI0
aI0
aI6
aI6
asS'AB Dinda'
p3415
(lp3416
I2
aI4
aI0
aI0
aI3
aI0
aI2
aI0
aI28
aI11
asS'Praveen Kumar'
p3417
(lp3418
I2
aI0
aI0
aI0
aI3
aI0
aI0
aI0
aI12
aI5
asS'I Sharma'
p3419
(lp3420
I6
aI0
aI0
aI0
aI4
aI0
aI1
aI0
aI22
aI11
asS'KV Sharma'
p3421
(lp3422
I2
aI0
aI0
aI0
aI0
aI0
aI0
aI0
aI0
aI2
asS'Bhuvneshwar Kumar'
p3423
(lp3424
I1
aI2
aI0
aI0
aI1
aI0
aI0
aI0
aI6
aI4
asS'Moises Henriques'
p3425
(lp3426
I1
aI1
aI0
aI0
aI1
aI0
aI0
aI0
aI5
aI3
asS'Parvez Rasool'
p3427
(lp3428
I2
aI3
aI1
aI0
aI0
aI0
aI0
aI0
aI5
aI6
assS'Gurkeerat Singh'
p3429
(dp3430
S'Andre Russell'
p3431
(lp3432
I1
aI0
aI0
aI0
aI0
aI0
aI0
aI0
aI0
aI1
asS'Ashish Nehra'
p3433
(lp3434
I3
aI1
aI0
aI0
aI1
aI0
aI0
aI0
aI5
aI5
asS'IC Pandey'
p3435
(lp3436
I2
aI1
aI0
aI0
aI1
aI0
aI0
aI0
aI5
aI4
asS'Yuzvendra Chahal'
p3437
(lp3438
I0
aI1
aI0
aI0
aI0
aI0
aI0
aI0
aI1
aI1
asS'Mitchell Starc'
p3439
(lp3440
I1
aI1
aI0
aI0
aI0
aI0
aI0
aI0
aI1
aI2
asS'UT Yadav'
p3441
(lp3442
I2
aI4
aI0
aI0
aI0
aI0
aI0
aI0
aI4
aI6
asS'Sunil Narine'
p3443
(lp3444
I4
aI2
aI0
aI0
aI0
aI0
aI0
aI0
aI2
aI6
asS'Ravichandran Ashwin'
p3445
(lp3446
I3
aI1
aI0
aI0
aI1
aI0
aI0
aI0
aI5
aI5
asS'Piyush Chawla'
p3447
(lp3448
I2
aI6
aI0
aI0
aI0
aI0
aI2
aI0
aI18
aI10
asS'KV Sharma'
p3449
(lp3450
I0
aI2
aI0
aI0
aI0
aI0
aI0
aI0
aI2
aI2
asS'Brad Hogg'
p3451
(lp3452
I2
aI2
aI0
aI0
aI0
aI0
aI0
aI0
aI2
aI4
asS'Moises Henriques'
p3453
(lp3454
I2
aI1
aI0
aI0
aI0
aI0
aI0
aI0
aI1
aI3
assS'Virender Sehwag'
p3455
(dp3456
S'Imran Tahir'
p3457
(lp3458
I0
aI2
aI0
aI0
aI4
aI0
aI2
aI0
aI30
aI8
asS'Amit Mishra'
p3459
(lp3460
I4
aI12
aI0
aI0
aI0
aI0
aI0
aI0
aI12
aI16
asS'Zaheer Khan'
p3461
(lp3462
I1
aI1
aI0
aI0
aI0
aI0
aI0
aI0
aI1
aI2
asS'IC Pandey'
p3463
(lp3464
I1
aI1
aI0
aI0
aI0
aI0
aI0
aI0
aI1
aI2
asS'DJ Muthuswami'
p3465
(lp3466
I0
aI6
aI0
aI0
aI0
aI0
aI0
aI0
aI6
aI6
asS'R Vinay Kumar'
p3467
(lp3468
I0
aI2
aI0
aI0
aI2
aI0
aI1
aI0
aI16
aI5
asS'Harbhajan Singh'
p3469
(lp3470
I1
aI1
aI0
aI0
aI0
aI0
aI0
aI0
aI1
aI2
asS'Angelo Mathews'
p3471
(lp3472
I6
aI10
aI0
aI0
aI2
aI0
aI0
aI0
aI18
aI18
asS'Stuart Binny'
p3473
(lp3474
I6
aI2
aI0
aI0
aI0
aI0
aI0
aI0
aI2
aI8
asS'Andre Russell'
p3475
(lp3476
I2
aI0
aI0
aI0
aI2
aI0
aI0
aI0
aI8
aI4
asS'Yuvraj Singh'
p3477
(lp3478
I0
aI4
aI0
aI0
aI0
aI0
aI0
aI0
aI4
aI4
asS'MJ McClenaghan'
p3479
(lp3480
I2
aI2
aI0
aI0
aI0
aI0
aI0
aI0
aI2
aI4
asS'P Suyal'
p3481
(lp3482
I4
aI2
aI0
aI0
aI2
aI0
aI0
aI0
aI10
aI8
asS'Lasith Malinga'
p3483
(lp3484
I2
aI1
aI0
aI0
aI2
aI0
aI0
aI0
aI9
aI5
asS'Morne Morkel'
p3485
(lp3486
I8
aI6
aI0
aI0
aI2
aI0
aI0
aI0
aI14
aI16
asS'Jean-Paul Duminy'
p3487
(lp3488
I4
aI2
aI0
aI0
aI0
aI0
aI2
aI0
aI14
aI8
asS'TG Southee'
p3489
(lp3490
I1
aI0
aI0
aI0
aI0
aI0
aI0
aI0
aI0
aI1
asS'NM Coulter-Nile'
p3491
(lp3492
I18
aI2
aI0
aI0
aI2
aI0
aI0
aI0
aI10
aI22
assS'Harshal Patel'
p3493
(dp3494
S'MM Sharma'
p3495
(lp3496
I0
aI1
aI0
aI0
aI0
aI0
aI0
aI0
aI1
aI1
asS'Dwayne Bravo'
p3497
(lp3498
I0
aI1
aI0
aI0
aI0
aI0
aI0
aI0
aI1
aI1
asS'Ashish Nehra'
p3499
(lp3500
I3
aI0
aI0
aI0
aI0
aI0
aI0
aI0
aI0
aI3
asS'TA Boult'
p3501
(lp3502
I1
aI0
aI1
aI0
aI0
aI0
aI0
aI0
aI2
aI2
asS'Sunil Narine'
p3503
(lp3504
I1
aI0
aI0
aI0
aI0
aI0
aI1
aI0
aI6
aI2
asS'Morne Morkel'
p3505
(lp3506
I0
aI1
aI1
aI0
aI0
aI0
aI0
aI0
aI3
aI2
asS'TG Southee'
p3507
(lp3508
I1
aI0
aI0
aI0
aI0
aI0
aI1
aI0
aI6
aI2
assS'A Ashish Reddy'
p3509
(dp3510
S'Imran Tahir'
p3511
(lp3512
I0
aI4
aI0
aI0
aI0
aI0
aI0
aI0
aI4
aI4
asS'Dwayne Bravo'
p3513
(lp3514
I1
aI0
aI0
aI0
aI1
aI0
aI0
aI0
aI4
aI2
asS'NM Coulter-Nile'
p3515
(lp3516
I2
aI0
aI0
aI0
aI0
aI0
aI0
aI0
aI0
aI2
asS'Anureet Singh'
p3517
(lp3518
I0
aI2
aI0
aI0
aI0
aI0
aI0
aI0
aI2
aI2
asS'Ashish Nehra'
p3519
(lp3520
I2
aI2
aI0
aI0
aI0
aI0
aI0
aI0
aI2
aI4
asS'Kieron Pollard'
p3521
(lp3522
I1
aI1
aI1
aI0
aI0
aI0
aI0
aI0
aI3
aI3
asS'Mitchell Johnson'
p3523
(lp3524
I0
aI1
aI1
aI0
aI1
aI0
aI0
aI0
aI7
aI3
asS'Sandeep Sharma'
p3525
(lp3526
I0
aI1
aI0
aI0
aI0
aI0
aI2
aI0
aI13
aI3
asS'Harbhajan Singh'
p3527
(lp3528
I3
aI3
aI1
aI0
aI0
aI0
aI1
aI0
aI11
aI8
asS'Lasith Malinga'
p3529
(lp3530
I2
aI1
aI1
aI0
aI0
aI0
aI0
aI0
aI3
aI4
asS'PV Tambe'
p3531
(lp3532
I2
aI6
aI0
aI0
aI0
aI0
aI0
aI0
aI6
aI8
asS'Angelo Mathews'
p3533
(lp3534
I2
aI0
aI2
aI0
aI2
aI0
aI2
aI0
aI24
aI8
asS'Chris Morris'
p3535
(lp3536
I0
aI2
aI0
aI0
aI0
aI0
aI0
aI0
aI2
aI2
asS'Jean-Paul Duminy'
p3537
(lp3538
I0
aI2
aI0
aI0
aI0
aI0
aI0
aI0
aI2
aI2
asS'TG Southee'
p3539
(lp3540
I2
aI2
aI2
aI0
aI0
aI0
aI2
aI0
aI18
aI8
assS'MS Bisla'
p3541
(dp3542
S'MM Sharma'
p3543
(lp3544
I0
aI0
aI0
aI2
aI2
aI0
aI0
aI0
aI14
aI4
asS'Ashish Nehra'
p3545
(lp3546
I8
aI4
aI0
aI0
aI0
aI0
aI0
aI0
aI4
aI12
asS'Harbhajan Singh'
p3547
(lp3548
I8
aI0
aI0
aI0
aI2
aI0
aI2
aI0
aI20
aI12
asS'MJ McClenaghan'
p3549
(lp3550
I10
aI0
aI0
aI0
aI4
aI0
aI0
aI0
aI16
aI14
asS'Lasith Malinga'
p3551
(lp3552
I2
aI4
aI0
aI0
aI0
aI0
aI0
aI0
aI4
aI6
asS'IC Pandey'
p3553
(lp3554
I8
aI0
aI0
aI0
aI4
aI0
aI0
aI0
aI16
aI12
assS'Varun Aaron'
p3555
(dp3556
S'Bhuvneshwar Kumar'
p3557
(lp3558
I2
aI0
aI0
aI0
aI0
aI0
aI1
aI0
aI6
aI3
assS'Dhawal Kulkarni'
p3559
(dp3560
S'Harshal Patel'
p3561
(lp3562
I0
aI1
aI0
aI0
aI0
aI0
aI0
aI0
aI1
aI1
asS'Yuzvendra Chahal'
p3563
(lp3564
I2
aI2
aI0
aI0
aI0
aI0
aI0
aI0
aI2
aI4
asS'Mitchell Starc'
p3565
(lp3566
I5
aI1
aI0
aI0
aI0
aI0
aI0
aI0
aI1
aI6
assS'Brendon McCullum'
p3567
(dp3568
S'Axar Patel'
p3569
(lp3570
I5
aI2
aI0
aI0
aI2
aI0
aI0
aI0
aI10
aI9
asS'D Wiese'
p3571
(lp3572
I3
aI0
aI0
aI0
aI1
aI0
aI0
aI0
aI4
aI4
asS'James Faulkner'
p3573
(lp3574
I6
aI5
aI2
aI0
aI3
aI0
aI0
aI0
aI21
aI16
asS'BE Hendricks'
p3575
(lp3576
I2
aI1
aI0
aI0
aI1
aI0
aI0
aI0
aI5
aI4
asS'TA Boult'
p3577
(lp3578
I3
aI3
aI0
aI0
aI6
aI0
aI1
aI0
aI33
aI13
asS'Mitchell Starc'
p3579
(lp3580
I6
aI0
aI1
aI0
aI4
aI0
aI0
aI0
aI18
aI11
asS'Harbhajan Singh'
p3581
(lp3582
I2
aI2
aI2
aI0
aI6
aI0
aI0
aI0
aI30
aI12
asS'Rajat Bhatia'
p3583
(lp3584
I4
aI5
aI2
aI0
aI1
aI0
aI1
aI0
aI19
aI13
asS'MJ McClenaghan'
p3585
(lp3586
I1
aI1
aI0
aI0
aI0
aI0
aI1
aI0
aI7
aI3
asS'NM Coulter-Nile'
p3587
(lp3588
I1
aI0
aI0
aI0
aI1
aI0
aI0
aI0
aI4
aI2
asS'Brad Hogg'
p3589
(lp3590
I1
aI0
aI0
aI0
aI0
aI0
aI0
aI0
aI0
aI1
asS'Anureet Singh'
p3591
(lp3592
I1
aI3
aI1
aI0
aI0
aI0
aI1
aI0
aI11
aI6
asS'Harshal Patel'
p3593
(lp3594
I0
aI1
aI0
aI0
aI0
aI0
aI0
aI0
aI1
aI1
asS'Sandeep Sharma'
p3595
(lp3596
I8
aI2
aI2
aI0
aI4
aI0
aI1
aI0
aI28
aI17
asS'PV Tambe'
p3597
(lp3598
I9
aI4
aI0
aI0
aI2
aI0
aI2
aI0
aI24
aI17
asS'Parvez Rasool'
p3599
(lp3600
I3
aI0
aI0
aI0
aI1
aI0
aI1
aI0
aI10
aI5
asS'KV Sharma'
p3601
(lp3602
I6
aI4
aI0
aI0
aI0
aI0
aI3
aI0
aI22
aI13
asS'Ankit Sharma'
p3603
(lp3604
I10
aI5
aI0
aI0
aI5
aI0
aI0
aI0
aI25
aI20
asS'Bhuvneshwar Kumar'
p3605
(lp3606
I6
aI2
aI0
aI0
aI0
aI0
aI1
aI0
aI8
aI9
asS'PJ Cummins'
p3607
(lp3608
I7
aI0
aI1
aI0
aI3
aI0
aI4
aI0
aI38
aI15
asS'Piyush Chawla'
p3609
(lp3610
I3
aI0
aI0
aI0
aI1
aI0
aI0
aI0
aI4
aI4
asS'Zaheer Khan'
p3611
(lp3612
I8
aI2
aI0
aI0
aI0
aI0
aI0
aI0
aI2
aI10
asS'Mitchell Johnson'
p3613
(lp3614
I8
aI2
aI1
aI0
aI2
aI0
aI1
aI0
aI18
aI14
asS'Yuzvendra Chahal'
p3615
(lp3616
I9
aI1
aI0
aI0
aI1
aI0
aI0
aI0
aI5
aI11
asS'J Suchith'
p3617
(lp3618
I1
aI6
aI0
aI0
aI0
aI0
aI0
aI0
aI6
aI7
asS'UT Yadav'
p3619
(lp3620
I3
aI1
aI0
aI0
aI2
aI0
aI0
aI0
aI9
aI6
asS'RS Bopara'
p3621
(lp3622
I3
aI5
aI0
aI0
aI1
aI0
aI0
aI0
aI9
aI9
asS'Lasith Malinga'
p3623
(lp3624
I4
aI4
aI0
aI0
aI6
aI0
aI2
aI0
aI40
aI16
asS'P Suyal'
p3625
(lp3626
I0
aI6
aI0
aI0
aI0
aI0
aI2
aI0
aI18
aI8
asS'Chris Morris'
p3627
(lp3628
I1
aI0
aI0
aI0
aI1
aI0
aI0
aI0
aI4
aI2
asS'S Nadeem'
p3629
(lp3630
I6
aI3
aI1
aI0
aI1
aI0
aI0
aI0
aI9
aI11
asS'Shane Watson'
p3631
(lp3632
I3
aI2
aI0
aI0
aI1
aI0
aI1
aI0
aI12
aI7
asS'R Vinay Kumar'
p3633
(lp3634
I1
aI0
aI1
aI0
aI3
aI0
aI0
aI0
aI14
aI5
asS'I Sharma'
p3635
(lp3636
I4
aI2
aI1
aI0
aI2
aI0
aI3
aI0
aI30
aI12
assS'Karanveer Singh'
p3637
(dp3638
S'Harshal Patel'
p3639
(lp3640
I1
aI1
aI0
aI0
aI0
aI0
aI0
aI0
aI1
aI2
asS'MM Sharma'
p3641
(lp3642
I1
aI0
aI0
aI0
aI0
aI0
aI0
aI0
aI0
aI1
asS'Chris Morris'
p3643
(lp3644
I2
aI1
aI0
aI0
aI1
aI0
aI0
aI0
aI5
aI4
asS'Dwayne Bravo'
p3645
(lp3646
I2
aI2
aI0
aI0
aI0
aI0
aI0
aI0
aI2
aI4
asS'Mitchell Starc'
p3647
(lp3648
I3
aI1
aI1
aI0
aI0
aI0
aI0
aI0
aI3
aI5
assS'Sanju Samson'
p3649
(dp3650
S'Ashish Nehra'
p3651
(lp3652
I0
aI2
aI0
aI0
aI0
aI0
aI0
aI0
aI2
aI2
asS'TA Boult'
p3653
(lp3654
I4
aI2
aI0
aI0
aI0
aI0
aI0
aI0
aI2
aI6
asS'Harbhajan Singh'
p3655
(lp3656
I6
aI6
aI2
aI0
aI3
aI0
aI0
aI0
aI22
aI17
asS'Angelo Mathews'
p3657
(lp3658
I3
aI1
aI0
aI0
aI0
aI0
aI0
aI0
aI1
aI4
asS'MJ McClenaghan'
p3659
(lp3660
I2
aI1
aI0
aI0
aI0
aI0
aI1
aI0
aI7
aI4
asS'JD Unadkat'
p3661
(lp3662
I0
aI1
aI0
aI0
aI0
aI0
aI0
aI0
aI1
aI1
asS'NM Coulter-Nile'
p3663
(lp3664
I3
aI1
aI2
aI0
aI1
aI0
aI0
aI0
aI9
aI7
asS'Ravindra Jadeja'
p3665
(lp3666
I2
aI2
aI0
aI0
aI0
aI0
aI0
aI0
aI2
aI4
asS'Dwayne Bravo'
p3667
(lp3668
I1
aI5
aI0
aI0
aI0
aI0
aI2
aI0
aI17
aI8
asS'Anureet Singh'
p3669
(lp3670
I1
aI3
aI0
aI1
aI2
aI0
aI0
aI0
aI14
aI7
asS'Harshal Patel'
p3671
(lp3672
I3
aI2
aI0
aI0
aI0
aI0
aI0
aI0
aI2
aI5
asS'Sandeep Sharma'
p3673
(lp3674
I2
aI1
aI0
aI0
aI0
aI0
aI0
aI0
aI1
aI3
asS'S Aravind'
p3675
(lp3676
I1
aI1
aI1
aI0
aI0
aI0
aI0
aI0
aI3
aI3
asS'KV Sharma'
p3677
(lp3678
I2
aI4
aI0
aI0
aI0
aI0
aI0
aI0
aI4
aI6
asS'RS Bopara'
p3679
(lp3680
I5
aI2
aI0
aI0
aI0
aI0
aI1
aI0
aI8
aI8
asS'Pawan Negi'
p3681
(lp3682
I1
aI1
aI0
aI0
aI1
aI0
aI0
aI0
aI5
aI3
asS'Iqbal Abdulla'
p3683
(lp3684
I1
aI2
aI0
aI0
aI0
aI0
aI0
aI0
aI2
aI3
asS'Yuzvendra Chahal'
p3685
(lp3686
I3
aI0
aI1
aI0
aI0
aI0
aI0
aI0
aI2
aI4
asS'J Suchith'
p3687
(lp3688
I0
aI5
aI1
aI1
aI0
aI0
aI1
aI0
aI16
aI8
asS'Shakib Al Hasan'
p3689
(lp3690
I4
aI0
aI0
aI1
aI0
aI0
aI0
aI0
aI3
aI5
asS'Bhuvneshwar Kumar'
p3691
(lp3692
I11
aI6
aI2
aI0
aI0
aI0
aI2
aI0
aI22
aI21
asS'Lasith Malinga'
p3693
(lp3694
I0
aI4
aI0
aI0
aI1
aI0
aI1
aI0
aI14
aI6
asS'P Suyal'
p3695
(lp3696
I4
aI6
aI0
aI0
aI4
aI0
aI0
aI0
aI22
aI14
asS'Moises Henriques'
p3697
(lp3698
I0
aI1
aI0
aI0
aI0
aI0
aI0
aI0
aI1
aI1
asS'R Vinay Kumar'
p3699
(lp3700
I16
aI7
aI1
aI0
aI5
aI0
aI0
aI0
aI29
aI29
asS'Praveen Kumar'
p3701
(lp3702
I12
aI4
aI8
aI0
aI4
aI0
aI0
aI0
aI36
aI28
asS'Andre Russell'
p3703
(lp3704
I2
aI1
aI0
aI0
aI1
aI0
aI0
aI0
aI5
aI4
assS'Brad Hogg'
p3705
(dp3706
S'Ashish Nehra'
p3707
(lp3708
I0
aI0
aI1
aI0
aI0
aI0
aI0
aI0
aI2
aI1
asS'Anureet Singh'
p3709
(lp3710
I0
aI1
aI0
aI0
aI0
aI0
aI0
aI0
aI1
aI1
asS'BE Hendricks'
p3711
(lp3712
I0
aI1
aI0
aI0
aI0
aI0
aI0
aI0
aI1
aI1
asS'Sandeep Sharma'
p3713
(lp3714
I0
aI3
aI0
aI0
aI0
aI0
aI0
aI0
aI3
aI3
assS'Mayank Agarwal'
p3715
(dp3716
S'MM Sharma'
p3717
(lp3718
I2
aI1
aI0
aI0
aI0
aI0
aI1
aI0
aI7
aI4
asS'Axar Patel'
p3719
(lp3720
I5
aI18
aI0
aI0
aI0
aI0
aI0
aI0
aI18
aI23
asS'D Wiese'
p3721
(lp3722
I0
aI4
aI0
aI0
aI0
aI0
aI0
aI0
aI4
aI4
asS'Ashish Nehra'
p3723
(lp3724
I6
aI0
aI0
aI0
aI2
aI0
aI0
aI0
aI8
aI8
asS'Mitchell Starc'
p3725
(lp3726
I5
aI1
aI0
aI0
aI0
aI0
aI0
aI0
aI1
aI6
asS'Stuart Binny'
p3727
(lp3728
I2
aI0
aI0
aI0
aI0
aI0
aI1
aI0
aI6
aI3
asS'MJ McClenaghan'
p3729
(lp3730
I1
aI1
aI0
aI0
aI0
aI0
aI0
aI0
aI1
aI2
asS'SN Thakur'
p3731
(lp3732
I3
aI2
aI1
aI0
aI3
aI0
aI0
aI0
aI16
aI9
asS'Anureet Singh'
p3733
(lp3734
I15
aI9
aI2
aI0
aI7
aI0
aI0
aI0
aI41
aI33
asS'Harshal Patel'
p3735
(lp3736
I1
aI4
aI0
aI0
aI0
aI0
aI0
aI0
aI4
aI5
asS'Sandeep Sharma'
p3737
(lp3738
I13
aI7
aI2
aI0
aI2
aI0
aI1
aI0
aI25
aI25
asS'PV Tambe'
p3739
(lp3740
I2
aI0
aI0
aI0
aI0
aI0
aI0
aI0
aI0
aI2
asS'Glenn Maxwell'
p3741
(lp3742
I2
aI4
aI0
aI0
aI0
aI0
aI2
aI0
aI16
aI8
asS'Bhuvneshwar Kumar'
p3743
(lp3744
I2
aI0
aI0
aI0
aI0
aI0
aI0
aI0
aI0
aI2
asS'TG Southee'
p3745
(lp3746
I6
aI5
aI0
aI0
aI2
aI0
aI1
aI0
aI19
aI14
asS'Iqbal Abdulla'
p3747
(lp3748
I3
aI3
aI0
aI0
aI0
aI0
aI0
aI0
aI3
aI6
asS'Mitchell Johnson'
p3749
(lp3750
I2
aI12
aI0
aI0
aI4
aI0
aI2
aI0
aI40
aI20
asS'Dhawal Kulkarni'
p3751
(lp3752
I1
aI0
aI1
aI0
aI4
aI0
aI0
aI0
aI18
aI6
asS'UT Yadav'
p3753
(lp3754
I10
aI2
aI0
aI0
aI0
aI0
aI0
aI0
aI2
aI12
asS'Lasith Malinga'
p3755
(lp3756
I1
aI0
aI0
aI0
aI0
aI0
aI0
aI0
aI0
aI1
asS'Chris Morris'
p3757
(lp3758
I2
aI1
aI0
aI0
aI1
aI0
aI0
aI0
aI5
aI4
asS'NLTC Perera'
p3759
(lp3760
I0
aI4
aI0
aI0
aI2
aI0
aI0
aI0
aI12
aI6
asS'Shikhar Dhawan'
p3761
(lp3762
I0
aI8
aI2
aI0
aI2
aI0
aI0
aI0
aI20
aI12
asS'Varun Aaron'
p3763
(lp3764
I6
aI5
aI0
aI0
aI1
aI0
aI1
aI0
aI15
aI13
asS'Praveen Kumar'
p3765
(lp3766
I2
aI2
aI0
aI0
aI0
aI0
aI0
aI0
aI2
aI4
asS'Morne Morkel'
p3767
(lp3768
I4
aI0
aI0
aI0
aI0
aI0
aI0
aI0
aI0
aI4
assS'Azhar Mahmood'
p3769
(dp3770
S'Shane Watson'
p3771
(lp3772
I3
aI0
aI0
aI0
aI1
aI0
aI0
aI0
aI4
aI4
asS'James Faulkner'
p3773
(lp3774
I2
aI0
aI1
aI0
aI0
aI0
aI0
aI0
aI2
aI3
assS'NM Coulter'
p3775
(dp3776
S'Dwayne Bravo'
p3777
(lp3778
I0
aI1
aI0
aI0
aI0
aI0
aI0
aI0
aI1
aI1
asS'Iqbal Abdulla'
p3779
(lp3780
I5
aI0
aI0
aI0
aI0
aI0
aI0
aI0
aI0
aI5
asS'D Wiese'
p3781
(lp3782
I2
aI0
aI0
aI0
aI1
aI0
aI0
aI0
aI4
aI3
asS'R Vinay Kumar'
p3783
(lp3784
I0
aI1
aI1
aI0
aI0
aI0
aI0
aI0
aI3
aI2
asS'Dhawal Kulkarni'
p3785
(lp3786
I1
aI0
aI0
aI0
aI0
aI0
aI1
aI0
aI6
aI2
asS'UT Yadav'
p3787
(lp3788
I0
aI2
aI0
aI0
aI0
aI0
aI0
aI0
aI2
aI2
asS'Sunil Narine'
p3789
(lp3790
I0
aI2
aI0
aI0
aI0
aI0
aI0
aI0
aI2
aI2
asS'Ravichandran Ashwin'
p3791
(lp3792
I1
aI0
aI0
aI0
aI0
aI0
aI0
aI0
aI0
aI1
asS'IC Pandey'
p3793
(lp3794
I1
aI0
aI0
aI0
aI1
aI0
aI0
aI0
aI4
aI2
assS'NJ Maddinson'
p3795
(dp3796
S'IC Pandey'
p3797
(lp3798
I6
aI0
aI0
aI0
aI1
aI0
aI0
aI0
aI4
aI7
assS'Stuart Binny'
p3799
(dp3800
S'Imran Tahir'
p3801
(lp3802
I1
aI1
aI0
aI0
aI0
aI0
aI0
aI0
aI1
aI2
asS'Mitchell Johnson'
p3803
(lp3804
I8
aI0
aI0
aI0
aI0
aI0
aI0
aI0
aI0
aI8
asS'Anureet Singh'
p3805
(lp3806
I0
aI2
aI0
aI0
aI2
aI0
aI2
aI0
aI22
aI6
asS'D Wiese'
p3807
(lp3808
I1
aI4
aI1
aI0
aI0
aI0
aI0
aI0
aI6
aI6
asS'Yuzvendra Chahal'
p3809
(lp3810
I2
aI2
aI1
aI0
aI1
aI0
aI0
aI0
aI8
aI6
asS'Harshal Patel'
p3811
(lp3812
I3
aI1
aI0
aI0
aI1
aI0
aI0
aI0
aI5
aI5
asS'TA Boult'
p3813
(lp3814
I2
aI2
aI0
aI0
aI2
aI0
aI0
aI0
aI10
aI6
asS'Sandeep Sharma'
p3815
(lp3816
I1
aI3
aI0
aI0
aI1
aI0
aI0
aI0
aI7
aI5
asS'Mitchell Starc'
p3817
(lp3818
I2
aI1
aI0
aI0
aI0
aI0
aI0
aI0
aI1
aI3
asS'R Vinay Kumar'
p3819
(lp3820
I0
aI3
aI0
aI0
aI1
aI0
aI0
aI0
aI7
aI4
asS'A Ashish Reddy'
p3821
(lp3822
I2
aI4
aI2
aI0
aI0
aI0
aI0
aI0
aI8
aI8
asS'Karanveer Singh'
p3823
(lp3824
I0
aI4
aI0
aI0
aI1
aI0
aI0
aI0
aI8
aI5
asS'Praveen Kumar'
p3825
(lp3826
I0
aI5
aI0
aI0
aI0
aI0
aI0
aI0
aI5
aI5
asS'S Aravind'
p3827
(lp3828
I1
aI0
aI0
aI0
aI0
aI0
aI0
aI0
aI0
aI1
asS'RS Bopara'
p3829
(lp3830
I0
aI6
aI0
aI0
aI0
aI0
aI0
aI0
aI6
aI6
asS'Lasith Malinga'
p3831
(lp3832
I0
aI2
aI0
aI0
aI0
aI0
aI0
aI0
aI2
aI2
asS'Bhuvneshwar Kumar'
p3833
(lp3834
I0
aI6
aI0
aI0
aI0
aI0
aI0
aI0
aI6
aI6
assS'Yuzvendra Chahal'
p3835
(dp3836
S'Bhuvneshwar Kumar'
p3837
(lp3838
I0
aI1
aI0
aI0
aI0
aI0
aI0
aI0
aI1
aI1
assS'Steven Smith'
p3839
(dp3840
S'MM Sharma'
p3841
(lp3842
I1
aI4
aI2
aI0
aI0
aI0
aI0
aI0
aI8
aI7
asS'Axar Patel'
p3843
(lp3844
I3
aI1
aI0
aI0
aI2
aI0
aI0
aI0
aI9
aI6
asS'D Wiese'
p3845
(lp3846
I4
aI9
aI1
aI0
aI2
aI0
aI0
aI0
aI19
aI16
asS'TA Boult'
p3847
(lp3848
I2
aI4
aI0
aI0
aI2
aI0
aI0
aI0
aI12
aI8
asS'Mitchell Starc'
p3849
(lp3850
I3
aI1
aI0
aI0
aI1
aI0
aI0
aI0
aI5
aI5
asS'Harbhajan Singh'
p3851
(lp3852
I0
aI4
aI1
aI0
aI1
aI0
aI0
aI0
aI10
aI6
asS'Angelo Mathews'
p3853
(lp3854
I0
aI2
aI0
aI0
aI1
aI0
aI0
aI0
aI6
aI3
asS'Piyush Chawla'
p3855
(lp3856
I1
aI2
aI0
aI0
aI0
aI0
aI0
aI0
aI2
aI3
asS'MJ McClenaghan'
p3857
(lp3858
I4
aI1
aI0
aI0
aI0
aI0
aI0
aI0
aI1
aI5
asS'Karanveer Singh'
p3859
(lp3860
I1
aI4
aI0
aI0
aI2
aI0
aI0
aI0
aI12
aI7
asS'NM Coulter-Nile'
p3861
(lp3862
I3
aI0
aI0
aI0
aI1
aI0
aI0
aI0
aI4
aI4
asS'Ravindra Jadeja'
p3863
(lp3864
I4
aI4
aI0
aI0
aI0
aI0
aI0
aI0
aI4
aI8
asS'Dwayne Bravo'
p3865
(lp3866
I2
aI0
aI0
aI0
aI0
aI0
aI0
aI0
aI0
aI2
asS'Amit Mishra'
p3867
(lp3868
I2
aI0
aI0
aI0
aI0
aI0
aI0
aI0
aI0
aI2
asS'Anureet Singh'
p3869
(lp3870
I1
aI1
aI0
aI0
aI0
aI0
aI0
aI0
aI1
aI2
asS'Harshal Patel'
p3871
(lp3872
I0
aI4
aI1
aI0
aI0
aI0
aI0
aI0
aI6
aI5
asS'Sandeep Sharma'
p3873
(lp3874
I1
aI5
aI1
aI0
aI1
aI0
aI0
aI0
aI11
aI8
asS'KV Sharma'
p3875
(lp3876
I4
aI4
aI1
aI0
aI3
aI0
aI2
aI0
aI30
aI14
asS'Bhuvneshwar Kumar'
p3877
(lp3878
I1
aI1
aI0
aI0
aI0
aI0
aI0
aI0
aI1
aI2
asS'Corey Anderson'
p3879
(lp3880
I10
aI4
aI4
aI0
aI0
aI0
aI0
aI0
aI12
aI18
asS'Pawan Negi'
p3881
(lp3882
I0
aI2
aI1
aI0
aI0
aI0
aI0
aI0
aI4
aI3
asS'Iqbal Abdulla'
p3883
(lp3884
I0
aI3
aI0
aI0
aI0
aI0
aI0
aI0
aI3
aI3
asS'Mitchell Johnson'
p3885
(lp3886
I2
aI0
aI0
aI0
aI0
aI0
aI0
aI0
aI0
aI2
asS'Yuzvendra Chahal'
p3887
(lp3888
I2
aI5
aI1
aI0
aI0
aI0
aI0
aI0
aI7
aI8
asS'J Suchith'
p3889
(lp3890
I2
aI16
aI4
aI0
aI3
aI0
aI0
aI0
aI36
aI25
asS'Shakib Al Hasan'
p3891
(lp3892
I0
aI2
aI0
aI0
aI0
aI0
aI0
aI0
aI2
aI2
asS'RS Bopara'
p3893
(lp3894
I3
aI8
aI0
aI0
aI1
aI0
aI0
aI0
aI12
aI12
asS'Lasith Malinga'
p3895
(lp3896
I11
aI10
aI9
aI0
aI12
aI0
aI0
aI0
aI76
aI42
asS'P Suyal'
p3897
(lp3898
I8
aI4
aI4
aI2
aI2
aI0
aI2
aI0
aI38
aI22
asS'Moises Henriques'
p3899
(lp3900
I1
aI3
aI1
aI0
aI3
aI0
aI0
aI0
aI17
aI8
asS'S Gopal'
p3901
(lp3902
I0
aI6
aI0
aI0
aI0
aI0
aI0
aI0
aI6
aI6
asS'R Vinay Kumar'
p3903
(lp3904
I0
aI2
aI0
aI0
aI0
aI0
aI0
aI0
aI2
aI2
asS'Praveen Kumar'
p3905
(lp3906
I3
aI3
aI0
aI0
aI2
aI0
aI0
aI0
aI11
aI8
asS'Virat Kohli'
p3907
(lp3908
I1
aI3
aI0
aI0
aI0
aI0
aI0
aI0
aI3
aI4
asS'Andre Russell'
p3909
(lp3910
I2
aI2
aI0
aI0
aI2
aI0
aI0
aI0
aI10
aI6
asS'I Sharma'
p3911
(lp3912
I3
aI3
aI0
aI0
aI2
aI0
aI0
aI0
aI11
aI8
assS'Ravichandran Ashwin'
p3913
(dp3914
S'NM Coulter-Nile'
p3915
(lp3916
I0
aI1
aI0
aI0
aI1
aI0
aI0
aI0
aI5
aI2
asS'Imran Tahir'
p3917
(lp3918
I0
aI1
aI3
aI0
aI0
aI0
aI0
aI0
aI7
aI4
asS'Iqbal Abdulla'
p3919
(lp3920
I0
aI2
aI0
aI0
aI0
aI0
aI0
aI0
aI2
aI2
asS'D Wiese'
p3921
(lp3922
I2
aI0
aI0
aI0
aI2
aI0
aI0
aI0
aI8
aI4
asS'Harshal Patel'
p3923
(lp3924
I0
aI1
aI0
aI0
aI0
aI0
aI0
aI0
aI1
aI1
asS'DJ Muthuswami'
p3925
(lp3926
I2
aI0
aI0
aI0
aI0
aI0
aI0
aI0
aI0
aI2
asS'R Vinay Kumar'
p3927
(lp3928
I0
aI2
aI0
aI0
aI0
aI0
aI0
aI0
aI2
aI2
asS'UT Yadav'
p3929
(lp3930
I0
aI1
aI0
aI0
aI2
aI0
aI0
aI0
aI9
aI3
asS'MJ McClenaghan'
p3931
(lp3932
I2
aI2
aI0
aI0
aI0
aI0
aI1
aI0
aI8
aI5
asS'Lasith Malinga'
p3933
(lp3934
I1
aI5
aI1
aI0
aI2
aI0
aI0
aI0
aI15
aI9
asS'Brad Hogg'
p3935
(lp3936
I1
aI0
aI0
aI0
aI0
aI0
aI0
aI0
aI0
aI1
assS'AB de Villiers'
p3937
(dp3938
S'Axar Patel'
p3939
(lp3940
I4
aI0
aI0
aI0
aI2
aI0
aI1
aI0
aI14
aI7
asS'James Faulkner'
p3941
(lp3942
I2
aI7
aI3
aI0
aI5
aI0
aI0
aI0
aI33
aI17
asS'Ashish Nehra'
p3943
(lp3944
I4
aI2
aI0
aI0
aI1
aI0
aI0
aI0
aI6
aI7
asS'TA Boult'
p3945
(lp3946
I1
aI0
aI0
aI0
aI1
aI0
aI0
aI0
aI4
aI2
asS'Harbhajan Singh'
p3947
(lp3948
I0
aI3
aI1
aI0
aI1
aI0
aI1
aI0
aI15
aI6
asS'KC Cariappa'
p3949
(lp3950
I1
aI1
aI0
aI0
aI2
aI0
aI1
aI0
aI15
aI5
asS'Lasith Malinga'
p3951
(lp3952
I6
aI3
aI3
aI0
aI7
aI0
aI4
aI0
aI61
aI23
asS'Piyush Chawla'
p3953
(lp3954
I2
aI1
aI0
aI0
aI0
aI0
aI0
aI0
aI1
aI3
asS'MJ McClenaghan'
p3955
(lp3956
I0
aI2
aI1
aI0
aI8
aI0
aI2
aI0
aI48
aI13
asS'Karanveer Singh'
p3957
(lp3958
I1
aI3
aI0
aI0
aI0
aI0
aI3
aI0
aI21
aI7
asS'Brad Hogg'
p3959
(lp3960
I0
aI1
aI0
aI0
aI0
aI0
aI0
aI0
aI1
aI1
asS'Ravindra Jadeja'
p3961
(lp3962
I2
aI2
aI0
aI0
aI0
aI0
aI2
aI0
aI14
aI6
asS'YK Pathan'
p3963
(lp3964
I1
aI2
aI0
aI0
aI0
aI0
aI1
aI0
aI8
aI4
asS'Anureet Singh'
p3965
(lp3966
I2
aI3
aI0
aI0
aI1
aI0
aI0
aI0
aI7
aI6
asS'Sandeep Sharma'
p3967
(lp3968
I0
aI5
aI0
aI0
aI0
aI0
aI0
aI0
aI5
aI5
asS'A Ashish Reddy'
p3969
(lp3970
I1
aI1
aI2
aI0
aI0
aI0
aI1
aI0
aI11
aI5
asS'PV Tambe'
p3971
(lp3972
I4
aI6
aI0
aI0
aI4
aI0
aI0
aI0
aI22
aI14
asS'KV Sharma'
p3973
(lp3974
I4
aI5
aI0
aI0
aI0
aI0
aI0
aI0
aI5
aI9
asS'Ankit Sharma'
p3975
(lp3976
I3
aI4
aI0
aI0
aI1
aI0
aI2
aI0
aI20
aI10
asS'RS Bopara'
p3977
(lp3978
I2
aI2
aI0
aI0
aI3
aI0
aI1
aI0
aI20
aI8
asS'Jasprit Bumrah'
p3979
(lp3980
I4
aI5
aI3
aI0
aI1
aI0
aI2
aI0
aI27
aI15
asS'Mitchell Johnson'
p3981
(lp3982
I1
aI2
aI0
aI0
aI0
aI0
aI0
aI0
aI2
aI3
asS'HH Pandya'
p3983
(lp3984
I0
aI5
aI0
aI0
aI7
aI0
aI1
aI0
aI39
aI13
asS'J Suchith'
p3985
(lp3986
I2
aI3
aI1
aI0
aI5
aI0
aI0
aI0
aI25
aI11
asS'Dhawal Kulkarni'
p3987
(lp3988
I8
aI7
aI2
aI0
aI3
aI0
aI0
aI0
aI23
aI20
asS'Bhuvneshwar Kumar'
p3989
(lp3990
I0
aI2
aI0
aI0
aI1
aI0
aI0
aI0
aI6
aI3
asS'Stuart Binny'
p3991
(lp3992
I7
aI3
aI1
aI0
aI0
aI0
aI1
aI0
aI11
aI12
asS'Chris Morris'
p3993
(lp3994
I0
aI2
aI1
aI0
aI0
aI0
aI2
aI0
aI16
aI5
asS'Moises Henriques'
p3995
(lp3996
I1
aI0
aI0
aI0
aI0
aI0
aI0
aI0
aI0
aI1
asS'Shane Watson'
p3997
(lp3998
I13
aI9
aI5
aI0
aI5
aI0
aI0
aI0
aI39
aI32
asS'TG Southee'
p3999
(lp4000
I4
aI2
aI0
aI0
aI0
aI0
aI0
aI0
aI2
aI6
asS'Shikhar Dhawan'
p4001
(lp4002
I0
aI4
aI0
aI0
aI1
aI0
aI0
aI0
aI8
aI5
asS'Praveen Kumar'
p4003
(lp4004
I1
aI0
aI0
aI0
aI0
aI0
aI0
aI0
aI0
aI1
asS'DJ Hooda'
p4005
(lp4006
I0
aI0
aI0
aI0
aI1
aI0
aI0
aI0
aI4
aI1
asS'Andre Russell'
p4007
(lp4008
I2
aI1
aI0
aI0
aI1
aI0
aI0
aI0
aI5
aI4
asS'IC Pandey'
p4009
(lp4010
I16
aI2
aI0
aI0
aI4
aI0
aI2
aI0
aI30
aI24
assS'Manoj Tiwary'
p4011
(dp4012
S'Andre Russell'
p4013
(lp4014
I5
aI6
aI0
aI0
aI2
aI0
aI0
aI0
aI14
aI13
asS'YK Pathan'
p4015
(lp4016
I0
aI6
aI0
aI0
aI2
aI0
aI0
aI0
aI14
aI8
asS'UT Yadav'
p4017
(lp4018
I8
aI0
aI0
aI0
aI1
aI0
aI0
aI0
aI4
aI9
asS'Sunil Narine'
p4019
(lp4020
I9
aI6
aI0
aI0
aI4
aI0
aI0
aI0
aI22
aI19
asS'Piyush Chawla'
p4021
(lp4022
I7
aI10
aI0
aI0
aI0
aI0
aI1
aI0
aI16
aI18
asS'Morne Morkel'
p4023
(lp4024
I8
aI2
aI0
aI0
aI4
aI0
aI0
aI0
aI18
aI14
asS'Brad Hogg'
p4025
(lp4026
I2
aI1
aI0
aI0
aI0
aI0
aI0
aI0
aI1
aI3
assS'Rohit Sharma'
p4027
(dp4028
S'MM Sharma'
p4029
(lp4030
I5
aI11
aI1
aI0
aI8
aI0
aI1
aI0
aI51
aI26
asS'Axar Patel'
p4031
(lp4032
I0
aI2
aI1
aI0
aI0
aI0
aI0
aI0
aI4
aI3
asS'D Wiese'
p4033
(lp4034
I6
aI4
aI0
aI0
aI3
aI0
aI1
aI0
aI22
aI14
asS'Ashish Nehra'
p4035
(lp4036
I9
aI8
aI8
aI0
aI4
aI0
aI0
aI0
aI40
aI29
asS'Angelo Mathews'
p4037
(lp4038
I3
aI4
aI0
aI0
aI1
aI0
aI1
aI0
aI14
aI9
asS'Piyush Chawla'
p4039
(lp4040
I4
aI5
aI1
aI0
aI2
aI0
aI0
aI0
aI15
aI12
asS'Karanveer Singh'
p4041
(lp4042
I1
aI2
aI1
aI0
aI0
aI0
aI0
aI0
aI4
aI4
asS'Amit Mishra'
p4043
(lp4044
I7
aI12
aI1
aI0
aI0
aI0
aI1
aI0
aI20
aI21
asS'Ravindra Jadeja'
p4045
(lp4046
I4
aI20
aI1
aI0
aI0
aI0
aI1
aI0
aI28
aI26
asS'Dwayne Bravo'
p4047
(lp4048
I4
aI9
aI1
aI0
aI4
aI0
aI0
aI0
aI27
aI18
asS'NM Coulter-Nile'
p4049
(lp4050
I2
aI1
aI1
aI0
aI0
aI0
aI1
aI0
aI9
aI5
asS'Anureet Singh'
p4051
(lp4052
I2
aI1
aI2
aI0
aI1
aI0
aI0
aI0
aI9
aI6
asS'Harshal Patel'
p4053
(lp4054
I1
aI1
aI0
aI0
aI0
aI0
aI0
aI0
aI1
aI2
asS'Sandeep Sharma'
p4055
(lp4056
I2
aI0
aI0
aI0
aI0
aI0
aI0
aI0
aI0
aI2
asS'AN Ahmed'
p4057
(lp4058
I0
aI2
aI0
aI0
aI2
aI0
aI6
aI0
aI46
aI10
asS'Sunil Narine'
p4059
(lp4060
I9
aI8
aI0
aI0
aI5
aI0
aI1
aI0
aI34
aI23
asS'KV Sharma'
p4061
(lp4062
I2
aI8
aI0
aI0
aI1
aI0
aI1
aI0
aI18
aI12
asS'Ankit Sharma'
p4063
(lp4064
I1
aI4
aI1
aI0
aI0
aI0
aI0
aI0
aI6
aI6
asS'Ravichandran Ashwin'
p4065
(lp4066
I3
aI3
aI3
aI0
aI0
aI0
aI3
aI0
aI27
aI12
asS'TG Southee'
p4067
(lp4068
I1
aI1
aI1
aI0
aI1
aI0
aI0
aI0
aI7
aI4
asS'Imran Tahir'
p4069
(lp4070
I2
aI7
aI0
aI0
aI1
aI0
aI1
aI0
aI17
aI11
asS'Pawan Negi'
p4071
(lp4072
I2
aI10
aI0
aI0
aI1
aI0
aI0
aI0
aI14
aI13
asS'Zaheer Khan'
p4073
(lp4074
I2
aI2
aI0
aI0
aI0
aI0
aI0
aI0
aI2
aI4
asS'Mitchell Johnson'
p4075
(lp4076
I3
aI1
aI2
aI0
aI1
aI0
aI0
aI0
aI9
aI7
asS'Yuzvendra Chahal'
p4077
(lp4078
I1
aI6
aI0
aI0
aI0
aI0
aI0
aI0
aI6
aI7
asS'Dhawal Kulkarni'
p4079
(lp4080
I6
aI1
aI0
aI0
aI0
aI0
aI1
aI0
aI7
aI8
asS'UT Yadav'
p4081
(lp4082
I5
aI2
aI0
aI0
aI6
aI0
aI1
aI0
aI32
aI14
asS'Shakib Al Hasan'
p4083
(lp4084
I6
aI7
aI0
aI0
aI4
aI0
aI1
aI0
aI29
aI18
asS'Stuart Binny'
p4085
(lp4086
I8
aI1
aI0
aI0
aI1
aI0
aI0
aI0
aI5
aI10
asS'S Nadeem'
p4087
(lp4088
I3
aI3
aI1
aI0
aI0
aI0
aI1
aI0
aI11
aI8
asS'Varun Aaron'
p4089
(lp4090
I4
aI0
aI2
aI0
aI2
aI0
aI2
aI0
aI24
aI10
asS'Praveen Kumar'
p4091
(lp4092
I0
aI3
aI0
aI0
aI1
aI0
aI1
aI0
aI13
aI5
asS'Yuvraj Singh'
p4093
(lp4094
I1
aI1
aI1
aI0
aI0
aI0
aI0
aI0
aI3
aI3
asS'Morne Morkel'
p4095
(lp4096
I4
aI6
aI0
aI0
aI0
aI0
aI0
aI0
aI6
aI10
asS'Andre Russell'
p4097
(lp4098
I2
aI6
aI0
aI0
aI0
aI0
aI1
aI0
aI12
aI9
asS'J Theron'
p4099
(lp4100
I1
aI2
aI0
aI0
aI0
aI0
aI0
aI0
aI2
aI3
assS'Andre Russell'
p4101
(dp4102
S'MM Sharma'
p4103
(lp4104
I3
aI0
aI0
aI0
aI0
aI0
aI0
aI0
aI0
aI3
asS'RG More'
p4105
(lp4106
I1
aI3
aI0
aI0
aI0
aI0
aI0
aI0
aI3
aI4
asS'Bipul Sharma'
p4107
(lp4108
I4
aI3
aI0
aI0
aI0
aI0
aI4
aI0
aI27
aI11
asS'Axar Patel'
p4109
(lp4110
I5
aI5
aI6
aI0
aI5
aI0
aI3
aI0
aI55
aI24
asS'D Wiese'
p4111
(lp4112
I1
aI2
aI0
aI0
aI1
aI0
aI1
aI0
aI12
aI5
asS'James Faulkner'
p4113
(lp4114
I1
aI3
aI0
aI0
aI0
aI0
aI0
aI0
aI3
aI4
asS'Ashish Nehra'
p4115
(lp4116
I1
aI2
aI0
aI0
aI0
aI0
aI0
aI0
aI2
aI3
asS'BE Hendricks'
p4117
(lp4118
I0
aI1
aI0
aI0
aI1
aI0
aI0
aI0
aI5
aI2
asS'Lasith Malinga'
p4119
(lp4120
I1
aI1
aI0
aI0
aI0
aI0
aI0
aI0
aI1
aI2
asS'Amit Mishra'
p4121
(lp4122
I1
aI1
aI0
aI0
aI0
aI0
aI0
aI0
aI1
aI2
asS'Gurkeerat Singh'
p4123
(lp4124
I1
aI0
aI0
aI0
aI0
aI0
aI0
aI0
aI0
aI1
asS'Ravindra Jadeja'
p4125
(lp4126
I0
aI4
aI0
aI0
aI2
aI0
aI1
aI0
aI18
aI7
asS'Dwayne Bravo'
p4127
(lp4128
I1
aI5
aI0
aI0
aI2
aI0
aI2
aI0
aI25
aI10
asS'Anureet Singh'
p4129
(lp4130
I1
aI7
aI4
aI0
aI5
aI0
aI3
aI0
aI53
aI20
asS'Harshal Patel'
p4131
(lp4132
I3
aI1
aI1
aI0
aI2
aI0
aI1
aI0
aI17
aI8
asS'Sandeep Sharma'
p4133
(lp4134
I2
aI0
aI0
aI0
aI0
aI0
aI0
aI0
aI0
aI2
asS'AN Ahmed'
p4135
(lp4136
I2
aI1
aI0
aI0
aI1
aI0
aI1
aI0
aI11
aI5
asS'RS Bopara'
p4137
(lp4138
I4
aI2
aI0
aI0
aI2
aI0
aI0
aI0
aI10
aI8
asS'Imran Tahir'
p4139
(lp4140
I2
aI0
aI0
aI0
aI1
aI0
aI0
aI0
aI4
aI3
asS'Pawan Negi'
p4141
(lp4142
I3
aI5
aI0
aI0
aI0
aI0
aI1
aI0
aI11
aI9
asS'Mitchell Johnson'
p4143
(lp4144
I8
aI4
aI0
aI0
aI6
aI0
aI0
aI0
aI28
aI18
asS'Yuzvendra Chahal'
p4145
(lp4146
I0
aI3
aI1
aI0
aI3
aI0
aI0
aI0
aI17
aI7
asS'Dhawal Kulkarni'
p4147
(lp4148
I2
aI0
aI1
aI0
aI2
aI0
aI0
aI0
aI10
aI5
asS'Dale Steyn'
p4149
(lp4150
I0
aI2
aI0
aI0
aI0
aI0
aI0
aI0
aI2
aI2
asS'Stuart Binny'
p4151
(lp4152
I0
aI1
aI0
aI0
aI0
aI0
aI0
aI0
aI1
aI1
asS'Chris Morris'
p4153
(lp4154
I1
aI0
aI0
aI0
aI0
aI0
aI0
aI0
aI0
aI1
asS'Moises Henriques'
p4155
(lp4156
I2
aI0
aI0
aI0
aI0
aI0
aI0
aI0
aI0
aI2
asS'NLTC Perera'
p4157
(lp4158
I12
aI6
aI0
aI0
aI6
aI0
aI2
aI0
aI42
aI26
asS'Shane Watson'
p4159
(lp4160
I1
aI2
aI0
aI0
aI1
aI0
aI1
aI0
aI12
aI5
asS'BB Sran'
p4161
(lp4162
I1
aI1
aI0
aI0
aI1
aI0
aI1
aI0
aI11
aI4
asS'R Vinay Kumar'
p4163
(lp4164
I1
aI1
aI0
aI0
aI0
aI0
aI0
aI0
aI1
aI2
asS'Varun Aaron'
p4165
(lp4166
I2
aI1
aI0
aI0
aI4
aI0
aI2
aI0
aI29
aI9
assS'DJ Muthuswami'
p4167
(dp4168
S'Harshal Patel'
p4169
(lp4170
I1
aI1
aI0
aI0
aI0
aI0
aI0
aI0
aI1
aI2
asS'D Wiese'
p4171
(lp4172
I1
aI0
aI0
aI0
aI0
aI0
aI0
aI0
aI0
aI1
assS'BE Hendricks'
p4173
(dp4174
S'Ashish Nehra'
p4175
(lp4176
I1
aI1
aI0
aI0
aI0
aI0
aI0
aI0
aI1
aI2
assS'Sandeep Sharma'
p4177
(dp4178
S'MM Sharma'
p4179
(lp4180
I3
aI1
aI0
aI0
aI0
aI0
aI0
aI0
aI1
aI4
asS'Praveen Kumar'
p4181
(lp4182
I0
aI1
aI0
aI0
aI0
aI0
aI0
aI0
aI1
aI1
asS'Yuzvendra Chahal'
p4183
(lp4184
I1
aI1
aI0
aI0
aI1
aI0
aI0
aI0
aI5
aI3
asS'Mitchell Starc'
p4185
(lp4186
I2
aI0
aI0
aI0
aI0
aI0
aI0
aI0
aI0
aI2
asS'D Wiese'
p4187
(lp4188
I2
aI2
aI0
aI0
aI0
aI0
aI0
aI0
aI2
aI4
assS'Suresh Raina'
p4189
(dp4190
S'Albie Morkel'
p4191
(lp4192
I1
aI0
aI1
aI0
aI1
aI0
aI0
aI0
aI6
aI3
asS'Axar Patel'
p4193
(lp4194
I0
aI10
aI0
aI0
aI2
aI0
aI0
aI0
aI18
aI12
asS'D Wiese'
p4195
(lp4196
I11
aI11
aI1
aI0
aI2
aI0
aI2
aI0
aI33
aI27
asS'BE Hendricks'
p4197
(lp4198
I1
aI3
aI0
aI0
aI0
aI0
aI0
aI0
aI3
aI4
asS'Mitchell Starc'
p4199
(lp4200
I2
aI1
aI0
aI0
aI0
aI0
aI0
aI0
aI1
aI3
asS'Harbhajan Singh'
p4201
(lp4202
I14
aI16
aI1
aI0
aI2
aI0
aI4
aI0
aI50
aI37
asS'Lasith Malinga'
p4203
(lp4204
I0
aI8
aI0
aI0
aI0
aI0
aI0
aI0
aI8
aI8
asS'I Sharma'
p4205
(lp4206
I0
aI1
aI1
aI0
aI0
aI0
aI0
aI0
aI3
aI2
asS'MJ McClenaghan'
p4207
(lp4208
I1
aI0
aI0
aI0
aI1
aI0
aI0
aI0
aI4
aI2
asS'Karanveer Singh'
p4209
(lp4210
I3
aI0
aI0
aI0
aI0
aI0
aI0
aI0
aI0
aI3
asS'Brad Hogg'
p4211
(lp4212
I5
aI2
aI0
aI0
aI0
aI0
aI0
aI0
aI2
aI7
asS'Gurkeerat Singh'
p4213
(lp4214
I3
aI3
aI3
aI0
aI2
aI0
aI0
aI0
aI17
aI11
asS'NM Coulter-Nile'
p4215
(lp4216
I5
aI1
aI0
aI1
aI0
aI0
aI0
aI0
aI4
aI7
asS'Anureet Singh'
p4217
(lp4218
I4
aI8
aI0
aI0
aI3
aI0
aI0
aI0
aI20
aI15
asS'Kieron Pollard'
p4219
(lp4220
I5
aI10
aI1
aI0
aI4
aI0
aI0
aI0
aI28
aI20
asS'Harshal Patel'
p4221
(lp4222
I22
aI7
aI2
aI0
aI5
aI0
aI0
aI0
aI31
aI36
asS'Sandeep Sharma'
p4223
(lp4224
I4
aI1
aI1
aI0
aI1
aI0
aI0
aI0
aI7
aI7
asS'Ankit Sharma'
p4225
(lp4226
I0
aI1
aI1
aI0
aI0
aI0
aI0
aI0
aI3
aI2
asS'PV Tambe'
p4227
(lp4228
I4
aI2
aI0
aI0
aI0
aI0
aI0
aI0
aI2
aI6
asS'Parvez Rasool'
p4229
(lp4230
I0
aI1
aI0
aI0
aI0
aI0
aI0
aI0
aI1
aI1
asS'KV Sharma'
p4231
(lp4232
I1
aI3
aI0
aI0
aI0
aI0
aI1
aI0
aI9
aI5
asS'Glenn Maxwell'
p4233
(lp4234
I2
aI1
aI0
aI0
aI0
aI0
aI0
aI0
aI1
aI3
asS'Bhuvneshwar Kumar'
p4235
(lp4236
I4
aI3
aI0
aI0
aI1
aI0
aI1
aI0
aI13
aI9
asS'PJ Cummins'
p4237
(lp4238
I1
aI0
aI0
aI0
aI0
aI0
aI0
aI0
aI0
aI1
asS'Iqbal Abdulla'
p4239
(lp4240
I3
aI7
aI2
aI0
aI4
aI0
aI4
aI0
aI51
aI20
asS'Mitchell Johnson'
p4241
(lp4242
I1
aI3
aI0
aI0
aI0
aI0
aI0
aI0
aI3
aI4
asS'Yuzvendra Chahal'
p4243
(lp4244
I7
aI6
aI1
aI0
aI2
aI0
aI7
aI0
aI58
aI23
asS'J Suchith'
p4245
(lp4246
I2
aI0
aI0
aI0
aI1
aI0
aI0
aI0
aI4
aI3
asS'J Yadav'
p4247
(lp4248
I1
aI0
aI0
aI0
aI0
aI0
aI0
aI0
aI0
aI1
asS'UT Yadav'
p4249
(lp4250
I11
aI0
aI0
aI0
aI3
aI0
aI0
aI0
aI12
aI14
asS'RS Bopara'
p4251
(lp4252
I1
aI3
aI0
aI0
aI0
aI0
aI0
aI0
aI3
aI4
asS'HH Pandya'
p4253
(lp4254
I2
aI2
aI1
aI0
aI2
aI0
aI0
aI0
aI12
aI7
asS'P Suyal'
p4255
(lp4256
I2
aI4
aI2
aI0
aI0
aI0
aI0
aI0
aI8
aI8
asS'Chris Morris'
p4257
(lp4258
I8
aI0
aI2
aI0
aI0
aI0
aI0
aI0
aI4
aI10
asS'Moises Henriques'
p4259
(lp4260
I2
aI2
aI0
aI0
aI0
aI0
aI0
aI0
aI2
aI4
asS'S Nadeem'
p4261
(lp4262
I0
aI1
aI0
aI0
aI0
aI0
aI0
aI0
aI1
aI1
asS'Shikhar Dhawan'
p4263
(lp4264
I0
aI1
aI0
aI0
aI0
aI0
aI0
aI0
aI1
aI1
asS'GS Sandhu'
p4265
(lp4266
I0
aI2
aI1
aI0
aI0
aI0
aI0
aI0
aI4
aI3
asS'R Vinay Kumar'
p4267
(lp4268
I9
aI7
aI1
aI0
aI2
aI0
aI3
aI0
aI35
aI22
asS'Praveen Kumar'
p4269
(lp4270
I1
aI0
aI0
aI0
aI0
aI0
aI1
aI0
aI6
aI2
asS'DJ Hooda'
p4271
(lp4272
I2
aI2
aI0
aI0
aI0
aI0
aI0
aI0
aI2
aI4
asS'Virat Kohli'
p4273
(lp4274
I1
aI2
aI0
aI0
aI0
aI0
aI0
aI0
aI2
aI3
asS'Andre Russell'
p4275
(lp4276
I5
aI1
aI0
aI0
aI1
aI0
aI0
aI0
aI5
aI7
asS'Piyush Chawla'
p4277
(lp4278
I1
aI0
aI0
aI0
aI0
aI0
aI1
aI0
aI6
aI2
assS'KM Jadhav'
p4279
(dp4280
S'MM Sharma'
p4281
(lp4282
I4
aI0
aI0
aI0
aI0
aI0
aI0
aI0
aI0
aI4
asS'Axar Patel'
p4283
(lp4284
I2
aI2
aI0
aI0
aI0
aI0
aI0
aI0
aI2
aI4
asS'D Wiese'
p4285
(lp4286
I1
aI3
aI1
aI0
aI0
aI0
aI0
aI0
aI5
aI5
asS'Johan Botha'
p4287
(lp4288
I0
aI2
aI0
aI0
aI0
aI0
aI1
aI0
aI8
aI3
asS'Mitchell Starc'
p4289
(lp4290
I0
aI2
aI0
aI0
aI2
aI0
aI0
aI0
aI10
aI4
asS'Harbhajan Singh'
p4291
(lp4292
I3
aI2
aI0
aI1
aI0
aI0
aI0
aI0
aI5
aI6
asS'Stuart Binny'
p4293
(lp4294
I1
aI0
aI2
aI0
aI0
aI0
aI0
aI0
aI4
aI3
asS'I Sharma'
p4295
(lp4296
I1
aI3
aI1
aI0
aI1
aI0
aI0
aI0
aI9
aI6
asS'Ravindra Jadeja'
p4297
(lp4298
I0
aI1
aI0
aI0
aI0
aI0
aI0
aI0
aI1
aI1
asS'Dwayne Bravo'
p4299
(lp4300
I0
aI2
aI0
aI0
aI0
aI0
aI0
aI0
aI2
aI2
asS'Anureet Singh'
p4301
(lp4302
I2
aI4
aI0
aI0
aI0
aI0
aI0
aI0
aI4
aI6
asS'Sunil Narine'
p4303
(lp4304
I6
aI2
aI0
aI0
aI2
aI0
aI2
aI0
aI22
aI12
asS'Harshal Patel'
p4305
(lp4306
I5
aI2
aI0
aI0
aI1
aI0
aI0
aI0
aI6
aI8
asS'A Ashish Reddy'
p4307
(lp4308
I4
aI2
aI0
aI0
aI0
aI0
aI0
aI0
aI2
aI6
asS'Parvez Rasool'
p4309
(lp4310
I0
aI2
aI0
aI0
aI0
aI0
aI0
aI0
aI2
aI2
asS'KV Sharma'
p4311
(lp4312
I0
aI3
aI0
aI0
aI0
aI0
aI0
aI0
aI3
aI3
asS'Bhuvneshwar Kumar'
p4313
(lp4314
I3
aI12
aI2
aI0
aI4
aI0
aI0
aI0
aI32
aI21
asS'Jasprit Bumrah'
p4315
(lp4316
I0
aI1
aI0
aI0
aI0
aI0
aI0
aI0
aI1
aI1
asS'Iqbal Abdulla'
p4317
(lp4318
I2
aI5
aI1
aI0
aI1
aI0
aI0
aI0
aI11
aI9
asS'J Suchith'
p4319
(lp4320
I4
aI2
aI1
aI0
aI0
aI0
aI1
aI0
aI10
aI8
asS'Dhawal Kulkarni'
p4321
(lp4322
I1
aI0
aI0
aI0
aI0
aI0
aI0
aI0
aI0
aI1
asS'UT Yadav'
p4323
(lp4324
I4
aI2
aI0
aI0
aI0
aI0
aI0
aI0
aI2
aI6
asS'RS Bopara'
p4325
(lp4326
I1
aI1
aI0
aI0
aI3
aI0
aI0
aI0
aI13
aI5
asS'Lasith Malinga'
p4327
(lp4328
I0
aI1
aI0
aI0
aI0
aI0
aI0
aI0
aI1
aI1
asS'Moises Henriques'
p4329
(lp4330
I2
aI1
aI1
aI0
aI1
aI0
aI0
aI0
aI7
aI5
asS'Varun Aaron'
p4331
(lp4332
I3
aI1
aI0
aI0
aI0
aI0
aI0
aI0
aI1
aI4
asS'Praveen Kumar'
p4333
(lp4334
I0
aI5
aI0
aI0
aI1
aI0
aI4
aI0
aI33
aI10
asS'Ravichandran Ashwin'
p4335
(lp4336
I1
aI5
aI1
aI0
aI1
aI0
aI0
aI0
aI11
aI8
asS'Andre Russell'
p4337
(lp4338
I0
aI2
aI0
aI0
aI0
aI0
aI0
aI0
aI2
aI2
asS'IC Pandey'
p4339
(lp4340
I2
aI3
aI0
aI0
aI1
aI0
aI0
aI0
aI7
aI6
asS'Piyush Chawla'
p4341
(lp4342
I1
aI0
aI0
aI0
aI0
aI0
aI0
aI0
aI0
aI1
asS'Rajat Bhatia'
p4343
(lp4344
I1
aI1
aI0
aI0
aI0
aI0
aI1
aI0
aI7
aI3
assS'AP Tare'
p4345
(dp4346
S'Morne Morkel'
p4347
(lp4348
I1
aI2
aI0
aI0
aI1
aI0
aI0
aI0
aI6
aI4
asS'Anureet Singh'
p4349
(lp4350
I2
aI1
aI1
aI0
aI0
aI0
aI0
aI0
aI3
aI4
asS'Shakib Al Hasan'
p4351
(lp4352
I2
aI1
aI0
aI0
aI0
aI0
aI0
aI0
aI1
aI3
asS'Sandeep Sharma'
p4353
(lp4354
I2
aI4
aI0
aI0
aI0
aI0
aI0
aI0
aI4
aI6
assS'Amit Mishra'
p4355
(dp4356
S'D Wiese'
p4357
(lp4358
I0
aI1
aI0
aI0
aI0
aI0
aI0
aI0
aI1
aI1
asS'Ashish Nehra'
p4359
(lp4360
I0
aI1
aI1
aI0
aI0
aI0
aI0
aI0
aI3
aI2
asS'Mitchell Starc'
p4361
(lp4362
I2
aI1
aI0
aI0
aI0
aI0
aI0
aI0
aI1
aI3
asS'Dhawal Kulkarni'
p4363
(lp4364
I1
aI0
aI0
aI0
aI0
aI0
aI0
aI0
aI0
aI1
asS'UT Yadav'
p4365
(lp4366
I0
aI2
aI0
aI0
aI0
aI0
aI0
aI0
aI2
aI2
asS'Ravichandran Ashwin'
p4367
(lp4368
I1
aI1
aI0
aI0
aI0
aI0
aI0
aI0
aI1
aI2
asS'TG Southee'
p4369
(lp4370
I1
aI1
aI0
aI0
aI0
aI0
aI0
aI0
aI1
aI2
assS'Ajinkya Rahane'
p4371
(dp4372
S'Corey Anderson'
p4373
(lp4374
I0
aI4
aI0
aI0
aI2
aI0
aI0
aI0
aI12
aI6
asS'Axar Patel'
p4375
(lp4376
I8
aI16
aI6
aI0
aI0
aI0
aI0
aI0
aI28
aI30
asS'D Wiese'
p4377
(lp4378
I1
aI4
aI2
aI0
aI2
aI0
aI0
aI0
aI16
aI9
asS'MM Sharma'
p4379
(lp4380
I8
aI9
aI8
aI0
aI1
aI0
aI2
aI0
aI41
aI28
asS'Ashish Nehra'
p4381
(lp4382
I12
aI16
aI2
aI0
aI9
aI0
aI0
aI0
aI56
aI39
asS'Shivam Sharma'
p4383
(lp4384
I2
aI6
aI4
aI0
aI0
aI0
aI2
aI0
aI26
aI14
asS'TA Boult'
p4385
(lp4386
I14
aI4
aI2
aI0
aI6
aI0
aI0
aI0
aI32
aI26
asS'Mitchell Starc'
p4387
(lp4388
I4
aI4
aI0
aI0
aI0
aI0
aI0
aI0
aI4
aI8
asS'Angelo Mathews'
p4389
(lp4390
I7
aI9
aI2
aI0
aI1
aI0
aI0
aI0
aI17
aI19
asS'MJ McClenaghan'
p4391
(lp4392
I1
aI4
aI0
aI0
aI1
aI0
aI0
aI0
aI8
aI6
asS'JD Unadkat'
p4393
(lp4394
I6
aI4
aI1
aI0
aI1
aI0
aI1
aI0
aI16
aI13
asS'Amit Mishra'
p4395
(lp4396
I2
aI6
aI3
aI0
aI1
aI0
aI1
aI0
aI22
aI13
asS'Ravindra Jadeja'
p4397
(lp4398
I4
aI12
aI2
aI0
aI0
aI0
aI0
aI0
aI16
aI18
asS'Dwayne Bravo'
p4399
(lp4400
I2
aI6
aI0
aI0
aI2
aI0
aI2
aI0
aI26
aI12
asS'NM Coulter-Nile'
p4401
(lp4402
I5
aI9
aI0
aI0
aI2
aI0
aI3
aI0
aI35
aI19
asS'Anureet Singh'
p4403
(lp4404
I8
aI10
aI0
aI0
aI0
aI0
aI2
aI0
aI22
aI20
asS'Azhar Mahmood'
p4405
(lp4406
I2
aI3
aI0
aI0
aI1
aI0
aI1
aI0
aI13
aI7
asS'Harshal Patel'
p4407
(lp4408
I3
aI5
aI0
aI0
aI2
aI0
aI0
aI0
aI13
aI10
asS'Sandeep Sharma'
p4409
(lp4410
I10
aI6
aI4
aI0
aI2
aI0
aI0
aI0
aI22
aI22
asS'A Ashish Reddy'
p4411
(lp4412
I2
aI2
aI0
aI0
aI0
aI0
aI0
aI0
aI2
aI4
asS'S Aravind'
p4413
(lp4414
I5
aI5
aI0
aI0
aI1
aI0
aI0
aI0
aI9
aI11
asS'KV Sharma'
p4415
(lp4416
I8
aI8
aI4
aI0
aI2
aI0
aI0
aI0
aI24
aI22
asS'Glenn Maxwell'
p4417
(lp4418
I0
aI4
aI0
aI0
aI0
aI0
aI0
aI0
aI4
aI4
asS'Bhuvneshwar Kumar'
p4419
(lp4420
I14
aI8
aI2
aI0
aI8
aI0
aI0
aI0
aI44
aI32
asS'Imran Tahir'
p4421
(lp4422
I4
aI2
aI0
aI0
aI0
aI0
aI0
aI0
aI2
aI6
asS'Iqbal Abdulla'
p4423
(lp4424
I1
aI2
aI0
aI0
aI1
aI0
aI1
aI0
aI12
aI5
asS'Zaheer Khan'
p4425
(lp4426
I1
aI2
aI1
aI0
aI3
aI0
aI0
aI0
aI16
aI7
asS'Mitchell Johnson'
p4427
(lp4428
I10
aI6
aI0
aI0
aI10
aI0
aI0
aI0
aI46
aI26
asS'Yuzvendra Chahal'
p4429
(lp4430
I3
aI4
aI1
aI0
aI0
aI0
aI0
aI0
aI6
aI8
asS'J Suchith'
p4431
(lp4432
I6
aI14
aI6
aI0
aI2
aI0
aI0
aI0
aI34
aI28
asS'UT Yadav'
p4433
(lp4434
I1
aI3
aI0
aI0
aI0
aI0
aI0
aI0
aI3
aI4
asS'RS Bopara'
p4435
(lp4436
I14
aI8
aI0
aI0
aI4
aI0
aI0
aI0
aI24
aI26
asS'Lasith Malinga'
p4437
(lp4438
I1
aI4
aI3
aI0
aI1
aI0
aI0
aI0
aI14
aI9
asS'P Suyal'
p4439
(lp4440
I4
aI4
aI2
aI0
aI2
aI0
aI0
aI0
aI16
aI12
asS'S Gopal'
p4441
(lp4442
I4
aI4
aI4
aI0
aI0
aI0
aI0
aI0
aI12
aI12
asS'GS Sandhu'
p4443
(lp4444
I3
aI3
aI3
aI0
aI3
aI0
aI0
aI0
aI21
aI12
asS'R Vinay Kumar'
p4445
(lp4446
I11
aI4
aI0
aI0
aI2
aI0
aI0
aI0
aI12
aI17
asS'Yuvraj Singh'
p4447
(lp4448
I0
aI3
aI0
aI0
aI0
aI0
aI1
aI0
aI9
aI4
asS'Praveen Kumar'
p4449
(lp4450
I2
aI6
aI0
aI0
aI0
aI0
aI0
aI0
aI6
aI8
asS'Ravichandran Ashwin'
p4451
(lp4452
I0
aI10
aI2
aI0
aI2
aI0
aI0
aI0
aI22
aI14
asS'Morne Morkel'
p4453
(lp4454
I4
aI1
aI3
aI0
aI2
aI0
aI1
aI0
aI21
aI11
asS'IC Pandey'
p4455
(lp4456
I8
aI6
aI0
aI0
aI2
aI0
aI0
aI0
aI14
aI16
assS'PV Tambe'
p4457
(dp4458
S'Dwayne Bravo'
p4459
(lp4460
I0
aI1
aI0
aI0
aI0
aI0
aI0
aI0
aI1
aI1
asS'Mitchell Starc'
p4461
(lp4462
I2
aI2
aI0
aI0
aI0
aI0
aI0
aI0
aI2
aI4
assS'George Bailey'
p4463
(dp4464
S'D Wiese'
p4465
(lp4466
I0
aI1
aI1
aI0
aI1
aI0
aI0
aI0
aI7
aI3
asS'James Faulkner'
p4467
(lp4468
I1
aI3
aI1
aI0
aI1
aI0
aI1
aI0
aI15
aI7
asS'Ashish Nehra'
p4469
(lp4470
I2
aI1
aI0
aI0
aI0
aI0
aI0
aI0
aI1
aI3
asS'TA Boult'
p4471
(lp4472
I1
aI2
aI0
aI0
aI0
aI0
aI0
aI0
aI2
aI3
asS'Harbhajan Singh'
p4473
(lp4474
I3
aI5
aI1
aI0
aI0
aI0
aI0
aI0
aI7
aI9
asS'Piyush Chawla'
p4475
(lp4476
I10
aI16
aI0
aI0
aI0
aI0
aI2
aI0
aI28
aI28
asS'MJ McClenaghan'
p4477
(lp4478
I0
aI3
aI1
aI0
aI0
aI0
aI0
aI0
aI5
aI4
asS'Amit Mishra'
p4479
(lp4480
I2
aI3
aI0
aI0
aI2
aI0
aI2
aI0
aI23
aI9
asS'Ravindra Jadeja'
p4481
(lp4482
I1
aI0
aI0
aI0
aI0
aI0
aI0
aI0
aI0
aI1
asS'NM Coulter-Nile'
p4483
(lp4484
I3
aI2
aI0
aI0
aI2
aI0
aI0
aI0
aI10
aI7
asS'Kieron Pollard'
p4485
(lp4486
I1
aI4
aI0
aI0
aI1
aI0
aI0
aI0
aI8
aI6
asS'Harshal Patel'
p4487
(lp4488
I0
aI2
aI1
aI0
aI0
aI0
aI0
aI0
aI4
aI3
asS'Sunil Narine'
p4489
(lp4490
I4
aI10
aI4
aI0
aI0
aI0
aI0
aI0
aI18
aI18
asS'PV Tambe'
p4491
(lp4492
I2
aI1
aI0
aI0
aI0
aI0
aI0
aI0
aI1
aI3
asS'S Aravind'
p4493
(lp4494
I1
aI1
aI0
aI0
aI0
aI0
aI0
aI0
aI1
aI2
asS'KV Sharma'
p4495
(lp4496
I2
aI4
aI1
aI0
aI0
aI0
aI0
aI0
aI6
aI7
asS'Bhuvneshwar Kumar'
p4497
(lp4498
I1
aI2
aI0
aI0
aI0
aI0
aI0
aI0
aI2
aI3
asS'Jean-Paul Duminy'
p4499
(lp4500
I0
aI6
aI2
aI0
aI0
aI0
aI0
aI0
aI10
aI8
asS'TG Southee'
p4501
(lp4502
I0
aI1
aI0
aI0
aI0
aI0
aI0
aI0
aI1
aI1
asS'Imran Tahir'
p4503
(lp4504
I4
aI4
aI2
aI0
aI0
aI0
aI0
aI0
aI8
aI10
asS'Pawan Negi'
p4505
(lp4506
I0
aI1
aI1
aI0
aI1
aI0
aI0
aI0
aI7
aI3
asS'Zaheer Khan'
p4507
(lp4508
I2
aI1
aI0
aI0
aI1
aI0
aI0
aI0
aI5
aI4
asS'Yuzvendra Chahal'
p4509
(lp4510
I2
aI3
aI0
aI0
aI0
aI0
aI0
aI0
aI3
aI5
asS'J Suchith'
p4511
(lp4512
I0
aI3
aI3
aI0
aI0
aI0
aI1
aI0
aI15
aI7
asS'Dhawal Kulkarni'
p4513
(lp4514
I2
aI0
aI0
aI0
aI1
aI0
aI0
aI0
aI4
aI3
asS'UT Yadav'
p4515
(lp4516
I0
aI6
aI0
aI0
aI6
aI0
aI0
aI0
aI30
aI12
asS'Lasith Malinga'
p4517
(lp4518
I2
aI9
aI2
aI0
aI2
aI0
aI1
aI0
aI27
aI16
asS'P Suyal'
p4519
(lp4520
I0
aI2
aI0
aI0
aI2
aI0
aI0
aI0
aI10
aI4
asS'Chris Morris'
p4521
(lp4522
I2
aI1
aI1
aI0
aI0
aI0
aI0
aI0
aI3
aI4
asS'Moises Henriques'
p4523
(lp4524
I4
aI3
aI1
aI0
aI0
aI0
aI0
aI0
aI5
aI8
asS'R Vinay Kumar'
p4525
(lp4526
I0
aI2
aI1
aI0
aI0
aI0
aI1
aI0
aI10
aI4
asS'Praveen Kumar'
p4527
(lp4528
I2
aI1
aI0
aI0
aI3
aI0
aI0
aI0
aI13
aI6
asS'Morne Morkel'
p4529
(lp4530
I8
aI2
aI0
aI0
aI0
aI0
aI2
aI0
aI14
aI12
asS'Andre Russell'
p4531
(lp4532
I4
aI10
aI2
aI0
aI4
aI0
aI0
aI0
aI30
aI20
asS'IC Pandey'
p4533
(lp4534
I1
aI1
aI0
aI0
aI1
aI0
aI0
aI0
aI5
aI3
assS'Glenn Maxwell'
p4535
(dp4536
S'Bipul Sharma'
p4537
(lp4538
I2
aI1
aI0
aI0
aI0
aI0
aI1
aI0
aI7
aI4
asS'MJ McClenaghan'
p4539
(lp4540
I2
aI1
aI0
aI0
aI0
aI0
aI0
aI0
aI1
aI3
asS'D Wiese'
p4541
(lp4542
I2
aI1
aI0
aI0
aI0
aI0
aI0
aI0
aI1
aI3
asS'James Faulkner'
p4543
(lp4544
I2
aI0
aI1
aI0
aI0
aI0
aI0
aI0
aI2
aI3
asS'Ashish Nehra'
p4545
(lp4546
I5
aI0
aI0
aI0
aI1
aI0
aI0
aI0
aI4
aI6
asS'TA Boult'
p4547
(lp4548
I1
aI0
aI0
aI0
aI1
aI0
aI0
aI0
aI4
aI2
asS'Harbhajan Singh'
p4549
(lp4550
I0
aI1
aI0
aI0
aI0
aI0
aI0
aI0
aI1
aI1
asS'Piyush Chawla'
p4551
(lp4552
I0
aI7
aI3
aI0
aI1
aI0
aI1
aI0
aI23
aI12
asS'R Tewatia'
p4553
(lp4554
I6
aI0
aI0
aI0
aI0
aI0
aI0
aI0
aI0
aI6
asS'Brad Hogg'
p4555
(lp4556
I2
aI0
aI0
aI0
aI2
aI0
aI1
aI0
aI14
aI5
asS'Ravindra Jadeja'
p4557
(lp4558
I3
aI0
aI0
aI0
aI0
aI0
aI0
aI0
aI0
aI3
asS'Harshal Patel'
p4559
(lp4560
I4
aI2
aI0
aI0
aI1
aI0
aI0
aI0
aI6
aI7
asS'Sunil Narine'
p4561
(lp4562
I16
aI5
aI0
aI0
aI2
aI0
aI0
aI0
aI13
aI23
asS'PV Tambe'
p4563
(lp4564
I4
aI2
aI0
aI0
aI0
aI0
aI0
aI0
aI2
aI6
asS'S Aravind'
p4565
(lp4566
I2
aI2
aI1
aI0
aI0
aI0
aI0
aI0
aI4
aI5
asS'Imran Tahir'
p4567
(lp4568
I2
aI2
aI2
aI0
aI0
aI0
aI4
aI0
aI30
aI10
asS'J Suchith'
p4569
(lp4570
I2
aI1
aI0
aI0
aI2
aI0
aI0
aI0
aI9
aI5
asS'Dhawal Kulkarni'
p4571
(lp4572
I0
aI1
aI0
aI0
aI1
aI0
aI0
aI0
aI5
aI2
asS'UT Yadav'
p4573
(lp4574
I3
aI4
aI0
aI0
aI1
aI0
aI0
aI0
aI8
aI8
asS'Lasith Malinga'
p4575
(lp4576
I1
aI1
aI1
aI0
aI0
aI0
aI0
aI0
aI3
aI3
asS'R Vinay Kumar'
p4577
(lp4578
I0
aI0
aI0
aI0
aI1
aI0
aI0
aI0
aI4
aI1
asS'Ravichandran Ashwin'
p4579
(lp4580
I3
aI1
aI0
aI0
aI0
aI0
aI0
aI0
aI1
aI4
asS'Morne Morkel'
p4581
(lp4582
I2
aI2
aI0
aI0
aI2
aI0
aI2
aI0
aI22
aI8
asS'Andre Russell'
p4583
(lp4584
I6
aI7
aI2
aI0
aI0
aI0
aI3
aI0
aI29
aI18
asS'IC Pandey'
p4585
(lp4586
I0
aI1
aI0
aI0
aI0
aI0
aI0
aI0
aI1
aI1
assS'LMP Simmons'
p4587
(dp4588
S'MM Sharma'
p4589
(lp4590
I4
aI6
aI3
aI0
aI2
aI0
aI1
aI0
aI26
aI16
asS'Axar Patel'
p4591
(lp4592
I2
aI4
aI2
aI0
aI0
aI0
aI1
aI0
aI14
aI9
asS'D Wiese'
p4593
(lp4594
I10
aI9
aI0
aI0
aI3
aI0
aI1
aI0
aI27
aI23
asS'Ashish Nehra'
p4595
(lp4596
I22
aI7
aI4
aI0
aI5
aI0
aI2
aI0
aI47
aI40
asS'DJ Muthuswami'
p4597
(lp4598
I2
aI1
aI0
aI0
aI0
aI0
aI0
aI0
aI1
aI3
asS'Mitchell Starc'
p4599
(lp4600
I1
aI5
aI0
aI0
aI1
aI0
aI0
aI0
aI9
aI7
asS'M Vijay'
p4601
(lp4602
I0
aI1
aI1
aI0
aI1
aI0
aI0
aI0
aI7
aI3
asS'Karanveer Singh'
p4603
(lp4604
I5
aI3
aI0
aI1
aI3
aI0
aI0
aI0
aI18
aI12
asS'NM Coulter-Nile'
p4605
(lp4606
I6
aI1
aI0
aI0
aI2
aI0
aI0
aI0
aI9
aI9
asS'Ravindra Jadeja'
p4607
(lp4608
I10
aI5
aI1
aI0
aI5
aI0
aI2
aI0
aI39
aI23
asS'Dwayne Bravo'
p4609
(lp4610
I2
aI3
aI0
aI0
aI0
aI0
aI0
aI0
aI3
aI5
asS'Anureet Singh'
p4611
(lp4612
I8
aI1
aI1
aI0
aI2
aI0
aI0
aI0
aI11
aI12
asS'Harshal Patel'
p4613
(lp4614
I4
aI6
aI1
aI0
aI0
aI0
aI1
aI0
aI14
aI12
asS'Sandeep Sharma'
p4615
(lp4616
I1
aI4
aI0
aI0
aI3
aI0
aI0
aI0
aI16
aI8
asS'Ankit Sharma'
p4617
(lp4618
I3
aI1
aI1
aI0
aI1
aI0
aI0
aI0
aI7
aI6
asS'AN Ahmed'
p4619
(lp4620
I2
aI2
aI0
aI0
aI4
aI0
aI0
aI0
aI18
aI8
asS'TA Boult'
p4621
(lp4622
I5
aI2
aI1
aI0
aI2
aI0
aI0
aI0
aI12
aI10
asS'S Aravind'
p4623
(lp4624
I8
aI4
aI1
aI0
aI1
aI0
aI0
aI0
aI10
aI14
asS'KV Sharma'
p4625
(lp4626
I4
aI9
aI1
aI0
aI2
aI0
aI3
aI0
aI37
aI19
asS'Glenn Maxwell'
p4627
(lp4628
I3
aI1
aI0
aI0
aI0
aI0
aI0
aI0
aI1
aI4
asS'Bhuvneshwar Kumar'
p4629
(lp4630
I11
aI3
aI1
aI0
aI0
aI0
aI0
aI0
aI5
aI15
asS'Jean-Paul Duminy'
p4631
(lp4632
I0
aI1
aI0
aI0
aI1
aI0
aI0
aI0
aI5
aI2
asS'TG Southee'
p4633
(lp4634
I4
aI2
aI1
aI0
aI1
aI0
aI0
aI0
aI8
aI8
asS'Pawan Negi'
p4635
(lp4636
I4
aI9
aI1
aI0
aI1
aI0
aI1
aI0
aI21
aI16
asS'Iqbal Abdulla'
p4637
(lp4638
I14
aI8
aI2
aI0
aI0
aI0
aI2
aI0
aI24
aI26
asS'Zaheer Khan'
p4639
(lp4640
I1
aI0
aI0
aI0
aI0
aI0
aI0
aI0
aI0
aI1
asS'Mitchell Johnson'
p4641
(lp4642
I5
aI2
aI1
aI0
aI0
aI0
aI0
aI0
aI4
aI8
asS'Yuzvendra Chahal'
p4643
(lp4644
I5
aI8
aI1
aI0
aI2
aI0
aI1
aI0
aI24
aI17
asS'Dhawal Kulkarni'
p4645
(lp4646
I2
aI1
aI1
aI0
aI1
aI0
aI0
aI0
aI7
aI5
asS'UT Yadav'
p4647
(lp4648
I2
aI1
aI0
aI0
aI0
aI0
aI0
aI0
aI1
aI3
asS'Shakib Al Hasan'
p4649
(lp4650
I1
aI1
aI0
aI0
aI1
aI0
aI0
aI0
aI5
aI3
asS'Stuart Binny'
p4651
(lp4652
I1
aI2
aI0
aI0
aI0
aI0
aI0
aI0
aI2
aI3
asS'Moises Henriques'
p4653
(lp4654
I5
aI4
aI0
aI0
aI0
aI0
aI0
aI0
aI4
aI9
asS'Dale Steyn'
p4655
(lp4656
I2
aI7
aI1
aI0
aI5
aI0
aI0
aI0
aI29
aI15
asS'DR Smith'
p4657
(lp4658
I1
aI0
aI0
aI0
aI0
aI0
aI0
aI0
aI0
aI1
asS'Shane Watson'
p4659
(lp4660
I3
aI2
aI0
aI0
aI1
aI0
aI1
aI0
aI12
aI7
asS'J Theron'
p4661
(lp4662
I0
aI2
aI0
aI0
aI0
aI0
aI0
aI0
aI2
aI2
asS'Varun Aaron'
p4663
(lp4664
I20
aI0
aI0
aI0
aI12
aI0
aI2
aI0
aI60
aI34
asS'Praveen Kumar'
p4665
(lp4666
I9
aI8
aI0
aI0
aI1
aI0
aI0
aI0
aI12
aI18
asS'Ravichandran Ashwin'
p4667
(lp4668
I18
aI9
aI0
aI0
aI1
aI0
aI4
aI0
aI37
aI32
asS'Morne Morkel'
p4669
(lp4670
I7
aI2
aI0
aI0
aI0
aI0
aI1
aI0
aI8
aI10
asS'IC Pandey'
p4671
(lp4672
I18
aI0
aI0
aI0
aI2
aI0
aI0
aI0
aI8
aI20
assS'SA Abbott'
p4673
(dp4674
S'TA Boult'
p4675
(lp4676
I1
aI0
aI0
aI0
aI0
aI0
aI0
aI0
aI0
aI1
asS'Bhuvneshwar Kumar'
p4677
(lp4678
I1
aI2
aI0
aI0
aI0
aI0
aI0
aI0
aI2
aI3
asS'Praveen Kumar'
p4679
(lp4680
I2
aI0
aI1
aI0
aI1
aI0
aI1
aI0
aI12
aI5
asS'Shakib Al Hasan'
p4681
(lp4682
I2
aI0
aI0
aI0
aI0
aI0
aI0
aI0
aI0
aI2
asS'YK Pathan'
p4683
(lp4684
I1
aI1
aI0
aI0
aI0
aI0
aI0
aI0
aI1
aI2
assS'SA Yadav'
p4685
(dp4686
S'MM Sharma'
p4687
(lp4688
I2
aI0
aI0
aI0
aI0
aI0
aI0
aI0
aI0
aI2
asS'RG More'
p4689
(lp4690
I1
aI0
aI0
aI0
aI0
aI0
aI0
aI0
aI0
aI1
asS'BE Hendricks'
p4691
(lp4692
I1
aI0
aI0
aI0
aI1
aI0
aI0
aI0
aI4
aI2
asS'Mitchell Starc'
p4693
(lp4694
I2
aI0
aI0
aI0
aI0
aI0
aI0
aI0
aI0
aI2
asS'Harbhajan Singh'
p4695
(lp4696
I0
aI2
aI1
aI0
aI0
aI0
aI0
aI0
aI4
aI3
asS'Angelo Mathews'
p4697
(lp4698
I0
aI4
aI0
aI0
aI0
aI0
aI0
aI0
aI4
aI4
asS'MJ McClenaghan'
p4699
(lp4700
I1
aI0
aI0
aI0
aI0
aI0
aI0
aI0
aI0
aI1
asS'Amit Mishra'
p4701
(lp4702
I1
aI1
aI1
aI0
aI0
aI0
aI0
aI0
aI3
aI3
asS'Gurkeerat Singh'
p4703
(lp4704
I2
aI3
aI0
aI0
aI0
aI0
aI0
aI0
aI3
aI5
asS'Ravindra Jadeja'
p4705
(lp4706
I8
aI4
aI0
aI0
aI1
aI0
aI0
aI0
aI8
aI13
asS'NM Coulter-Nile'
p4707
(lp4708
I4
aI2
aI0
aI0
aI2
aI0
aI0
aI0
aI10
aI8
asS'Harshal Patel'
p4709
(lp4710
I1
aI0
aI0
aI0
aI0
aI0
aI0
aI0
aI0
aI1
asS'Sandeep Sharma'
p4711
(lp4712
I4
aI0
aI0
aI0
aI2
aI0
aI0
aI0
aI8
aI6
asS'Glenn Maxwell'
p4713
(lp4714
I0
aI2
aI0
aI0
aI0
aI0
aI0
aI0
aI2
aI2
asS'Bhuvneshwar Kumar'
p4715
(lp4716
I1
aI4
aI1
aI0
aI1
aI0
aI0
aI0
aI10
aI7
asS'Jean-Paul Duminy'
p4717
(lp4718
I4
aI2
aI2
aI0
aI0
aI0
aI2
aI0
aI18
aI10
asS'Jasprit Bumrah'
p4719
(lp4720
I2
aI2
aI0
aI0
aI0
aI0
aI3
aI0
aI20
aI7
asS'Imran Tahir'
p4721
(lp4722
I0
aI11
aI0
aI0
aI2
aI0
aI0
aI0
aI19
aI13
asS'Pawan Negi'
p4723
(lp4724
I0
aI2
aI0
aI0
aI0
aI0
aI0
aI0
aI2
aI2
asS'Zaheer Khan'
p4725
(lp4726
I0
aI1
aI0
aI0
aI0
aI0
aI0
aI0
aI1
aI1
asS'Mitchell Johnson'
p4727
(lp4728
I2
aI0
aI2
aI0
aI0
aI0
aI4
aI0
aI28
aI8
asS'Yuzvendra Chahal'
p4729
(lp4730
I2
aI2
aI0
aI0
aI1
aI0
aI0
aI0
aI6
aI5
asS'Lasith Malinga'
p4731
(lp4732
I1
aI2
aI2
aI0
aI0
aI0
aI1
aI0
aI12
aI6
asS'Chris Morris'
p4733
(lp4734
I1
aI0
aI0
aI0
aI0
aI0
aI0
aI0
aI0
aI1
asS'NLTC Perera'
p4735
(lp4736
I2
aI2
aI0
aI0
aI2
aI0
aI0
aI0
aI10
aI6
asS'Suresh Raina'
p4737
(lp4738
I3
aI4
aI1
aI0
aI0
aI0
aI0
aI0
aI6
aI8
asS'R Vinay Kumar'
p4739
(lp4740
I1
aI3
aI0
aI0
aI3
aI0
aI1
aI0
aI21
aI8
asS'Ravichandran Ashwin'
p4741
(lp4742
I1
aI2
aI0
aI0
aI0
aI0
aI0
aI0
aI2
aI3
asS'SA Abbott'
p4743
(lp4744
I1
aI1
aI0
aI0
aI1
aI0
aI0
aI0
aI5
aI3
assS'Manish Pandey'
p4745
(dp4746
S'MM Sharma'
p4747
(lp4748
I1
aI1
aI0
aI0
aI0
aI0
aI0
aI0
aI1
aI2
asS'Albie Morkel'
p4749
(lp4750
I1
aI1
aI0
aI0
aI1
aI0
aI0
aI0
aI5
aI3
asS'RG More'
p4751
(lp4752
I0
aI2
aI0
aI0
aI0
aI0
aI0
aI0
aI2
aI2
asS'Bipul Sharma'
p4753
(lp4754
I5
aI9
aI1
aI0
aI0
aI0
aI1
aI0
aI17
aI16
asS'Axar Patel'
p4755
(lp4756
I1
aI1
aI0
aI0
aI0
aI0
aI0
aI0
aI1
aI2
asS'James Faulkner'
p4757
(lp4758
I0
aI2
aI0
aI0
aI0
aI0
aI0
aI0
aI2
aI2
asS'Ashish Nehra'
p4759
(lp4760
I6
aI2
aI0
aI0
aI1
aI0
aI0
aI0
aI6
aI9
asS'DJ Muthuswami'
p4761
(lp4762
I6
aI0
aI0
aI0
aI0
aI0
aI0
aI0
aI0
aI6
asS'Harbhajan Singh'
p4763
(lp4764
I2
aI5
aI0
aI0
aI0
aI0
aI0
aI0
aI5
aI7
asS'Pragyan Ojha'
p4765
(lp4766
I0
aI3
aI0
aI0
aI0
aI0
aI1
aI0
aI9
aI4
asS'Corey Anderson'
p4767
(lp4768
I2
aI1
aI1
aI0
aI1
aI0
aI1
aI0
aI13
aI6
asS'Amit Mishra'
p4769
(lp4770
I3
aI2
aI0
aI0
aI0
aI0
aI0
aI0
aI2
aI5
asS'Gurkeerat Singh'
p4771
(lp4772
I2
aI2
aI0
aI0
aI0
aI0
aI0
aI0
aI2
aI4
asS'Ravindra Jadeja'
p4773
(lp4774
I0
aI2
aI0
aI0
aI0
aI0
aI0
aI0
aI2
aI2
asS'Anureet Singh'
p4775
(lp4776
I2
aI3
aI0
aI0
aI1
aI0
aI0
aI0
aI7
aI6
asS'Harshal Patel'
p4777
(lp4778
I1
aI0
aI0
aI0
aI0
aI0
aI0
aI0
aI0
aI1
asS'Sandeep Sharma'
p4779
(lp4780
I3
aI1
aI0
aI2
aI7
aI0
aI0
aI0
aI35
aI13
asS'AN Ahmed'
p4781
(lp4782
I1
aI0
aI0
aI0
aI0
aI0
aI0
aI0
aI0
aI1
asS'KV Sharma'
p4783
(lp4784
I5
aI8
aI1
aI0
aI1
aI0
aI1
aI0
aI20
aI16
asS'Glenn Maxwell'
p4785
(lp4786
I1
aI1
aI0
aI0
aI0
aI0
aI0
aI0
aI1
aI2
asS'RS Bopara'
p4787
(lp4788
I0
aI4
aI0
aI0
aI0
aI0
aI0
aI0
aI4
aI4
asS'Jasprit Bumrah'
p4789
(lp4790
I1
aI1
aI0
aI0
aI1
aI0
aI0
aI0
aI5
aI3
asS'Imran Tahir'
p4791
(lp4792
I1
aI3
aI1
aI0
aI0
aI0
aI1
aI0
aI11
aI6
asS'Pawan Negi'
p4793
(lp4794
I3
aI1
aI0
aI0
aI0
aI0
aI0
aI0
aI1
aI4
asS'Zaheer Khan'
p4795
(lp4796
I0
aI1
aI0
aI0
aI0
aI0
aI0
aI0
aI1
aI1
asS'Yuzvendra Chahal'
p4797
(lp4798
I3
aI3
aI1
aI0
aI1
aI0
aI0
aI0
aI9
aI8
asS'Dhawal Kulkarni'
p4799
(lp4800
I2
aI3
aI0
aI0
aI0
aI0
aI0
aI0
aI3
aI5
asS'Dale Steyn'
p4801
(lp4802
I2
aI4
aI0
aI0
aI4
aI0
aI0
aI0
aI20
aI10
asS'Lasith Malinga'
p4803
(lp4804
I1
aI2
aI0
aI0
aI0
aI0
aI1
aI0
aI8
aI4
asS'Bhuvneshwar Kumar'
p4805
(lp4806
I0
aI10
aI0
aI0
aI2
aI0
aI0
aI0
aI18
aI12
asS'Angelo Mathews'
p4807
(lp4808
I1
aI1
aI0
aI0
aI0
aI0
aI0
aI0
aI1
aI2
asS'Chris Morris'
p4809
(lp4810
I1
aI0
aI0
aI0
aI0
aI0
aI0
aI0
aI0
aI1
asS'Moises Henriques'
p4811
(lp4812
I2
aI2
aI0
aI0
aI0
aI0
aI2
aI0
aI14
aI6
asS'Shane Watson'
p4813
(lp4814
I1
aI2
aI0
aI0
aI1
aI0
aI0
aI0
aI6
aI4
asS'BB Sran'
p4815
(lp4816
I5
aI2
aI0
aI0
aI2
aI0
aI0
aI0
aI10
aI9
asS'R Vinay Kumar'
p4817
(lp4818
I0
aI1
aI0
aI0
aI0
aI0
aI0
aI0
aI1
aI1
asS'Varun Aaron'
p4819
(lp4820
I0
aI1
aI0
aI0
aI1
aI0
aI0
aI0
aI5
aI2
asS'Yuvraj Singh'
p4821
(lp4822
I1
aI0
aI1
aI0
aI0
aI0
aI0
aI0
aI2
aI2
asS'Praveen Kumar'
p4823
(lp4824
I6
aI2
aI2
aI0
aI0
aI0
aI0
aI0
aI6
aI10
asS'Ravichandran Ashwin'
p4825
(lp4826
I4
aI1
aI0
aI0
aI0
aI0
aI0
aI0
aI1
aI5
asS'SA Abbott'
p4827
(lp4828
I0
aI1
aI0
aI0
aI2
aI0
aI0
aI0
aI9
aI3
asS'IC Pandey'
p4829
(lp4830
I4
aI1
aI0
aI0
aI1
aI0
aI0
aI0
aI5
aI6
assS'Bipul Sharma'
p4831
(dp4832
S'Piyush Chawla'
p4833
(lp4834
I1
aI1
aI0
aI0
aI0
aI0
aI0
aI0
aI1
aI2
assS'Johan Botha'
p4835
(dp4836
S'Anureet Singh'
p4837
(lp4838
I1
aI0
aI0
aI0
aI0
aI0
aI0
aI0
aI0
aI1
asS'Axar Patel'
p4839
(lp4840
I0
aI2
aI0
aI0
aI0
aI0
aI0
aI0
aI2
aI2
asS'Zaheer Khan'
p4841
(lp4842
I0
aI1
aI0
aI0
aI4
aI0
aI0
aI0
aI17
aI5
asS'BE Hendricks'
p4843
(lp4844
I1
aI0
aI0
aI0
aI0
aI0
aI0
aI0
aI0
aI1
asS'Dale Steyn'
p4845
(lp4846
I1
aI0
aI0
aI0
aI1
aI0
aI0
aI0
aI4
aI2
asS'Bhuvneshwar Kumar'
p4847
(lp4848
I1
aI0
aI0
aI0
aI0
aI0
aI1
aI0
aI6
aI2
asS'Moises Henriques'
p4849
(lp4850
I0
aI2
aI0
aI0
aI0
aI0
aI0
aI0
aI2
aI2
assS'Piyush Chawla'
p4851
(dp4852
S'Imran Tahir'
p4853
(lp4854
I1
aI1
aI2
aI0
aI0
aI0
aI0
aI0
aI5
aI4
asS'Albie Morkel'
p4855
(lp4856
I2
aI1
aI0
aI0
aI0
aI0
aI0
aI0
aI1
aI3
asS'Anureet Singh'
p4857
(lp4858
I2
aI0
aI0
aI0
aI0
aI0
aI1
aI0
aI6
aI3
asS'Axar Patel'
p4859
(lp4860
I0
aI1
aI0
aI0
aI0
aI0
aI0
aI0
aI1
aI1
asS'BE Hendricks'
p4861
(lp4862
I1
aI1
aI0
aI0
aI2
aI0
aI0
aI0
aI9
aI4
asS'Mitchell Johnson'
p4863
(lp4864
I0
aI0
aI0
aI0
aI2
aI0
aI0
aI0
aI8
aI2
asS'Sandeep Sharma'
p4865
(lp4866
I1
aI2
aI0
aI0
aI0
aI0
aI0
aI0
aI2
aI3
asS'Dwayne Bravo'
p4867
(lp4868
I2
aI0
aI0
aI0
aI0
aI0
aI0
aI0
aI0
aI2
asS'Dale Steyn'
p4869
(lp4870
I0
aI3
aI0
aI0
aI1
aI0
aI0
aI0
aI7
aI4
asS'Angelo Mathews'
p4871
(lp4872
I2
aI2
aI0
aI0
aI1
aI0
aI1
aI0
aI12
aI6
asS'Yuvraj Singh'
p4873
(lp4874
I2
aI4
aI0
aI0
aI0
aI0
aI0
aI0
aI4
aI6
asS'MJ McClenaghan'
p4875
(lp4876
I0
aI1
aI0
aI0
aI0
aI0
aI0
aI0
aI1
aI1
asS'Bhuvneshwar Kumar'
p4877
(lp4878
I0
aI2
aI0
aI0
aI0
aI0
aI0
aI0
aI2
aI2
asS'Lasith Malinga'
p4879
(lp4880
I3
aI0
aI0
aI0
aI0
aI0
aI0
aI0
aI0
aI3
asS'Shane Watson'
p4881
(lp4882
I1
aI0
aI0
aI0
aI0
aI0
aI0
aI0
aI0
aI1
asS'Kieron Pollard'
p4883
(lp4884
I3
aI0
aI0
aI0
aI0
aI0
aI0
aI0
aI0
aI3
ass.