ccollections
defaultdict
p0
(c__builtin__
list
p1
tp2
Rp3
I0
(lp4
S'Amit Mishra'
p5
aS'Piyush Chawla'
p6
aS'Corey Anderson'
p7
aS'Unmukt Chand'
p8
aS'Harbhajan Singh'
p9
aS'Stuart Binny'
p10
aS'Rajat Bhatia'
p11
aS'James Faulkner'
p12
aS'Chris Morris'
p13
aS'Praveen Kumar'
p14
aS'Lokesh Rahul'
p15
asI1
(lp16
S'Chris Gayle'
p17
asI2
(lp18
S'Dinesh Karthik'
p19
aS'Faf du Plessis'
p20
aS'Quinton de Kock'
p21
aS'Albie Morkel'
p22
aS'Yuvraj Singh'
p23
aS'David Miller'
p24
aS'Virender Sehwag'
p25
aS'Azhar Mahmood'
p26
aS'Manish Pandey'
p27
aS'Parthiv Patel'
p28
aS'Ajinkya Rahane'
p29
aS'Eoin Morgan'
p30
aS'Kevin Pietersen'
p31
asI3
(lp32
S'S Badrinath'
p33
aS'Darren Sammy'
p34
aS'Angelo Mathews'
p35
aS'Manoj Tiwary'
p36
aS'George Bailey'
p37
aS'Glenn Maxwell'
p38
aS'Wriddhiman Saha'
p39
aS'Andre Russell'
p40
aS'Steven Smith'
p41
aS'Moises Henriques'
p42
aS'Naman Ojha'
p43
aS'Kane Williamson'
p44
asI4
(lp45
S'Virat Kohli'
p46
aS'Brendon McCullum'
p47
aS'Suresh Raina'
p48
aS'Gautam Gambhir'
p49
aS'Rohit Sharma'
p50
aS'David Warner'
p51
asI5
(lp52
S'Varun Aaron'
p53
aS'Yuzvendra Chahal'
p54
aS'Sarfaraz Khan'
p55
aS'Harshal Patel'
p56
aS'Mitchell Starc'
p57
aS'Kyle Abbott'
p58
aS'Ravichandran Ashwin'
p59
aS'Samuel Badree'
p60
aS'Pawan Negi'
p61
aS'Ashish Nehra'
p62
aS'Imran Tahir'
p63
aS'Zaheer Khan'
p64
aS'Mohammed Shami'
p65
aS'Anureet Singh'
p66
aS'Parvinder Awana'
p67
aS'Mitchell Johnson'
p68
aS'Karanveer Singh'
p69
aS'Axar Patel'
p70
aS'Brad Hogg'
p71
aS'Kuldeep Yadav'
p72
aS'Sunil Narine'
p73
aS'Morne Morkel'
p74
aS'Jasprit Bumrah'
p75
aS'Ben Hilfenhaus'
p76
aS'Lasith Malinga'
p77
aS'Pragyan Ojha'
p78
aS'Ankit Sharma'
p79
aS'Ben Cutting'
p80
aS'Dhawal Kulkarni'
p81
aS'Bhuvneshwar Kumar'
p82
aS'Dale Steyn'
p83
asI6
(lp84
S'AB de Villiers'
p85
aS'MS Dhoni'
p86
aS'Dwayne Bravo'
p87
aS'Jean-Paul Duminy'
p88
aS'Shaun Marsh'
p89
aS'Robin Uthappa'
p90
aS'Kieron Pollard'
p91
aS'Shane Watson'
p92
aS'Shikhar Dhawan'
p93
asI7
(lp94
S'Ravindra Jadeja'
p95
aS'Mayank Agarwal'
p96
aS'Johan Botha'
p97
aS'Aiden Blizzard'
p98
aS'Sanju Samson'
p99
as.