ccollections
defaultdict
p0
(c__builtin__
list
p1
tp2
Rp3
I0
(lp4
S'Dinesh Karthik'
p5
aS'Faf du Plessis'
p6
aS'Quinton de Kock'
p7
aS'Albie Morkel'
p8
aS'Yuvraj Singh'
p9
aS'David Miller'
p10
aS'Virender Sehwag'
p11
aS'Azhar Mahmood'
p12
aS'Manish Pandey'
p13
aS'Parthiv Patel'
p14
aS'Ajinkya Rahane'
p15
aS'Eoin Morgan'
p16
aS'Kevin Pietersen'
p17
asI1
(lp18
S'Virat Kohli'
p19
aS'Brendon McCullum'
p20
aS'Suresh Raina'
p21
aS'Gautam Gambhir'
p22
aS'Rohit Sharma'
p23
aS'David Warner'
p24
asI2
(lp25
S'Ravichandran Ashwin'
p26
aS'Pawan Negi'
p27
aS'Amit Mishra'
p28
aS'Axar Patel'
p29
aS'Brad Hogg'
p30
aS'Sunil Narine'
p31
aS'Lasith Malinga'
p32
aS'Ben Cutting'
p33
aS'Chris Morris'
p34
aS'Praveen Kumar'
p35
asI3
(lp36
S'S Badrinath'
p37
aS'Darren Sammy'
p38
aS'Ravindra Jadeja'
p39
aS'Angelo Mathews'
p40
aS'Manoj Tiwary'
p41
aS'George Bailey'
p42
aS'Glenn Maxwell'
p43
aS'Wriddhiman Saha'
p44
aS'Johan Botha'
p45
aS'Andre Russell'
p46
aS'Aiden Blizzard'
p47
aS'Sanju Samson'
p48
aS'Steven Smith'
p49
aS'Moises Henriques'
p50
aS'Naman Ojha'
p51
aS'Kane Williamson'
p52
asI4
(lp53
S'Mayank Agarwal'
p54
aS'Piyush Chawla'
p55
aS'Corey Anderson'
p56
aS'Unmukt Chand'
p57
aS'Harbhajan Singh'
p58
aS'Stuart Binny'
p59
aS'Rajat Bhatia'
p60
aS'James Faulkner'
p61
aS'Lokesh Rahul'
p62
asI5
(lp63
S'AB de Villiers'
p64
aS'MS Dhoni'
p65
aS'Dwayne Bravo'
p66
aS'Jean-Paul Duminy'
p67
aS'Shaun Marsh'
p68
aS'Robin Uthappa'
p69
aS'Kieron Pollard'
p70
aS'Shane Watson'
p71
aS'Shikhar Dhawan'
p72
asI6
(lp73
S'Chris Gayle'
p74
asI7
(lp75
S'Varun Aaron'
p76
aS'Yuzvendra Chahal'
p77
aS'Sarfaraz Khan'
p78
aS'Harshal Patel'
p79
aS'Mitchell Starc'
p80
aS'Kyle Abbott'
p81
aS'Samuel Badree'
p82
aS'Ashish Nehra'
p83
aS'Imran Tahir'
p84
aS'Zaheer Khan'
p85
aS'Mohammed Shami'
p86
aS'Anureet Singh'
p87
aS'Parvinder Awana'
p88
aS'Mitchell Johnson'
p89
aS'Karanveer Singh'
p90
aS'Kuldeep Yadav'
p91
aS'Morne Morkel'
p92
aS'Jasprit Bumrah'
p93
aS'Ben Hilfenhaus'
p94
aS'Pragyan Ojha'
p95
aS'Ankit Sharma'
p96
aS'Dhawal Kulkarni'
p97
aS'Bhuvneshwar Kumar'
p98
aS'Dale Steyn'
p99
as.