ccollections
defaultdict
p0
(c__builtin__
list
p1
tp2
Rp3
I0
(lp4
S'Darren Sammy'
p5
aS'Samuel Badree'
p6
aS'Ravindra Jadeja'
p7
aS'Ashish Nehra'
p8
aS'Imran Tahir'
p9
aS'Zaheer Khan'
p10
aS'Brad Hogg'
p11
aS'Pragyan Ojha'
p12
aS'Rajat Bhatia'
p13
aS'James Faulkner'
p14
aS'Chris Morris'
p15
asI1
(lp16
S'S Badrinath'
p17
aS'AB de Villiers'
p18
aS'Dinesh Karthik'
p19
aS'Sarfaraz Khan'
p20
aS'MS Dhoni'
p21
aS'Brendon McCullum'
p22
aS'Mayank Agarwal'
p23
aS'Quinton de Kock'
p24
aS'Manoj Tiwary'
p25
aS'George Bailey'
p26
aS'Karanveer Singh'
p27
aS'Shaun Marsh'
p28
aS'David Miller'
p29
aS'Wriddhiman Saha'
p30
aS'Virender Sehwag'
p31
aS'Gautam Gambhir'
p32
aS'Manish Pandey'
p33
aS'Robin Uthappa'
p34
aS'Aiden Blizzard'
p35
aS'Unmukt Chand'
p36
aS'Parthiv Patel'
p37
aS'Ajinkya Rahane'
p38
aS'Sanju Samson'
p39
aS'David Warner'
p40
aS'Shikhar Dhawan'
p41
aS'Eoin Morgan'
p42
aS'Naman Ojha'
p43
aS'Kevin Pietersen'
p44
aS'Lokesh Rahul'
p45
asI2
(lp46
S'Virat Kohli'
p47
aS'Varun Aaron'
p48
aS'Faf du Plessis'
p49
aS'Pawan Negi'
p50
aS'Mohammed Shami'
p51
aS'Anureet Singh'
p52
aS'Kuldeep Yadav'
p53
aS'Rohit Sharma'
p54
aS'Corey Anderson'
p55
aS'Ankit Sharma'
p56
aS'Stuart Binny'
p57
aS'Ben Cutting'
p58
aS'Steven Smith'
p59
aS'Kane Williamson'
p60
asI3
(lp61
S'Ravichandran Ashwin'
p62
aS'Sunil Narine'
p63
aS'Harbhajan Singh'
p64
aS'Dale Steyn'
p65
asI4
(lp66
S'Harshal Patel'
p67
aS'Suresh Raina'
p68
aS'Jean-Paul Duminy'
p69
aS'Yuvraj Singh'
p70
aS'Parvinder Awana'
p71
aS'Glenn Maxwell'
p72
aS'Axar Patel'
p73
asI5
(lp74
S'Dwayne Bravo'
p75
aS'Albie Morkel'
p76
aS'Azhar Mahmood'
p77
aS'Lasith Malinga'
p78
asI6
(lp79
S'Chris Gayle'
p80
aS'Yuzvendra Chahal'
p81
aS'Mitchell Starc'
p82
aS'Kyle Abbott'
p83
aS'Angelo Mathews'
p84
aS'Mitchell Johnson'
p85
aS'Jasprit Bumrah'
p86
aS'Ben Hilfenhaus'
p87
aS'Dhawal Kulkarni'
p88
aS'Moises Henriques'
p89
aS'Bhuvneshwar Kumar'
p90
asI7
(lp91
S'Amit Mishra'
p92
aS'Johan Botha'
p93
aS'Piyush Chawla'
p94
aS'Morne Morkel'
p95
aS'Andre Russell'
p96
aS'Kieron Pollard'
p97
aS'Shane Watson'
p98
aS'Praveen Kumar'
p99
as.