ccollections
defaultdict
p0
(c__builtin__
list
p1
tp2
Rp3
I0
(lp4
S'Chris Gayle'
p5
aS'Yuzvendra Chahal'
p6
aS'Mitchell Starc'
p7
aS'Kyle Abbott'
p8
aS'Angelo Mathews'
p9
aS'Mitchell Johnson'
p10
aS'Jasprit Bumrah'
p11
aS'Ben Hilfenhaus'
p12
aS'Dhawal Kulkarni'
p13
aS'Moises Henriques'
p14
aS'Bhuvneshwar Kumar'
p15
asI1
(lp16
S'S Badrinath'
p17
aS'AB de Villiers'
p18
aS'Dinesh Karthik'
p19
aS'Sarfaraz Khan'
p20
aS'MS Dhoni'
p21
aS'Brendon McCullum'
p22
aS'Mayank Agarwal'
p23
aS'Quinton de Kock'
p24
aS'Manoj Tiwary'
p25
aS'George Bailey'
p26
aS'Karanveer Singh'
p27
aS'Shaun Marsh'
p28
aS'David Miller'
p29
aS'Wriddhiman Saha'
p30
aS'Gautam Gambhir'
p31
aS'Manish Pandey'
p32
aS'Robin Uthappa'
p33
aS'Aiden Blizzard'
p34
aS'Unmukt Chand'
p35
aS'Parthiv Patel'
p36
aS'Ajinkya Rahane'
p37
aS'Sanju Samson'
p38
aS'David Warner'
p39
aS'Shikhar Dhawan'
p40
aS'Eoin Morgan'
p41
aS'Naman Ojha'
p42
aS'Lokesh Rahul'
p43
asI2
(lp44
S'Ravichandran Ashwin'
p45
aS'Albie Morkel'
p46
aS'Azhar Mahmood'
p47
aS'Sunil Narine'
p48
aS'Harbhajan Singh'
p49
aS'Lasith Malinga'
p50
asI3
(lp51
S'Amit Mishra'
p52
aS'Johan Botha'
p53
aS'Piyush Chawla'
p54
aS'Morne Morkel'
p55
aS'Andre Russell'
p56
aS'Kieron Pollard'
p57
aS'Shane Watson'
p58
aS'Praveen Kumar'
p59
aS'Dale Steyn'
p60
asI4
(lp61
S'Varun Aaron'
p62
aS'Harshal Patel'
p63
aS'Pawan Negi'
p64
aS'Suresh Raina'
p65
aS'Jean-Paul Duminy'
p66
aS'Mohammed Shami'
p67
aS'Yuvraj Singh'
p68
aS'Parvinder Awana'
p69
aS'Glenn Maxwell'
p70
aS'Axar Patel'
p71
aS'Stuart Binny'
p72
aS'Ben Cutting'
p73
asI5
(lp74
S'Dwayne Bravo'
p75
asI6
(lp76
S'Darren Sammy'
p77
aS'Samuel Badree'
p78
aS'Ravindra Jadeja'
p79
aS'Ashish Nehra'
p80
aS'Imran Tahir'
p81
aS'Zaheer Khan'
p82
aS'Brad Hogg'
p83
aS'Pragyan Ojha'
p84
aS'Rajat Bhatia'
p85
aS'James Faulkner'
p86
aS'Chris Morris'
p87
asI7
(lp88
S'Virat Kohli'
p89
aS'Faf du Plessis'
p90
aS'Anureet Singh'
p91
aS'Virender Sehwag'
p92
aS'Kuldeep Yadav'
p93
aS'Rohit Sharma'
p94
aS'Corey Anderson'
p95
aS'Ankit Sharma'
p96
aS'Steven Smith'
p97
aS'Kevin Pietersen'
p98
aS'Kane Williamson'
p99
as.