(dp0
S'Lokesh Rahul'
p1
(dp2
S'MM Sharma'
p3
(lp4
I2
aI1
aI0
aI0
aI0
aI0
aI0
aI0
aI1
aI3
asS'Ashish Nehra'
p5
(lp6
I4
aI0
aI0
aI0
aI1
aI0
aI0
aI0
aI4
aI5
asS'BE Hendricks'
p7
(lp8
I2
aI1
aI0
aI0
aI0
aI0
aI0
aI0
aI1
aI3
asS'Dhawal Kulkarni'
p9
(lp10
I2
aI0
aI0
aI0
aI0
aI0
aI0
aI0
aI0
aI2
asS'Harbhajan Singh'
p11
(lp12
I3
aI3
aI0
aI1
aI0
aI0
aI0
aI0
aI6
aI7
asS'MJ McClenaghan'
p13
(lp14
I1
aI2
aI0
aI0
aI0
aI0
aI0
aI0
aI2
aI3
asS'Angelo Mathews'
p15
(lp16
I4
aI0
aI2
aI0
aI0
aI0
aI0
aI0
aI4
aI6
asS'Darren Sammy'
p17
(lp18
I0
aI2
aI1
aI0
aI1
aI0
aI0
aI0
aI8
aI4
asS'Jean-Paul Duminy'
p19
(lp20
I2
aI2
aI0
aI0
aI0
aI0
aI0
aI0
aI2
aI4
asS'Anureet Singh'
p21
(lp22
I1
aI1
aI1
aI0
aI0
aI0
aI1
aI0
aI9
aI4
asS'Sandeep Sharma'
p23
(lp24
I0
aI1
aI1
aI0
aI1
aI0
aI0
aI0
aI7
aI3
asS'AN Ahmed'
p25
(lp26
I1
aI3
aI2
aI0
aI1
aI0
aI0
aI0
aI11
aI7
asS'Amit Mishra'
p27
(lp28
I2
aI8
aI0
aI0
aI0
aI0
aI2
aI0
aI20
aI12
asS'Yuzvendra Chahal'
p29
(lp30
I2
aI6
aI0
aI0
aI1
aI0
aI0
aI0
aI10
aI9
asS'TG Southee'
p31
(lp32
I6
aI0
aI2
aI0
aI0
aI0
aI0
aI0
aI4
aI8
asS'Imran Tahir'
p33
(lp34
I6
aI6
aI0
aI0
aI0
aI0
aI0
aI0
aI6
aI12
asS'Varun Aaron'
p35
(lp36
I0
aI3
aI0
aI0
aI1
aI0
aI1
aI0
aI13
aI5
asS'J Suchith'
p37
(lp38
I10
aI11
aI1
aI0
aI1
aI0
aI1
aI0
aI23
aI24
asS'UT Yadav'
p39
(lp40
I6
aI0
aI0
aI0
aI0
aI0
aI0
aI0
aI0
aI6
asS'HH Pandya'
p41
(lp42
I2
aI1
aI2
aI0
aI1
aI0
aI0
aI0
aI9
aI6
asS'R Vinay Kumar'
p43
(lp44
I3
aI6
aI2
aI0
aI0
aI0
aI0
aI0
aI10
aI11
asS'Yuvraj Singh'
p45
(lp46
I2
aI4
aI0
aI0
aI0
aI0
aI2
aI0
aI16
aI8
asS'SA Abbott'
p47
(lp48
I1
aI2
aI0
aI0
aI0
aI0
aI0
aI0
aI2
aI3
assS'CM Gautam '
p49
(dp50
S'MM Sharma'
p51
(lp52
I0
aI2
aI0
aI0
aI0
aI0
aI0
aI0
aI2
aI2
asS'Ashish Nehra'
p53
(lp54
I2
aI0
aI1
aI0
aI0
aI0
aI0
aI0
aI2
aI3
assS'AT Rayudu '
p55
(dp56
S'MM Sharma'
p57
(lp58
I5
aI7
aI0
aI0
aI0
aI0
aI5
aI0
aI37
aI17
asS'Ashish Nehra'
p59
(lp60
I1
aI3
aI1
aI0
aI0
aI0
aI2
aI0
aI17
aI7
asS'D Wiese'
p61
(lp62
I2
aI0
aI0
aI0
aI0
aI0
aI0
aI0
aI0
aI2
asS'Dhawal Kulkarni'
p63
(lp64
I0
aI1
aI0
aI0
aI0
aI0
aI0
aI0
aI1
aI1
asS'Pawan Negi'
p65
(lp66
I3
aI1
aI0
aI0
aI0
aI0
aI1
aI0
aI7
aI5
asS'Dale Steyn'
p67
(lp68
I1
aI1
aI0
aI0
aI1
aI0
aI0
aI0
aI5
aI3
asS'Angelo Mathews'
p69
(lp70
I1
aI5
aI0
aI0
aI2
aI0
aI0
aI0
aI13
aI8
asS'NM Coulter-Nile'
p71
(lp72
I4
aI3
aI0
aI0
aI3
aI0
aI0
aI0
aI15
aI10
asS'Stuart Binny'
p73
(lp74
I0
aI1
aI0
aI0
aI0
aI0
aI1
aI0
aI7
aI2
asS'Anureet Singh'
p75
(lp76
I4
aI0
aI0
aI0
aI1
aI0
aI0
aI0
aI4
aI5
asS'Morne Morkel'
p77
(lp78
I2
aI0
aI1
aI0
aI0
aI0
aI0
aI0
aI2
aI3
asS'Sandeep Sharma'
p79
(lp80
I3
aI1
aI0
aI0
aI0
aI0
aI0
aI0
aI1
aI4
asS'Axar Patel'
p81
(lp82
I2
aI2
aI0
aI0
aI0
aI0
aI0
aI0
aI2
aI4
asS'Ankit Sharma'
p83
(lp84
I1
aI5
aI1
aI0
aI0
aI0
aI0
aI0
aI7
aI7
asS'Yuvraj Singh'
p85
(lp86
I1
aI2
aI0
aI0
aI0
aI0
aI0
aI0
aI2
aI3
asS'Yuzvendra Chahal'
p87
(lp88
I0
aI0
aI1
aI0
aI0
aI0
aI1
aI0
aI8
aI2
asS'TG Southee'
p89
(lp90
I1
aI1
aI0
aI0
aI2
aI0
aI1
aI0
aI15
aI5
asS'Ravindra Jadeja'
p91
(lp92
I0
aI4
aI0
aI0
aI0
aI0
aI0
aI0
aI4
aI4
asS'Imran Tahir'
p93
(lp94
I5
aI5
aI1
aI0
aI1
aI0
aI0
aI0
aI11
aI12
asS'Dwayne Bravo'
p95
(lp96
I9
aI19
aI1
aI0
aI2
aI0
aI1
aI0
aI35
aI32
asS'TA Boult'
p97
(lp98
I0
aI2
aI0
aI0
aI0
aI0
aI0
aI0
aI2
aI2
asS'Harshal Patel'
p99
(lp100
I1
aI0
aI0
aI0
aI0
aI0
aI1
aI0
aI6
aI2
asS'Shikhar Dhawan'
p101
(lp102
I0
aI2
aI0
aI0
aI1
aI0
aI0
aI0
aI6
aI3
asS'Shakib Al Hasan'
p103
(lp104
I2
aI0
aI0
aI0
aI0
aI0
aI0
aI0
aI0
aI2
asS'S Nadeem'
p105
(lp106
I2
aI4
aI0
aI0
aI0
aI0
aI1
aI0
aI10
aI7
asS'DR Smith'
p107
(lp108
I3
aI2
aI4
aI0
aI0
aI0
aI1
aI0
aI16
aI10
asS'IC Pandey'
p109
(lp110
I2
aI2
aI0
aI0
aI2
aI0
aI2
aI0
aI22
aI8
asS'Bhuvneshwar Kumar'
p111
(lp112
I2
aI0
aI0
aI0
aI0
aI0
aI0
aI0
aI0
aI2
asS'Amit Mishra'
p113
(lp114
I4
aI9
aI2
aI0
aI0
aI0
aI0
aI0
aI13
aI15
asS'Mitchell Johnson'
p115
(lp116
I3
aI0
aI0
aI0
aI1
aI0
aI0
aI0
aI4
aI4
asS'J Theron'
p117
(lp118
I1
aI5
aI1
aI0
aI1
aI0
aI1
aI0
aI17
aI9
asS'Zaheer Khan'
p119
(lp120
I0
aI5
aI0
aI0
aI1
aI0
aI1
aI0
aI15
aI7
asS'Shane Watson'
p121
(lp122
I0
aI2
aI0
aI0
aI1
aI0
aI0
aI0
aI6
aI3
assS'YK Pathan '
p123
(dp124
S'MM Sharma'
p125
(lp126
I0
aI4
aI1
aI0
aI0
aI0
aI0
aI0
aI6
aI5
asS'Bipul Sharma'
p127
(lp128
I0
aI0
aI1
aI0
aI0
aI0
aI0
aI0
aI2
aI1
asS'Suresh Raina'
p129
(lp130
I2
aI4
aI0
aI0
aI0
aI0
aI0
aI0
aI4
aI6
asS'BE Hendricks'
p131
(lp132
I5
aI2
aI0
aI0
aI1
aI0
aI0
aI0
aI6
aI8
asS'Dhawal Kulkarni'
p133
(lp134
I4
aI3
aI1
aI0
aI0
aI0
aI0
aI0
aI5
aI8
asS'Kieron Pollard'
p135
(lp136
I1
aI0
aI0
aI0
aI0
aI0
aI0
aI0
aI0
aI1
asS'Harbhajan Singh'
p137
(lp138
I5
aI4
aI0
aI0
aI1
aI0
aI0
aI0
aI8
aI10
asS'Dale Steyn'
p139
(lp140
I2
aI3
aI0
aI0
aI1
aI0
aI0
aI0
aI7
aI6
asS'MJ McClenaghan'
p141
(lp142
I1
aI4
aI0
aI0
aI1
aI0
aI0
aI0
aI8
aI6
asS'Angelo Mathews'
p143
(lp144
I4
aI4
aI0
aI0
aI0
aI0
aI0
aI0
aI4
aI8
asS'NM Coulter-Nile'
p145
(lp146
I6
aI0
aI0
aI0
aI6
aI0
aI0
aI0
aI24
aI12
asS'Gurkeerat Singh'
p147
(lp148
I0
aI2
aI0
aI0
aI0
aI0
aI1
aI0
aI8
aI3
asS'Stuart Binny'
p149
(lp150
I2
aI1
aI0
aI0
aI2
aI0
aI0
aI0
aI9
aI5
asS'Anureet Singh'
p151
(lp152
I2
aI7
aI0
aI0
aI6
aI0
aI0
aI0
aI31
aI15
asS'Varun Aaron'
p153
(lp154
I1
aI0
aI0
aI0
aI0
aI0
aI0
aI0
aI0
aI1
asS'AN Ahmed'
p155
(lp156
I0
aI1
aI0
aI0
aI0
aI0
aI0
aI0
aI1
aI1
asS'James Faulkner'
p157
(lp158
I1
aI3
aI0
aI0
aI1
aI0
aI1
aI0
aI13
aI6
asS'Mitchell Starc'
p159
(lp160
I0
aI3
aI1
aI0
aI0
aI0
aI0
aI0
aI5
aI4
asS'Axar Patel'
p161
(lp162
I9
aI4
aI0
aI0
aI0
aI0
aI2
aI0
aI16
aI15
asS'Yuvraj Singh'
p163
(lp164
I1
aI2
aI0
aI0
aI0
aI0
aI1
aI0
aI8
aI4
asS'Ravindra Jadeja'
p165
(lp166
I2
aI1
aI0
aI0
aI0
aI0
aI0
aI0
aI1
aI3
asS'Imran Tahir'
p167
(lp168
I3
aI8
aI1
aI0
aI3
aI0
aI3
aI0
aI40
aI18
asS'Dwayne Bravo'
p169
(lp170
I1
aI0
aI0
aI0
aI0
aI0
aI0
aI0
aI0
aI1
asS'Harshal Patel'
p171
(lp172
I1
aI2
aI0
aI0
aI0
aI0
aI1
aI0
aI8
aI4
asS'Moises Henriques'
p173
(lp174
I3
aI2
aI0
aI1
aI1
aI0
aI0
aI0
aI9
aI7
asS'Albie Morkel'
p175
(lp176
I0
aI2
aI0
aI0
aI1
aI0
aI0
aI0
aI6
aI3
asS'J Suchith'
p177
(lp178
I1
aI2
aI0
aI0
aI1
aI0
aI1
aI0
aI12
aI5
asS'HH Pandya'
p179
(lp180
I0
aI1
aI0
aI0
aI0
aI0
aI0
aI0
aI1
aI1
asS'Chris Morris'
p181
(lp182
I2
aI4
aI0
aI0
aI1
aI0
aI0
aI0
aI8
aI7
asS'Ravichandran Ashwin'
p183
(lp184
I2
aI0
aI1
aI0
aI0
aI0
aI0
aI0
aI2
aI3
asS'BB Sran'
p185
(lp186
I1
aI3
aI0
aI0
aI0
aI0
aI0
aI0
aI3
aI4
asS'Lasith Malinga'
p187
(lp188
I5
aI5
aI0
aI0
aI2
aI0
aI1
aI0
aI19
aI13
asS'NLTC Perera'
p189
(lp190
I4
aI8
aI0
aI0
aI0
aI0
aI0
aI0
aI8
aI12
asS'Jasprit Bumrah'
p191
(lp192
I1
aI1
aI0
aI0
aI0
aI0
aI1
aI0
aI7
aI3
asS'R Vinay Kumar'
p193
(lp194
I3
aI5
aI1
aI0
aI1
aI0
aI0
aI0
aI11
aI10
asS'Bhuvneshwar Kumar'
p195
(lp196
I4
aI6
aI1
aI0
aI2
aI0
aI0
aI0
aI16
aI13
asS'Amit Mishra'
p197
(lp198
I14
aI8
aI3
aI0
aI5
aI0
aI1
aI0
aI40
aI31
asS'Mitchell Johnson'
p199
(lp200
I4
aI8
aI0
aI0
aI2
aI0
aI0
aI0
aI16
aI14
asS'Praveen Kumar'
p201
(lp202
I2
aI0
aI4
aI0
aI0
aI0
aI0
aI0
aI8
aI6
asS'Shane Watson'
p203
(lp204
I2
aI2
aI0
aI0
aI1
aI0
aI0
aI0
aI6
aI5
assS'Sanju Samson'
p205
(dp206
S'Ashish Nehra'
p207
(lp208
I0
aI2
aI0
aI0
aI0
aI0
aI0
aI0
aI2
aI2
asS'TA Boult'
p209
(lp210
I4
aI2
aI0
aI0
aI0
aI0
aI0
aI0
aI2
aI6
asS'Pawan Negi'
p211
(lp212
I1
aI1
aI0
aI0
aI1
aI0
aI0
aI0
aI5
aI3
asS'Harbhajan Singh'
p213
(lp214
I6
aI6
aI2
aI0
aI3
aI0
aI0
aI0
aI22
aI17
asS'MJ McClenaghan'
p215
(lp216
I2
aI1
aI0
aI0
aI0
aI0
aI1
aI0
aI7
aI4
asS'Angelo Mathews'
p217
(lp218
I3
aI1
aI0
aI0
aI0
aI0
aI0
aI0
aI1
aI4
asS'JD Unadkat'
p219
(lp220
I0
aI1
aI0
aI0
aI0
aI0
aI0
aI0
aI1
aI1
asS'NM Coulter-Nile'
p221
(lp222
I3
aI1
aI2
aI0
aI1
aI0
aI0
aI0
aI9
aI7
asS'Anureet Singh'
p223
(lp224
I1
aI3
aI0
aI1
aI2
aI0
aI0
aI0
aI14
aI7
asS'Sandeep Sharma'
p225
(lp226
I2
aI1
aI0
aI0
aI0
aI0
aI0
aI0
aI1
aI3
asS'S Aravind'
p227
(lp228
I1
aI1
aI1
aI0
aI0
aI0
aI0
aI0
aI3
aI3
asS'KV Sharma'
p229
(lp230
I2
aI4
aI0
aI0
aI0
aI0
aI0
aI0
aI4
aI6
asS'RS Bopara'
p231
(lp232
I5
aI2
aI0
aI0
aI0
aI0
aI1
aI0
aI8
aI8
asS'Yuzvendra Chahal'
p233
(lp234
I3
aI0
aI1
aI0
aI0
aI0
aI0
aI0
aI2
aI4
asS'Ravindra Jadeja'
p235
(lp236
I2
aI2
aI0
aI0
aI0
aI0
aI0
aI0
aI2
aI4
asS'Dwayne Bravo'
p237
(lp238
I1
aI5
aI0
aI0
aI0
aI0
aI2
aI0
aI17
aI8
asS'Iqbal Abdulla'
p239
(lp240
I1
aI2
aI0
aI0
aI0
aI0
aI0
aI0
aI2
aI3
asS'Harshal Patel'
p241
(lp242
I3
aI2
aI0
aI0
aI0
aI0
aI0
aI0
aI2
aI5
asS'Moises Henriques'
p243
(lp244
I0
aI1
aI0
aI0
aI0
aI0
aI0
aI0
aI1
aI1
asS'J Suchith'
p245
(lp246
I0
aI5
aI1
aI1
aI0
aI0
aI1
aI0
aI16
aI8
asS'Shakib Al Hasan'
p247
(lp248
I4
aI0
aI0
aI1
aI0
aI0
aI0
aI0
aI3
aI5
asS'P Suyal'
p249
(lp250
I4
aI6
aI0
aI0
aI4
aI0
aI0
aI0
aI22
aI14
asS'Lasith Malinga'
p251
(lp252
I0
aI4
aI0
aI0
aI1
aI0
aI1
aI0
aI14
aI6
asS'Andre Russell'
p253
(lp254
I2
aI1
aI0
aI0
aI1
aI0
aI0
aI0
aI5
aI4
asS'R Vinay Kumar'
p255
(lp256
I16
aI7
aI1
aI0
aI5
aI0
aI0
aI0
aI29
aI29
asS'Bhuvneshwar Kumar'
p257
(lp258
I11
aI6
aI2
aI0
aI0
aI0
aI2
aI0
aI22
aI21
asS'Praveen Kumar'
p259
(lp260
I12
aI4
aI8
aI0
aI4
aI0
aI0
aI0
aI36
aI28
assS'S Nadeem '
p261
(dp262
S'Mitchell Starc'
p263
(lp264
I3
aI0
aI0
aI0
aI0
aI0
aI0
aI0
aI0
aI3
asS'Iqbal Abdulla'
p265
(lp266
I2
aI2
aI0
aI0
aI0
aI0
aI0
aI0
aI2
aI4
assS'SS Tiwary '
p267
(dp268
S'D Wiese'
p269
(lp270
I0
aI2
aI0
aI0
aI0
aI0
aI0
aI0
aI2
aI2
asS'Dhawal Kulkarni'
p271
(lp272
I0
aI3
aI0
aI0
aI1
aI0
aI0
aI0
aI7
aI4
asS'I Sharma'
p273
(lp274
I2
aI3
aI0
aI0
aI1
aI0
aI0
aI0
aI7
aI6
asS'MJ McClenaghan'
p275
(lp276
I1
aI1
aI0
aI0
aI0
aI0
aI0
aI0
aI1
aI2
asS'James Faulkner'
p277
(lp278
I0
aI2
aI0
aI0
aI0
aI0
aI0
aI0
aI2
aI2
asS'Mitchell Starc'
p279
(lp280
I0
aI3
aI0
aI0
aI0
aI0
aI0
aI0
aI3
aI3
asS'Axar Patel'
p281
(lp282
I2
aI1
aI0
aI0
aI1
aI0
aI0
aI0
aI5
aI4
asS'Parvez Rasool'
p283
(lp284
I2
aI1
aI0
aI0
aI1
aI0
aI0
aI0
aI5
aI4
asS'KV Sharma'
p285
(lp286
I6
aI1
aI0
aI0
aI0
aI0
aI1
aI0
aI7
aI8
asS'RS Bopara'
p287
(lp288
I0
aI0
aI1
aI0
aI0
aI0
aI0
aI0
aI2
aI1
asS'Yuzvendra Chahal'
p289
(lp290
I1
aI1
aI0
aI0
aI0
aI0
aI0
aI0
aI1
aI2
asS'TG Southee'
p291
(lp292
I2
aI2
aI1
aI1
aI0
aI0
aI2
aI0
aI19
aI8
asS'Harshal Patel'
p293
(lp294
I0
aI1
aI0
aI0
aI0
aI0
aI1
aI0
aI7
aI2
asS'Moises Henriques'
p295
(lp296
I1
aI0
aI0
aI0
aI0
aI0
aI0
aI0
aI0
aI1
asS'UT Yadav'
p297
(lp298
I3
aI2
aI0
aI0
aI3
aI0
aI0
aI0
aI14
aI8
asS'Brad Hogg'
p299
(lp300
I0
aI2
aI0
aI0
aI0
aI0
aI1
aI0
aI8
aI3
asS'Lasith Malinga'
p301
(lp302
I2
aI2
aI0
aI0
aI1
aI0
aI0
aI0
aI6
aI5
asS'Andre Russell'
p303
(lp304
I1
aI1
aI0
aI0
aI0
aI0
aI0
aI0
aI1
aI2
asS'R Vinay Kumar'
p305
(lp306
I1
aI2
aI0
aI0
aI1
aI0
aI0
aI0
aI6
aI4
asS'Bhuvneshwar Kumar'
p307
(lp308
I2
aI1
aI0
aI0
aI0
aI0
aI0
aI0
aI1
aI3
asS'Piyush Chawla'
p309
(lp310
I1
aI1
aI0
aI0
aI0
aI0
aI0
aI0
aI1
aI2
asS'Praveen Kumar'
p311
(lp312
I0
aI0
aI2
aI0
aI0
aI0
aI0
aI0
aI4
aI2
assS'GH Vihari '
p313
(dp314
S'Lasith Malinga'
p315
(lp316
I2
aI1
aI0
aI0
aI1
aI0
aI0
aI0
aI5
aI4
asS'MM Sharma'
p317
(lp318
I0
aI0
aI1
aI0
aI0
aI0
aI0
aI0
aI2
aI1
asS'Dwayne Bravo'
p319
(lp320
I1
aI2
aI0
aI0
aI1
aI0
aI0
aI0
aI6
aI4
asS'RN ten Doeschate'
p321
(lp322
I1
aI1
aI0
aI0
aI0
aI0
aI0
aI0
aI1
aI2
asS'Anureet Singh'
p323
(lp324
I2
aI1
aI0
aI0
aI2
aI0
aI0
aI0
aI9
aI5
asS'R Vinay Kumar'
p325
(lp326
I1
aI1
aI0
aI0
aI2
aI0
aI0
aI0
aI9
aI4
asS'Brad Hogg'
p327
(lp328
I2
aI2
aI0
aI0
aI0
aI0
aI0
aI0
aI2
aI4
asS'Mitchell Johnson'
p329
(lp330
I3
aI0
aI0
aI0
aI0
aI0
aI0
aI0
aI0
aI3
asS'MJ McClenaghan'
p331
(lp332
I0
aI2
aI0
aI0
aI0
aI0
aI0
aI0
aI2
aI2
asS'Piyush Chawla'
p333
(lp334
I3
aI3
aI0
aI0
aI0
aI0
aI0
aI0
aI3
aI6
assS'S Aravind '
p335
(dp336
S'Dwayne Bravo'
p337
(lp338
I1
aI0
aI0
aI0
aI0
aI0
aI0
aI0
aI0
aI1
assS'Brad Hogg '
p339
(dp340
S'Sandeep Sharma'
p341
(lp342
I0
aI3
aI0
aI0
aI0
aI0
aI0
aI0
aI3
aI3
asS'Ashish Nehra'
p343
(lp344
I0
aI0
aI1
aI0
aI0
aI0
aI0
aI0
aI2
aI1
asS'Anureet Singh'
p345
(lp346
I0
aI1
aI0
aI0
aI0
aI0
aI0
aI0
aI1
aI1
asS'BE Hendricks'
p347
(lp348
I0
aI1
aI0
aI0
aI0
aI0
aI0
aI0
aI1
aI1
assS'Pawan Negi '
p349
(dp350
S'Lasith Malinga'
p351
(lp352
I2
aI2
aI0
aI0
aI0
aI0
aI0
aI0
aI2
aI4
asS'Chris Morris'
p353
(lp354
I1
aI1
aI0
aI0
aI0
aI0
aI0
aI0
aI1
aI2
asS'D Wiese'
p355
(lp356
I2
aI1
aI0
aI0
aI1
aI0
aI0
aI0
aI5
aI4
asS'Harshal Patel'
p357
(lp358
I0
aI1
aI2
aI0
aI0
aI0
aI1
aI0
aI11
aI4
asS'Mitchell Starc'
p359
(lp360
I1
aI2
aI0
aI0
aI0
aI0
aI0
aI0
aI2
aI3
asS'Moises Henriques'
p361
(lp362
I3
aI0
aI0
aI0
aI0
aI0
aI0
aI0
aI0
aI3
asS'GS Sandhu'
p363
(lp364
I1
aI3
aI0
aI0
aI0
aI0
aI0
aI0
aI3
aI4
asS'R Vinay Kumar'
p365
(lp366
I1
aI4
aI1
aI0
aI1
aI0
aI0
aI0
aI10
aI7
asS'PJ Cummins'
p367
(lp368
I2
aI1
aI0
aI0
aI3
aI0
aI0
aI0
aI13
aI6
asS'Bhuvneshwar Kumar'
p369
(lp370
I1
aI0
aI0
aI0
aI0
aI0
aI0
aI0
aI0
aI1
asS'Brad Hogg'
p371
(lp372
I2
aI1
aI0
aI0
aI0
aI0
aI1
aI0
aI7
aI4
asS'M de Lange'
p373
(lp374
I2
aI1
aI1
aI1
aI3
aI0
aI0
aI0
aI18
aI8
asS'MJ McClenaghan'
p375
(lp376
I1
aI2
aI2
aI0
aI0
aI0
aI1
aI0
aI12
aI6
asS'Andre Russell'
p377
(lp378
I0
aI1
aI1
aI0
aI1
aI0
aI0
aI0
aI7
aI3
asS'Yuzvendra Chahal'
p379
(lp380
I0
aI1
aI0
aI0
aI0
aI0
aI1
aI0
aI7
aI2
asS'Praveen Kumar'
p381
(lp382
I0
aI3
aI0
aI0
aI0
aI0
aI0
aI0
aI3
aI3
asS'A Ashish Reddy'
p383
(lp384
I0
aI2
aI0
aI0
aI1
aI0
aI1
aI0
aI12
aI4
asS'Zaheer Khan'
p385
(lp386
I3
aI0
aI1
aI0
aI0
aI0
aI0
aI0
aI2
aI4
asS'Shane Watson'
p387
(lp388
I0
aI1
aI0
aI0
aI0
aI0
aI0
aI0
aI1
aI1
assS'RN ten Doeschate '
p389
(dp390
S'Imran Tahir'
p391
(lp392
I0
aI2
aI0
aI0
aI0
aI0
aI0
aI0
aI2
aI2
asS'MM Sharma'
p393
(lp394
I2
aI3
aI0
aI0
aI0
aI0
aI0
aI0
aI3
aI5
asS'Dwayne Bravo'
p395
(lp396
I4
aI4
aI1
aI0
aI2
aI0
aI1
aI0
aI20
aI12
asS'Bipul Sharma'
p397
(lp398
I0
aI2
aI0
aI0
aI0
aI0
aI0
aI0
aI2
aI2
asS'Suresh Raina'
p399
(lp400
I3
aI1
aI0
aI0
aI0
aI0
aI0
aI0
aI1
aI4
asS'D Wiese'
p401
(lp402
I0
aI2
aI0
aI0
aI0
aI0
aI0
aI0
aI2
aI2
asS'Moises Henriques'
p403
(lp404
I1
aI1
aI1
aI0
aI0
aI0
aI0
aI0
aI3
aI3
asS'Sandeep Sharma'
p405
(lp406
I2
aI0
aI0
aI0
aI0
aI0
aI0
aI0
aI0
aI2
asS'Ashish Nehra'
p407
(lp408
I1
aI4
aI0
aI0
aI1
aI0
aI1
aI0
aI14
aI7
asS'Mitchell Starc'
p409
(lp410
I1
aI0
aI0
aI0
aI0
aI0
aI0
aI0
aI0
aI1
asS'Amit Mishra'
p411
(lp412
I0
aI0
aI2
aI0
aI0
aI0
aI0
aI0
aI4
aI2
asS'KV Sharma'
p413
(lp414
I0
aI1
aI1
aI0
aI0
aI0
aI0
aI0
aI3
aI2
asS'Harshal Patel'
p415
(lp416
I2
aI0
aI0
aI0
aI1
aI0
aI1
aI0
aI10
aI4
assS'Sarfaraz Khan'
p417
(dp418
S'MM Sharma'
p419
(lp420
I1
aI2
aI0
aI0
aI1
aI0
aI0
aI0
aI6
aI4
asS'Dwayne Bravo'
p421
(lp422
I2
aI4
aI1
aI0
aI2
aI0
aI0
aI0
aI14
aI9
asS'Anureet Singh'
p423
(lp424
I2
aI4
aI0
aI0
aI1
aI0
aI0
aI0
aI8
aI7
asS'Suresh Raina'
p425
(lp426
I0
aI1
aI0
aI0
aI0
aI0
aI0
aI0
aI1
aI1
asS'Stuart Binny'
p427
(lp428
I1
aI0
aI0
aI0
aI0
aI0
aI0
aI0
aI0
aI1
asS'TG Southee'
p429
(lp430
I1
aI1
aI2
aI0
aI0
aI0
aI0
aI0
aI5
aI4
asS'Dhawal Kulkarni'
p431
(lp432
I0
aI0
aI0
aI0
aI1
aI0
aI0
aI0
aI4
aI1
asS'Sandeep Sharma'
p433
(lp434
I0
aI1
aI1
aI0
aI0
aI0
aI0
aI0
aI3
aI2
asS'Ashish Nehra'
p435
(lp436
I3
aI3
aI0
aI0
aI0
aI0
aI0
aI0
aI3
aI6
asS'Pawan Negi'
p437
(lp438
I2
aI1
aI1
aI0
aI0
aI0
aI0
aI0
aI3
aI4
asS'James Faulkner'
p439
(lp440
I0
aI2
aI0
aI0
aI1
aI0
aI0
aI0
aI6
aI3
asS'PV Tambe'
p441
(lp442
I0
aI3
aI1
aI0
aI2
aI0
aI1
aI0
aI19
aI7
asS'Axar Patel'
p443
(lp444
I0
aI4
aI0
aI0
aI0
aI0
aI0
aI0
aI4
aI4
asS'Chris Morris'
p445
(lp446
I0
aI1
aI0
aI0
aI0
aI0
aI0
aI0
aI1
aI1
asS'IC Pandey'
p447
(lp448
I0
aI4
aI0
aI0
aI0
aI0
aI0
aI0
aI4
aI4
asS'Ravindra Jadeja'
p449
(lp450
I5
aI2
aI4
aI0
aI2
aI0
aI2
aI0
aI30
aI15
asS'Shane Watson'
p451
(lp452
I0
aI3
aI0
aI0
aI2
aI0
aI0
aI0
aI11
aI5
assS'Manish Pandey'
p453
(dp454
S'MM Sharma'
p455
(lp456
I1
aI1
aI0
aI0
aI0
aI0
aI0
aI0
aI1
aI2
asS'Ashish Nehra'
p457
(lp458
I6
aI2
aI0
aI0
aI1
aI0
aI0
aI0
aI6
aI9
asS'RG More'
p459
(lp460
I0
aI2
aI0
aI0
aI0
aI0
aI0
aI0
aI2
aI2
asS'Bipul Sharma'
p461
(lp462
I5
aI9
aI1
aI0
aI0
aI0
aI1
aI0
aI17
aI16
asS'DJ Muthuswami'
p463
(lp464
I6
aI0
aI0
aI0
aI0
aI0
aI0
aI0
aI0
aI6
asS'Pawan Negi'
p465
(lp466
I3
aI1
aI0
aI0
aI0
aI0
aI0
aI0
aI1
aI4
asS'Harbhajan Singh'
p467
(lp468
I2
aI5
aI0
aI0
aI0
aI0
aI0
aI0
aI5
aI7
asS'AN Ahmed'
p469
(lp470
I1
aI0
aI0
aI0
aI0
aI0
aI0
aI0
aI0
aI1
asS'Angelo Mathews'
p471
(lp472
I1
aI1
aI0
aI0
aI0
aI0
aI0
aI0
aI1
aI2
asS'Gurkeerat Singh'
p473
(lp474
I2
aI2
aI0
aI0
aI0
aI0
aI0
aI0
aI2
aI4
asS'Anureet Singh'
p475
(lp476
I2
aI3
aI0
aI0
aI1
aI0
aI0
aI0
aI7
aI6
asS'Varun Aaron'
p477
(lp478
I0
aI1
aI0
aI0
aI1
aI0
aI0
aI0
aI5
aI2
asS'Sandeep Sharma'
p479
(lp480
I3
aI1
aI0
aI2
aI7
aI0
aI0
aI0
aI35
aI13
asS'Corey Anderson'
p481
(lp482
I2
aI1
aI1
aI0
aI1
aI0
aI1
aI0
aI13
aI6
asS'James Faulkner'
p483
(lp484
I0
aI2
aI0
aI0
aI0
aI0
aI0
aI0
aI2
aI2
asS'Moises Henriques'
p485
(lp486
I2
aI2
aI0
aI0
aI0
aI0
aI2
aI0
aI14
aI6
asS'Axar Patel'
p487
(lp488
I1
aI1
aI0
aI0
aI0
aI0
aI0
aI0
aI1
aI2
asS'KV Sharma'
p489
(lp490
I5
aI8
aI1
aI0
aI1
aI0
aI1
aI0
aI20
aI16
asS'Glenn Maxwell'
p491
(lp492
I1
aI1
aI0
aI0
aI0
aI0
aI0
aI0
aI1
aI2
asS'RS Bopara'
p493
(lp494
I0
aI4
aI0
aI0
aI0
aI0
aI0
aI0
aI4
aI4
asS'Yuzvendra Chahal'
p495
(lp496
I3
aI3
aI1
aI0
aI1
aI0
aI0
aI0
aI9
aI8
asS'Ravindra Jadeja'
p497
(lp498
I0
aI2
aI0
aI0
aI0
aI0
aI0
aI0
aI2
aI2
asS'Imran Tahir'
p499
(lp500
I1
aI3
aI1
aI0
aI0
aI0
aI1
aI0
aI11
aI6
asS'Dhawal Kulkarni'
p501
(lp502
I2
aI3
aI0
aI0
aI0
aI0
aI0
aI0
aI3
aI5
asS'Harshal Patel'
p503
(lp504
I1
aI0
aI0
aI0
aI0
aI0
aI0
aI0
aI0
aI1
asS'Pragyan Ojha'
p505
(lp506
I0
aI3
aI0
aI0
aI0
aI0
aI1
aI0
aI9
aI4
asS'Albie Morkel'
p507
(lp508
I1
aI1
aI0
aI0
aI1
aI0
aI0
aI0
aI5
aI3
asS'Chris Morris'
p509
(lp510
I1
aI0
aI0
aI0
aI0
aI0
aI0
aI0
aI0
aI1
asS'Ravichandran Ashwin'
p511
(lp512
I4
aI1
aI0
aI0
aI0
aI0
aI0
aI0
aI1
aI5
asS'Lasith Malinga'
p513
(lp514
I1
aI2
aI0
aI0
aI0
aI0
aI1
aI0
aI8
aI4
asS'BB Sran'
p515
(lp516
I5
aI2
aI0
aI0
aI2
aI0
aI0
aI0
aI10
aI9
asS'IC Pandey'
p517
(lp518
I4
aI1
aI0
aI0
aI1
aI0
aI0
aI0
aI5
aI6
asS'Jasprit Bumrah'
p519
(lp520
I1
aI1
aI0
aI0
aI1
aI0
aI0
aI0
aI5
aI3
asS'R Vinay Kumar'
p521
(lp522
I0
aI1
aI0
aI0
aI0
aI0
aI0
aI0
aI1
aI1
asS'Bhuvneshwar Kumar'
p523
(lp524
I0
aI10
aI0
aI0
aI2
aI0
aI0
aI0
aI18
aI12
asS'Yuvraj Singh'
p525
(lp526
I1
aI0
aI1
aI0
aI0
aI0
aI0
aI0
aI2
aI2
asS'Amit Mishra'
p527
(lp528
I3
aI2
aI0
aI0
aI0
aI0
aI0
aI0
aI2
aI5
asS'SA Abbott'
p529
(lp530
I0
aI1
aI0
aI0
aI2
aI0
aI0
aI0
aI9
aI3
asS'Shane Watson'
p531
(lp532
I1
aI2
aI0
aI0
aI1
aI0
aI0
aI0
aI6
aI4
asS'Praveen Kumar'
p533
(lp534
I6
aI2
aI2
aI0
aI0
aI0
aI0
aI0
aI6
aI10
asS'Zaheer Khan'
p535
(lp536
I0
aI1
aI0
aI0
aI0
aI0
aI0
aI0
aI1
aI1
asS'Dale Steyn'
p537
(lp538
I2
aI4
aI0
aI0
aI4
aI0
aI0
aI0
aI20
aI10
assS'Virender Sehwag'
p539
(dp540
S'Imran Tahir'
p541
(lp542
I0
aI2
aI0
aI0
aI4
aI0
aI2
aI0
aI30
aI8
asS'Stuart Binny'
p543
(lp544
I6
aI2
aI0
aI0
aI0
aI0
aI0
aI0
aI2
aI8
asS'Jean-Paul Duminy'
p545
(lp546
I4
aI2
aI0
aI0
aI0
aI0
aI2
aI0
aI14
aI8
asS'TG Southee'
p547
(lp548
I1
aI0
aI0
aI0
aI0
aI0
aI0
aI0
aI0
aI1
asS'Morne Morkel'
p549
(lp550
I8
aI6
aI0
aI0
aI2
aI0
aI0
aI0
aI14
aI16
asS'Lasith Malinga'
p551
(lp552
I2
aI1
aI0
aI0
aI2
aI0
aI0
aI0
aI9
aI5
asS'DJ Muthuswami'
p553
(lp554
I0
aI6
aI0
aI0
aI0
aI0
aI0
aI0
aI6
aI6
asS'R Vinay Kumar'
p555
(lp556
I0
aI2
aI0
aI0
aI2
aI0
aI1
aI0
aI16
aI5
asS'Harbhajan Singh'
p557
(lp558
I1
aI1
aI0
aI0
aI0
aI0
aI0
aI0
aI1
aI2
asS'Yuvraj Singh'
p559
(lp560
I0
aI4
aI0
aI0
aI0
aI0
aI0
aI0
aI4
aI4
asS'Amit Mishra'
p561
(lp562
I4
aI12
aI0
aI0
aI0
aI0
aI0
aI0
aI12
aI16
asS'MJ McClenaghan'
p563
(lp564
I2
aI2
aI0
aI0
aI0
aI0
aI0
aI0
aI2
aI4
asS'P Suyal'
p565
(lp566
I4
aI2
aI0
aI0
aI2
aI0
aI0
aI0
aI10
aI8
asS'Angelo Mathews'
p567
(lp568
I6
aI10
aI0
aI0
aI2
aI0
aI0
aI0
aI18
aI18
asS'Andre Russell'
p569
(lp570
I2
aI0
aI0
aI0
aI2
aI0
aI0
aI0
aI8
aI4
asS'IC Pandey'
p571
(lp572
I1
aI1
aI0
aI0
aI0
aI0
aI0
aI0
aI1
aI2
asS'Zaheer Khan'
p573
(lp574
I1
aI1
aI0
aI0
aI0
aI0
aI0
aI0
aI1
aI2
asS'NM Coulter-Nile'
p575
(lp576
I18
aI2
aI0
aI0
aI2
aI0
aI0
aI0
aI10
aI22
assS'PJ Cummins '
p577
(dp578
S'Ashish Nehra'
p579
(lp580
I1
aI0
aI0
aI0
aI0
aI0
aI0
aI0
aI0
aI1
asS'Dwayne Bravo'
p581
(lp582
I1
aI0
aI0
aI0
aI0
aI0
aI0
aI0
aI0
aI1
assS'Praveen Kumar '
p583
(dp584
S'Lasith Malinga'
p585
(lp586
I3
aI2
aI0
aI0
aI0
aI0
aI0
aI0
aI2
aI5
asS'Kieron Pollard'
p587
(lp588
I0
aI1
aI0
aI0
aI0
aI0
aI0
aI0
aI1
aI1
asS'NM Coulter-Nile'
p589
(lp590
I0
aI2
aI0
aI0
aI0
aI0
aI0
aI0
aI2
aI2
asS'R Vinay Kumar'
p591
(lp592
I1
aI0
aI0
aI0
aI0
aI0
aI0
aI0
aI0
aI1
asS'Johan Botha'
p593
(lp594
I1
aI2
aI0
aI0
aI0
aI0
aI0
aI0
aI2
aI3
asS'UT Yadav'
p595
(lp596
I1
aI1
aI1
aI0
aI0
aI0
aI0
aI0
aI3
aI3
asS'Brad Hogg'
p597
(lp598
I2
aI3
aI0
aI0
aI1
aI0
aI0
aI0
aI7
aI6
asS'MJ McClenaghan'
p599
(lp600
I0
aI1
aI0
aI0
aI0
aI0
aI0
aI0
aI1
aI1
asS'Andre Russell'
p601
(lp602
I4
aI0
aI0
aI0
aI0
aI0
aI0
aI0
aI0
aI4
assS'SS Iyer '
p603
(dp604
S'MM Sharma'
p605
(lp606
I3
aI4
aI0
aI0
aI2
aI0
aI0
aI0
aI12
aI9
asS'Ashish Nehra'
p607
(lp608
I3
aI1
aI0
aI0
aI1
aI0
aI0
aI0
aI5
aI5
asS'SN Thakur'
p609
(lp610
I3
aI2
aI1
aI0
aI1
aI0
aI2
aI0
aI20
aI9
asS'D Wiese'
p611
(lp612
I1
aI2
aI0
aI0
aI0
aI0
aI0
aI0
aI2
aI3
asS'Dhawal Kulkarni'
p613
(lp614
I4
aI0
aI0
aI0
aI2
aI0
aI0
aI0
aI8
aI6
asS'Pawan Negi'
p615
(lp616
I3
aI5
aI1
aI0
aI2
aI0
aI0
aI0
aI15
aI11
asS'Harbhajan Singh'
p617
(lp618
I4
aI7
aI0
aI0
aI1
aI0
aI2
aI0
aI23
aI14
asS'Dale Steyn'
p619
(lp620
I8
aI2
aI4
aI0
aI2
aI0
aI0
aI0
aI18
aI16
asS'MJ McClenaghan'
p621
(lp622
I12
aI2
aI1
aI0
aI5
aI0
aI2
aI0
aI36
aI22
asS'Suresh Raina'
p623
(lp624
I1
aI2
aI0
aI0
aI1
aI0
aI0
aI0
aI6
aI4
asS'Anureet Singh'
p625
(lp626
I4
aI4
aI0
aI0
aI2
aI0
aI0
aI0
aI12
aI10
asS'Morne Morkel'
p627
(lp628
I8
aI2
aI2
aI0
aI4
aI0
aI0
aI0
aI22
aI16
asS'Mitchell Starc'
p629
(lp630
I4
aI2
aI0
aI0
aI0
aI0
aI1
aI0
aI8
aI7
asS'Sandeep Sharma'
p631
(lp632
I14
aI1
aI2
aI0
aI2
aI0
aI0
aI0
aI13
aI19
asS'James Faulkner'
p633
(lp634
I1
aI1
aI0
aI0
aI1
aI0
aI1
aI0
aI11
aI4
asS'A Ashish Reddy'
p635
(lp636
I2
aI2
aI2
aI0
aI0
aI0
aI2
aI0
aI18
aI8
asS'PV Tambe'
p637
(lp638
I4
aI4
aI0
aI0
aI1
aI0
aI1
aI0
aI14
aI10
asS'Axar Patel'
p639
(lp640
I0
aI5
aI0
aI0
aI0
aI0
aI1
aI0
aI11
aI6
asS'KV Sharma'
p641
(lp642
I4
aI6
aI0
aI0
aI0
aI0
aI6
aI0
aI42
aI16
asS'RS Bopara'
p643
(lp644
I4
aI8
aI0
aI0
aI0
aI0
aI0
aI0
aI8
aI12
asS'Andre Russell'
p645
(lp646
I13
aI9
aI1
aI0
aI3
aI0
aI3
aI0
aI41
aI29
asS'TG Southee'
p647
(lp648
I4
aI3
aI0
aI0
aI1
aI0
aI0
aI0
aI7
aI8
asS'Ravindra Jadeja'
p649
(lp650
I2
aI4
aI0
aI0
aI1
aI0
aI0
aI0
aI8
aI7
asS'Kieron Pollard'
p651
(lp652
I1
aI4
aI0
aI0
aI0
aI0
aI0
aI0
aI4
aI5
asS'Harshal Patel'
p653
(lp654
I2
aI1
aI0
aI0
aI0
aI0
aI0
aI0
aI1
aI3
asS'UT Yadav'
p655
(lp656
I3
aI6
aI0
aI0
aI0
aI0
aI0
aI0
aI6
aI9
asS'Brad Hogg'
p657
(lp658
I3
aI3
aI0
aI0
aI1
aI0
aI0
aI0
aI7
aI7
asS'Sunil Narine'
p659
(lp660
I3
aI2
aI0
aI0
aI0
aI0
aI0
aI0
aI2
aI5
asS'HH Pandya'
p661
(lp662
I4
aI3
aI0
aI0
aI1
aI0
aI0
aI0
aI7
aI8
asS'Chris Morris'
p663
(lp664
I5
aI1
aI0
aI0
aI0
aI0
aI1
aI0
aI7
aI7
asS'Lasith Malinga'
p665
(lp666
I6
aI3
aI1
aI0
aI1
aI0
aI0
aI0
aI9
aI11
asS'NLTC Perera'
p667
(lp668
I0
aI4
aI1
aI0
aI1
aI0
aI0
aI0
aI10
aI6
asS'IC Pandey'
p669
(lp670
I2
aI2
aI0
aI0
aI2
aI0
aI1
aI0
aI16
aI7
asS'Jasprit Bumrah'
p671
(lp672
I1
aI3
aI1
aI0
aI2
aI0
aI1
aI0
aI19
aI8
asS'R Vinay Kumar'
p673
(lp674
I3
aI2
aI1
aI0
aI0
aI0
aI0
aI0
aI4
aI6
asS'Bhuvneshwar Kumar'
p675
(lp676
I9
aI2
aI0
aI0
aI0
aI0
aI0
aI0
aI2
aI11
asS'AB Dinda'
p677
(lp678
I1
aI3
aI1
aI0
aI1
aI0
aI0
aI0
aI9
aI6
asS'Ravichandran Ashwin'
p679
(lp680
I6
aI3
aI2
aI0
aI2
aI0
aI0
aI0
aI15
aI13
asS'DJ Hooda'
p681
(lp682
I4
aI2
aI0
aI0
aI0
aI0
aI0
aI0
aI2
aI6
asS'Piyush Chawla'
p683
(lp684
I3
aI10
aI2
aI0
aI1
aI0
aI1
aI0
aI24
aI17
asS'Praveen Kumar'
p685
(lp686
I14
aI4
aI0
aI0
aI4
aI0
aI2
aI0
aI32
aI24
asS'Shane Watson'
p687
(lp688
I1
aI0
aI0
aI0
aI0
aI0
aI0
aI0
aI0
aI1
assS'Iqbal Abdulla '
p689
(dp690
S'Lasith Malinga'
p691
(lp692
I2
aI2
aI0
aI0
aI2
aI0
aI0
aI0
aI10
aI6
asS'HH Pandya'
p693
(lp694
I2
aI2
aI0
aI0
aI0
aI0
aI0
aI0
aI2
aI4
asS'Dwayne Bravo'
p695
(lp696
I3
aI0
aI0
aI0
aI0
aI0
aI0
aI0
aI0
aI3
asS'Jasprit Bumrah'
p697
(lp698
I8
aI2
aI0
aI0
aI6
aI0
aI0
aI0
aI26
aI16
asS'MJ McClenaghan'
p699
(lp700
I2
aI2
aI0
aI0
aI0
aI0
aI0
aI0
aI2
aI4
assS'R Vinay Kumar '
p701
(dp702
S'Bhuvneshwar Kumar'
p703
(lp704
I1
aI0
aI0
aI0
aI0
aI0
aI0
aI0
aI0
aI1
asS'Dwayne Bravo'
p705
(lp706
I2
aI0
aI0
aI0
aI0
aI0
aI0
aI0
aI0
aI2
assS'Glenn Maxwell'
p707
(dp708
S'Ashish Nehra'
p709
(lp710
I5
aI0
aI0
aI0
aI1
aI0
aI0
aI0
aI4
aI6
asS'Bipul Sharma'
p711
(lp712
I2
aI1
aI0
aI0
aI0
aI0
aI1
aI0
aI7
aI4
asS'MJ McClenaghan'
p713
(lp714
I2
aI1
aI0
aI0
aI0
aI0
aI0
aI0
aI1
aI3
asS'D Wiese'
p715
(lp716
I2
aI1
aI0
aI0
aI0
aI0
aI0
aI0
aI1
aI3
asS'Dhawal Kulkarni'
p717
(lp718
I0
aI1
aI0
aI0
aI1
aI0
aI0
aI0
aI5
aI2
asS'Harbhajan Singh'
p719
(lp720
I0
aI1
aI0
aI0
aI0
aI0
aI0
aI0
aI1
aI1
asS'R Tewatia'
p721
(lp722
I6
aI0
aI0
aI0
aI0
aI0
aI0
aI0
aI0
aI6
asS'Morne Morkel'
p723
(lp724
I2
aI2
aI0
aI0
aI2
aI0
aI2
aI0
aI22
aI8
asS'James Faulkner'
p725
(lp726
I2
aI0
aI1
aI0
aI0
aI0
aI0
aI0
aI2
aI3
asS'PV Tambe'
p727
(lp728
I4
aI2
aI0
aI0
aI0
aI0
aI0
aI0
aI2
aI6
asS'S Aravind'
p729
(lp730
I2
aI2
aI1
aI0
aI0
aI0
aI0
aI0
aI4
aI5
asS'Andre Russell'
p731
(lp732
I6
aI7
aI2
aI0
aI0
aI0
aI3
aI0
aI29
aI18
asS'Ravindra Jadeja'
p733
(lp734
I3
aI0
aI0
aI0
aI0
aI0
aI0
aI0
aI0
aI3
asS'Imran Tahir'
p735
(lp736
I2
aI2
aI2
aI0
aI0
aI0
aI4
aI0
aI30
aI10
asS'TA Boult'
p737
(lp738
I1
aI0
aI0
aI0
aI1
aI0
aI0
aI0
aI4
aI2
asS'Harshal Patel'
p739
(lp740
I4
aI2
aI0
aI0
aI1
aI0
aI0
aI0
aI6
aI7
asS'J Suchith'
p741
(lp742
I2
aI1
aI0
aI0
aI2
aI0
aI0
aI0
aI9
aI5
asS'UT Yadav'
p743
(lp744
I3
aI4
aI0
aI0
aI1
aI0
aI0
aI0
aI8
aI8
asS'Brad Hogg'
p745
(lp746
I2
aI0
aI0
aI0
aI2
aI0
aI1
aI0
aI14
aI5
asS'Sunil Narine'
p747
(lp748
I16
aI5
aI0
aI0
aI2
aI0
aI0
aI0
aI13
aI23
asS'Lasith Malinga'
p749
(lp750
I1
aI1
aI1
aI0
aI0
aI0
aI0
aI0
aI3
aI3
asS'R Vinay Kumar'
p751
(lp752
I0
aI0
aI0
aI0
aI1
aI0
aI0
aI0
aI4
aI1
asS'Ravichandran Ashwin'
p753
(lp754
I3
aI1
aI0
aI0
aI0
aI0
aI0
aI0
aI1
aI4
asS'Piyush Chawla'
p755
(lp756
I0
aI7
aI3
aI0
aI1
aI0
aI1
aI0
aI23
aI12
asS'IC Pandey'
p757
(lp758
I0
aI1
aI0
aI0
aI0
aI0
aI0
aI0
aI1
aI1
assS'Mitchell Starc '
p759
(dp760
S'MM Sharma'
p761
(lp762
I2
aI5
aI0
aI0
aI2
aI0
aI0
aI0
aI13
aI9
asS'Dwayne Bravo'
p763
(lp764
I4
aI7
aI0
aI0
aI0
aI0
aI0
aI0
aI7
aI11
assS'George Bailey'
p765
(dp766
S'Ashish Nehra'
p767
(lp768
I2
aI1
aI0
aI0
aI0
aI0
aI0
aI0
aI1
aI3
asS'D Wiese'
p769
(lp770
I0
aI1
aI1
aI0
aI1
aI0
aI0
aI0
aI7
aI3
asS'TA Boult'
p771
(lp772
I1
aI2
aI0
aI0
aI0
aI0
aI0
aI0
aI2
aI3
asS'Pawan Negi'
p773
(lp774
I0
aI1
aI1
aI0
aI1
aI0
aI0
aI0
aI7
aI3
asS'Harbhajan Singh'
p775
(lp776
I3
aI5
aI1
aI0
aI0
aI0
aI0
aI0
aI7
aI9
asS'MJ McClenaghan'
p777
(lp778
I0
aI3
aI1
aI0
aI0
aI0
aI0
aI0
aI5
aI4
asS'Jean-Paul Duminy'
p779
(lp780
I0
aI6
aI2
aI0
aI0
aI0
aI0
aI0
aI10
aI8
asS'NM Coulter-Nile'
p781
(lp782
I3
aI2
aI0
aI0
aI2
aI0
aI0
aI0
aI10
aI7
asS'Morne Morkel'
p783
(lp784
I8
aI2
aI0
aI0
aI0
aI0
aI2
aI0
aI14
aI12
asS'James Faulkner'
p785
(lp786
I1
aI3
aI1
aI0
aI1
aI0
aI1
aI0
aI15
aI7
asS'PV Tambe'
p787
(lp788
I2
aI1
aI0
aI0
aI0
aI0
aI0
aI0
aI1
aI3
asS'S Aravind'
p789
(lp790
I1
aI1
aI0
aI0
aI0
aI0
aI0
aI0
aI1
aI2
asS'KV Sharma'
p791
(lp792
I2
aI4
aI1
aI0
aI0
aI0
aI0
aI0
aI6
aI7
asS'Yuzvendra Chahal'
p793
(lp794
I2
aI3
aI0
aI0
aI0
aI0
aI0
aI0
aI3
aI5
asS'TG Southee'
p795
(lp796
I0
aI1
aI0
aI0
aI0
aI0
aI0
aI0
aI1
aI1
asS'Ravindra Jadeja'
p797
(lp798
I1
aI0
aI0
aI0
aI0
aI0
aI0
aI0
aI0
aI1
asS'Imran Tahir'
p799
(lp800
I4
aI4
aI2
aI0
aI0
aI0
aI0
aI0
aI8
aI10
asS'Kieron Pollard'
p801
(lp802
I1
aI4
aI0
aI0
aI1
aI0
aI0
aI0
aI8
aI6
asS'Dhawal Kulkarni'
p803
(lp804
I2
aI0
aI0
aI0
aI1
aI0
aI0
aI0
aI4
aI3
asS'Harshal Patel'
p805
(lp806
I0
aI2
aI1
aI0
aI0
aI0
aI0
aI0
aI4
aI3
asS'Moises Henriques'
p807
(lp808
I4
aI3
aI1
aI0
aI0
aI0
aI0
aI0
aI5
aI8
asS'J Suchith'
p809
(lp810
I0
aI3
aI3
aI0
aI0
aI0
aI1
aI0
aI15
aI7
asS'UT Yadav'
p811
(lp812
I0
aI6
aI0
aI0
aI6
aI0
aI0
aI0
aI30
aI12
asS'Sunil Narine'
p813
(lp814
I4
aI10
aI4
aI0
aI0
aI0
aI0
aI0
aI18
aI18
asS'P Suyal'
p815
(lp816
I0
aI2
aI0
aI0
aI2
aI0
aI0
aI0
aI10
aI4
asS'Chris Morris'
p817
(lp818
I2
aI1
aI1
aI0
aI0
aI0
aI0
aI0
aI3
aI4
asS'Lasith Malinga'
p819
(lp820
I2
aI9
aI2
aI0
aI2
aI0
aI1
aI0
aI27
aI16
asS'Andre Russell'
p821
(lp822
I4
aI10
aI2
aI0
aI4
aI0
aI0
aI0
aI30
aI20
asS'IC Pandey'
p823
(lp824
I1
aI1
aI0
aI0
aI1
aI0
aI0
aI0
aI5
aI3
asS'R Vinay Kumar'
p825
(lp826
I0
aI2
aI1
aI0
aI0
aI0
aI1
aI0
aI10
aI4
asS'Bhuvneshwar Kumar'
p827
(lp828
I1
aI2
aI0
aI0
aI0
aI0
aI0
aI0
aI2
aI3
asS'Amit Mishra'
p829
(lp830
I2
aI3
aI0
aI0
aI2
aI0
aI2
aI0
aI23
aI9
asS'Piyush Chawla'
p831
(lp832
I10
aI16
aI0
aI0
aI0
aI0
aI2
aI0
aI28
aI28
asS'Praveen Kumar'
p833
(lp834
I2
aI1
aI0
aI0
aI3
aI0
aI0
aI0
aI13
aI6
asS'Zaheer Khan'
p835
(lp836
I2
aI1
aI0
aI0
aI1
aI0
aI0
aI0
aI5
aI4
assS'Mitchell Johnson '
p837
(dp838
S'Lasith Malinga'
p839
(lp840
I2
aI1
aI0
aI0
aI0
aI0
aI0
aI0
aI1
aI3
asS'Bhuvneshwar Kumar'
p841
(lp842
I1
aI1
aI0
aI0
aI0
aI0
aI0
aI0
aI1
aI2
asS'Morne Morkel'
p843
(lp844
I2
aI2
aI0
aI0
aI0
aI0
aI0
aI0
aI2
aI4
asS'TG Southee'
p845
(lp846
I3
aI0
aI0
aI0
aI0
aI0
aI0
aI0
aI0
aI3
asS'R Vinay Kumar'
p847
(lp848
I2
aI3
aI0
aI0
aI0
aI0
aI1
aI0
aI9
aI6
asS'James Faulkner'
p849
(lp850
I1
aI2
aI4
aI0
aI0
aI0
aI0
aI0
aI10
aI7
asS'Mitchell Starc'
p851
(lp852
I2
aI0
aI0
aI0
aI0
aI0
aI0
aI0
aI0
aI2
asS'Ravichandran Ashwin'
p853
(lp854
I0
aI1
aI0
aI0
aI0
aI0
aI0
aI0
aI1
aI1
asS'S Aravind'
p855
(lp856
I1
aI1
aI0
aI0
aI0
aI0
aI0
aI0
aI1
aI2
asS'P Suyal'
p857
(lp858
I1
aI1
aI0
aI0
aI0
aI0
aI0
aI0
aI1
aI2
asS'Chris Morris'
p859
(lp860
I0
aI4
aI2
aI0
aI2
aI0
aI0
aI0
aI16
aI8
asS'Praveen Kumar'
p861
(lp862
I1
aI3
aI0
aI0
aI0
aI0
aI0
aI0
aI3
aI4
asS'Ravindra Jadeja'
p863
(lp864
I1
aI0
aI0
aI0
aI0
aI0
aI0
aI0
aI0
aI1
assS'J Suchith '
p865
(dp866
S'Shikhar Dhawan'
p867
(lp868
I4
aI2
aI0
aI0
aI1
aI0
aI0
aI0
aI6
aI7
asS'Dwayne Bravo'
p869
(lp870
I0
aI1
aI0
aI0
aI0
aI0
aI0
aI0
aI1
aI1
asS'Chris Morris'
p871
(lp872
I2
aI0
aI0
aI0
aI0
aI0
aI0
aI0
aI0
aI2
asS'Anureet Singh'
p873
(lp874
I1
aI1
aI0
aI0
aI0
aI0
aI0
aI0
aI1
aI2
asS'TA Boult'
p875
(lp876
I0
aI1
aI1
aI0
aI0
aI0
aI0
aI0
aI3
aI2
asS'Bhuvneshwar Kumar'
p877
(lp878
I0
aI0
aI3
aI0
aI0
aI0
aI0
aI0
aI6
aI3
asS'Mitchell Starc'
p879
(lp880
I0
aI2
aI0
aI0
aI0
aI0
aI0
aI0
aI2
aI2
asS'Axar Patel'
p881
(lp882
I2
aI3
aI0
aI0
aI2
aI0
aI1
aI0
aI17
aI8
asS'Mitchell Johnson'
p883
(lp884
I2
aI0
aI0
aI0
aI1
aI0
aI1
aI0
aI10
aI4
asS'Yuzvendra Chahal'
p885
(lp886
I1
aI0
aI1
aI0
aI0
aI0
aI0
aI0
aI2
aI2
assS'MJ McClenaghan '
p887
(dp888
S'Imran Tahir'
p889
(lp890
I1
aI0
aI0
aI0
aI0
aI0
aI0
aI0
aI0
aI1
asS'Bhuvneshwar Kumar'
p891
(lp892
I0
aI1
aI0
aI0
aI0
aI0
aI0
aI0
aI1
aI1
asS'Yuzvendra Chahal'
p893
(lp894
I2
aI0
aI0
aI0
aI0
aI0
aI2
aI0
aI12
aI4
assS'DJ Muthuswami '
p895
(dp896
S'D Wiese'
p897
(lp898
I1
aI0
aI0
aI0
aI0
aI0
aI0
aI0
aI0
aI1
asS'Harshal Patel'
p899
(lp900
I1
aI1
aI0
aI0
aI0
aI0
aI0
aI0
aI1
aI2
assS'J Theron '
p901
(dp902
S'R Vinay Kumar'
p903
(lp904
I0
aI1
aI0
aI0
aI0
aI0
aI0
aI0
aI1
aI1
assS'SE Marsh '
p905
(dp906
S'MM Sharma'
p907
(lp908
I1
aI1
aI1
aI0
aI1
aI0
aI0
aI0
aI7
aI4
asS'Ashish Nehra'
p909
(lp910
I1
aI2
aI0
aI0
aI0
aI0
aI0
aI0
aI2
aI3
asS'Jean-Paul Duminy'
p911
(lp912
I1
aI0
aI0
aI0
aI0
aI0
aI0
aI0
aI0
aI1
asS'Stuart Binny'
p913
(lp914
I2
aI0
aI2
aI0
aI2
aI0
aI0
aI0
aI12
aI6
asS'TA Boult'
p915
(lp916
I2
aI1
aI0
aI0
aI0
aI0
aI0
aI0
aI1
aI3
asS'James Faulkner'
p917
(lp918
I2
aI4
aI2
aI0
aI2
aI0
aI0
aI0
aI16
aI10
asS'PV Tambe'
p919
(lp920
I6
aI4
aI0
aI2
aI2
aI0
aI0
aI0
aI18
aI14
asS'DJ Hooda'
p921
(lp922
I0
aI6
aI0
aI0
aI0
aI0
aI2
aI0
aI18
aI8
asS'R Tewatia'
p923
(lp924
I6
aI8
aI6
aI0
aI4
aI0
aI4
aI0
aI60
aI28
asS'Chris Morris'
p925
(lp926
I8
aI2
aI0
aI0
aI0
aI0
aI0
aI0
aI2
aI10
asS'IC Pandey'
p927
(lp928
I2
aI1
aI0
aI0
aI0
aI0
aI0
aI0
aI1
aI3
asS'Bhuvneshwar Kumar'
p929
(lp930
I1
aI0
aI0
aI0
aI0
aI0
aI0
aI0
aI0
aI1
asS'Zaheer Khan'
p931
(lp932
I1
aI1
aI0
aI0
aI1
aI0
aI0
aI0
aI5
aI3
asS'Shane Watson'
p933
(lp934
I0
aI4
aI0
aI0
aI0
aI0
aI0
aI0
aI4
aI4
assS'Suresh Raina'
p935
(dp936
S'D Wiese'
p937
(lp938
I11
aI11
aI1
aI0
aI2
aI0
aI2
aI0
aI33
aI27
asS'BE Hendricks'
p939
(lp940
I1
aI3
aI0
aI0
aI0
aI0
aI0
aI0
aI3
aI4
asS'Harbhajan Singh'
p941
(lp942
I14
aI16
aI1
aI0
aI2
aI0
aI4
aI0
aI50
aI37
asS'I Sharma'
p943
(lp944
I0
aI1
aI1
aI0
aI0
aI0
aI0
aI0
aI3
aI2
asS'MJ McClenaghan'
p945
(lp946
I1
aI0
aI0
aI0
aI1
aI0
aI0
aI0
aI4
aI2
asS'Karanveer Singh'
p947
(lp948
I3
aI0
aI0
aI0
aI0
aI0
aI0
aI0
aI0
aI3
asS'NM Coulter-Nile'
p949
(lp950
I5
aI1
aI0
aI1
aI0
aI0
aI0
aI0
aI4
aI7
asS'Gurkeerat Singh'
p951
(lp952
I3
aI3
aI3
aI0
aI2
aI0
aI0
aI0
aI17
aI11
asS'Shikhar Dhawan'
p953
(lp954
I0
aI1
aI0
aI0
aI0
aI0
aI0
aI0
aI1
aI1
asS'Anureet Singh'
p955
(lp956
I4
aI8
aI0
aI0
aI3
aI0
aI0
aI0
aI20
aI15
asS'Virat Kohli'
p957
(lp958
I1
aI2
aI0
aI0
aI0
aI0
aI0
aI0
aI2
aI3
asS'Sandeep Sharma'
p959
(lp960
I4
aI1
aI1
aI0
aI1
aI0
aI0
aI0
aI7
aI7
asS'Mitchell Starc'
p961
(lp962
I2
aI1
aI0
aI0
aI0
aI0
aI0
aI0
aI1
aI3
asS'PV Tambe'
p963
(lp964
I4
aI2
aI0
aI0
aI0
aI0
aI0
aI0
aI2
aI6
asS'Axar Patel'
p965
(lp966
I0
aI10
aI0
aI0
aI2
aI0
aI0
aI0
aI18
aI12
asS'Parvez Rasool'
p967
(lp968
I0
aI1
aI0
aI0
aI0
aI0
aI0
aI0
aI1
aI1
asS'KV Sharma'
p969
(lp970
I1
aI3
aI0
aI0
aI0
aI0
aI1
aI0
aI9
aI5
asS'Ankit Sharma'
p971
(lp972
I0
aI1
aI1
aI0
aI0
aI0
aI0
aI0
aI3
aI2
asS'RS Bopara'
p973
(lp974
I1
aI3
aI0
aI0
aI0
aI0
aI0
aI0
aI3
aI4
asS'Yuzvendra Chahal'
p975
(lp976
I7
aI6
aI1
aI0
aI2
aI0
aI7
aI0
aI58
aI23
asS'PJ Cummins'
p977
(lp978
I1
aI0
aI0
aI0
aI0
aI0
aI0
aI0
aI0
aI1
asS'DJ Hooda'
p979
(lp980
I2
aI2
aI0
aI0
aI0
aI0
aI0
aI0
aI2
aI4
asS'Kieron Pollard'
p981
(lp982
I5
aI10
aI1
aI0
aI4
aI0
aI0
aI0
aI28
aI20
asS'Iqbal Abdulla'
p983
(lp984
I3
aI7
aI2
aI0
aI4
aI0
aI4
aI0
aI51
aI20
asS'Harshal Patel'
p985
(lp986
I22
aI7
aI2
aI0
aI5
aI0
aI0
aI0
aI31
aI36
asS'Moises Henriques'
p987
(lp988
I2
aI2
aI0
aI0
aI0
aI0
aI0
aI0
aI2
aI4
asS'Albie Morkel'
p989
(lp990
I1
aI0
aI1
aI0
aI1
aI0
aI0
aI0
aI6
aI3
asS'J Suchith'
p991
(lp992
I2
aI0
aI0
aI0
aI1
aI0
aI0
aI0
aI4
aI3
asS'J Yadav'
p993
(lp994
I1
aI0
aI0
aI0
aI0
aI0
aI0
aI0
aI0
aI1
asS'UT Yadav'
p995
(lp996
I11
aI0
aI0
aI0
aI3
aI0
aI0
aI0
aI12
aI14
asS'Brad Hogg'
p997
(lp998
I5
aI2
aI0
aI0
aI0
aI0
aI0
aI0
aI2
aI7
asS'Glenn Maxwell'
p999
(lp1000
I2
aI1
aI0
aI0
aI0
aI0
aI0
aI0
aI1
aI3
asS'HH Pandya'
p1001
(lp1002
I2
aI2
aI1
aI0
aI2
aI0
aI0
aI0
aI12
aI7
asS'P Suyal'
p1003
(lp1004
I2
aI4
aI2
aI0
aI0
aI0
aI0
aI0
aI8
aI8
asS'Chris Morris'
p1005
(lp1006
I8
aI0
aI2
aI0
aI0
aI0
aI0
aI0
aI4
aI10
asS'S Nadeem'
p1007
(lp1008
I0
aI1
aI0
aI0
aI0
aI0
aI0
aI0
aI1
aI1
asS'Lasith Malinga'
p1009
(lp1010
I0
aI8
aI0
aI0
aI0
aI0
aI0
aI0
aI8
aI8
asS'Andre Russell'
p1011
(lp1012
I5
aI1
aI0
aI0
aI1
aI0
aI0
aI0
aI5
aI7
asS'GS Sandhu'
p1013
(lp1014
I0
aI2
aI1
aI0
aI0
aI0
aI0
aI0
aI4
aI3
asS'R Vinay Kumar'
p1015
(lp1016
I9
aI7
aI1
aI0
aI2
aI0
aI3
aI0
aI35
aI22
asS'Bhuvneshwar Kumar'
p1017
(lp1018
I4
aI3
aI0
aI0
aI1
aI0
aI1
aI0
aI13
aI9
asS'Mitchell Johnson'
p1019
(lp1020
I1
aI3
aI0
aI0
aI0
aI0
aI0
aI0
aI3
aI4
asS'Piyush Chawla'
p1021
(lp1022
I1
aI0
aI0
aI0
aI0
aI0
aI1
aI0
aI6
aI2
asS'Praveen Kumar'
p1023
(lp1024
I1
aI0
aI0
aI0
aI0
aI0
aI1
aI0
aI6
aI2
assS'Parvez Rasool '
p1025
(dp1026
S'MM Sharma'
p1027
(lp1028
I0
aI2
aI0
aI0
aI0
aI0
aI0
aI0
aI2
aI2
assS'Ashish Nehra '
p1029
(dp1030
S'Lasith Malinga'
p1031
(lp1032
I1
aI0
aI0
aI0
aI0
aI0
aI0
aI0
aI0
aI1
asS'Brad Hogg'
p1033
(lp1034
I1
aI0
aI0
aI0
aI0
aI0
aI0
aI0
aI0
aI1
asS'Andre Russell'
p1035
(lp1036
I2
aI1
aI0
aI0
aI0
aI0
aI0
aI0
aI1
aI3
asS'Mitchell Starc'
p1037
(lp1038
I3
aI0
aI0
aI0
aI0
aI0
aI0
aI0
aI0
aI3
assS'TG Southee '
p1039
(dp1040
S'Imran Tahir'
p1041
(lp1042
I1
aI0
aI0
aI0
aI0
aI0
aI0
aI0
aI0
aI1
asS'Lasith Malinga'
p1043
(lp1044
I0
aI2
aI1
aI0
aI0
aI0
aI0
aI0
aI4
aI3
asS'R Vinay Kumar'
p1045
(lp1046
I0
aI2
aI0
aI0
aI0
aI0
aI0
aI0
aI2
aI2
asS'Angelo Mathews'
p1047
(lp1048
I0
aI1
aI1
aI0
aI1
aI0
aI0
aI0
aI7
aI3
assS'Varun Aaron '
p1049
(dp1050
S'Bhuvneshwar Kumar'
p1051
(lp1052
I2
aI0
aI0
aI0
aI0
aI0
aI1
aI0
aI6
aI3
assS'SN Thakur '
p1053
(dp1054
S'Imran Tahir'
p1055
(lp1056
I1
aI2
aI0
aI0
aI0
aI0
aI0
aI0
aI2
aI3
asS'NM Coulter-Nile'
p1057
(lp1058
I1
aI1
aI0
aI0
aI1
aI0
aI0
aI0
aI5
aI3
assS'MS Dhoni'
p1059
(dp1060
S'DJ Hooda'
p1061
(lp1062
I2
aI4
aI0
aI0
aI0
aI0
aI0
aI0
aI4
aI6
asS'D Wiese'
p1063
(lp1064
I3
aI7
aI2
aI0
aI2
aI0
aI0
aI0
aI19
aI14
asS'BE Hendricks'
p1065
(lp1066
I3
aI1
aI0
aI0
aI1
aI0
aI0
aI0
aI5
aI5
asS'TA Boult'
p1067
(lp1068
I5
aI3
aI1
aI0
aI2
aI0
aI0
aI0
aI13
aI11
asS'Harbhajan Singh'
p1069
(lp1070
I3
aI6
aI0
aI0
aI1
aI0
aI1
aI0
aI16
aI11
asS'MJ McClenaghan'
p1071
(lp1072
I3
aI4
aI0
aI0
aI1
aI0
aI0
aI0
aI8
aI8
asS'Karanveer Singh'
p1073
(lp1074
I2
aI2
aI4
aI0
aI0
aI0
aI1
aI0
aI16
aI9
asS'NM Coulter-Nile'
p1075
(lp1076
I6
aI1
aI0
aI0
aI0
aI0
aI2
aI0
aI13
aI9
asS'DJ Muthuswami'
p1077
(lp1078
I2
aI1
aI0
aI0
aI0
aI0
aI0
aI0
aI1
aI3
asS'Stuart Binny'
p1079
(lp1080
I8
aI2
aI0
aI0
aI2
aI0
aI0
aI0
aI10
aI12
asS'Jean-Paul Duminy'
p1081
(lp1082
I0
aI1
aI1
aI0
aI0
aI0
aI0
aI0
aI3
aI2
asS'Anureet Singh'
p1083
(lp1084
I3
aI5
aI2
aI0
aI1
aI0
aI2
aI0
aI25
aI13
asS'A Ashish Reddy'
p1085
(lp1086
I2
aI1
aI1
aI0
aI0
aI0
aI0
aI0
aI3
aI4
asS'Sandeep Sharma'
p1087
(lp1088
I2
aI2
aI0
aI0
aI0
aI0
aI0
aI0
aI2
aI4
asS'James Faulkner'
p1089
(lp1090
I9
aI8
aI0
aI0
aI3
aI0
aI1
aI0
aI26
aI21
asS'Mitchell Starc'
p1091
(lp1092
I2
aI5
aI2
aI0
aI2
aI0
aI0
aI0
aI17
aI11
asS'PV Tambe'
p1093
(lp1094
I4
aI6
aI0
aI0
aI0
aI0
aI0
aI0
aI6
aI10
asS'Axar Patel'
p1095
(lp1096
I2
aI2
aI1
aI0
aI0
aI0
aI1
aI0
aI10
aI6
asS'S Aravind'
p1097
(lp1098
I0
aI1
aI0
aI0
aI0
aI0
aI0
aI0
aI1
aI1
asS'KV Sharma'
p1099
(lp1100
I2
aI2
aI0
aI0
aI1
aI0
aI3
aI0
aI24
aI8
asS'RS Bopara'
p1101
(lp1102
I3
aI5
aI0
aI0
aI3
aI0
aI0
aI0
aI17
aI11
asS'Yuzvendra Chahal'
p1103
(lp1104
I7
aI7
aI0
aI0
aI0
aI0
aI1
aI0
aI13
aI15
asS'M de Lange'
p1105
(lp1106
I1
aI2
aI0
aI0
aI1
aI0
aI0
aI0
aI6
aI4
asS'Imran Tahir'
p1107
(lp1108
I2
aI4
aI1
aI0
aI0
aI0
aI0
aI0
aI6
aI7
asS'Kieron Pollard'
p1109
(lp1110
I2
aI2
aI0
aI0
aI0
aI0
aI0
aI0
aI2
aI4
asS'Iqbal Abdulla'
p1111
(lp1112
I10
aI3
aI0
aI0
aI1
aI0
aI1
aI0
aI13
aI15
asS'Harshal Patel'
p1113
(lp1114
I7
aI6
aI2
aI0
aI2
aI0
aI0
aI0
aI18
aI17
asS'Shikhar Dhawan'
p1115
(lp1116
I3
aI0
aI0
aI0
aI0
aI0
aI0
aI0
aI0
aI3
asS'Moises Henriques'
p1117
(lp1118
I1
aI2
aI1
aI0
aI0
aI0
aI0
aI0
aI4
aI4
asS'Albie Morkel'
p1119
(lp1120
I2
aI3
aI0
aI0
aI1
aI0
aI0
aI0
aI7
aI6
asS'J Suchith'
p1121
(lp1122
I4
aI3
aI1
aI0
aI0
aI0
aI0
aI0
aI5
aI8
asS'J Yadav'
p1123
(lp1124
I6
aI1
aI0
aI0
aI1
aI0
aI0
aI0
aI5
aI8
asS'Brad Hogg'
p1125
(lp1126
I1
aI0
aI0
aI0
aI0
aI0
aI0
aI0
aI0
aI1
asS'HH Pandya'
p1127
(lp1128
I4
aI3
aI1
aI0
aI0
aI0
aI0
aI0
aI5
aI8
asS'Chris Morris'
p1129
(lp1130
I9
aI5
aI2
aI0
aI2
aI0
aI0
aI0
aI17
aI18
asS'Lasith Malinga'
p1131
(lp1132
I5
aI3
aI1
aI0
aI0
aI0
aI1
aI0
aI11
aI10
asS'Andre Russell'
p1133
(lp1134
I3
aI1
aI0
aI0
aI0
aI0
aI0
aI0
aI1
aI4
asS'GS Sandhu'
p1135
(lp1136
I1
aI2
aI0
aI0
aI1
aI0
aI0
aI0
aI6
aI4
asS'R Vinay Kumar'
p1137
(lp1138
I0
aI4
aI0
aI0
aI0
aI0
aI1
aI0
aI10
aI5
asS'Bhuvneshwar Kumar'
p1139
(lp1140
I1
aI2
aI1
aI0
aI0
aI0
aI1
aI0
aI10
aI5
asS'Yuvraj Singh'
p1141
(lp1142
I3
aI2
aI1
aI0
aI1
aI0
aI1
aI0
aI14
aI8
asS'Amit Mishra'
p1143
(lp1144
I1
aI2
aI0
aI0
aI0
aI0
aI0
aI0
aI2
aI3
asS'Mitchell Johnson'
p1145
(lp1146
I1
aI0
aI0
aI0
aI2
aI0
aI0
aI0
aI8
aI3
asS'Piyush Chawla'
p1147
(lp1148
I2
aI3
aI0
aI0
aI0
aI0
aI0
aI0
aI3
aI5
asS'Praveen Kumar'
p1149
(lp1150
I0
aI2
aI0
aI0
aI0
aI0
aI0
aI0
aI2
aI2
asS'Zaheer Khan'
p1151
(lp1152
I1
aI0
aI0
aI0
aI0
aI0
aI0
aI0
aI0
aI1
asS'Shane Watson'
p1153
(lp1154
I8
aI4
aI0
aI0
aI2
aI0
aI0
aI0
aI12
aI14
assS'Axar Patel '
p1155
(dp1156
S'Suresh Raina'
p1157
(lp1158
I0
aI2
aI0
aI0
aI1
aI0
aI0
aI0
aI6
aI3
asS'D Wiese'
p1159
(lp1160
I0
aI4
aI0
aI0
aI1
aI0
aI0
aI0
aI8
aI5
asS'TA Boult'
p1161
(lp1162
I1
aI1
aI0
aI0
aI1
aI0
aI0
aI0
aI5
aI3
asS'Pawan Negi'
p1163
(lp1164
I0
aI3
aI0
aI0
aI0
aI0
aI0
aI0
aI3
aI3
asS'I Sharma'
p1165
(lp1166
I0
aI2
aI0
aI0
aI1
aI0
aI0
aI0
aI6
aI3
asS'Angelo Mathews'
p1167
(lp1168
I3
aI6
aI0
aI0
aI0
aI0
aI0
aI0
aI6
aI9
asS'Jean-Paul Duminy'
p1169
(lp1170
I2
aI1
aI0
aI0
aI0
aI0
aI0
aI0
aI1
aI3
asS'Stuart Binny'
p1171
(lp1172
I2
aI2
aI0
aI0
aI0
aI0
aI0
aI0
aI2
aI4
asS'NM Coulter-Nile'
p1173
(lp1174
I1
aI1
aI0
aI0
aI0
aI0
aI0
aI0
aI1
aI2
asS'James Faulkner'
p1175
(lp1176
I4
aI3
aI4
aI0
aI2
aI0
aI0
aI0
aI19
aI13
asS'Mitchell Starc'
p1177
(lp1178
I0
aI3
aI1
aI0
aI0
aI0
aI0
aI0
aI5
aI4
asS'PV Tambe'
p1179
(lp1180
I2
aI5
aI1
aI0
aI1
aI0
aI0
aI0
aI11
aI9
asS'S Aravind'
p1181
(lp1182
I1
aI0
aI0
aI0
aI2
aI0
aI0
aI0
aI8
aI3
asS'KV Sharma'
p1183
(lp1184
I0
aI1
aI0
aI0
aI0
aI0
aI0
aI0
aI1
aI1
asS'Ravichandran Ashwin'
p1185
(lp1186
I8
aI5
aI0
aI0
aI0
aI0
aI0
aI0
aI5
aI13
asS'Yuzvendra Chahal'
p1187
(lp1188
I7
aI4
aI1
aI0
aI2
aI0
aI2
aI0
aI26
aI16
asS'TG Southee'
p1189
(lp1190
I2
aI0
aI0
aI0
aI0
aI0
aI0
aI0
aI0
aI2
asS'Ravindra Jadeja'
p1191
(lp1192
I4
aI7
aI0
aI0
aI1
aI0
aI1
aI0
aI17
aI13
asS'Imran Tahir'
p1193
(lp1194
I7
aI9
aI2
aI0
aI0
aI0
aI1
aI0
aI19
aI19
asS'Dwayne Bravo'
p1195
(lp1196
I2
aI4
aI0
aI0
aI0
aI0
aI1
aI0
aI10
aI7
asS'Dhawal Kulkarni'
p1197
(lp1198
I0
aI1
aI0
aI0
aI1
aI0
aI0
aI0
aI5
aI2
asS'Harshal Patel'
p1199
(lp1200
I3
aI3
aI0
aI0
aI1
aI0
aI1
aI0
aI13
aI8
asS'Moises Henriques'
p1201
(lp1202
I1
aI3
aI1
aI0
aI0
aI0
aI1
aI0
aI11
aI6
asS'UT Yadav'
p1203
(lp1204
I0
aI2
aI0
aI0
aI0
aI0
aI0
aI0
aI2
aI2
asS'Sunil Narine'
p1205
(lp1206
I2
aI2
aI0
aI0
aI0
aI0
aI0
aI0
aI2
aI4
asS'Chris Morris'
p1207
(lp1208
I1
aI7
aI0
aI0
aI0
aI0
aI0
aI0
aI7
aI8
asS'Lasith Malinga'
p1209
(lp1210
I1
aI0
aI0
aI0
aI0
aI0
aI0
aI0
aI0
aI1
asS'Bhuvneshwar Kumar'
p1211
(lp1212
I1
aI3
aI0
aI0
aI0
aI0
aI0
aI0
aI3
aI4
asS'Amit Mishra'
p1213
(lp1214
I2
aI6
aI0
aI0
aI0
aI0
aI2
aI0
aI18
aI10
asS'DJ Hooda'
p1215
(lp1216
I0
aI4
aI0
aI0
aI0
aI0
aI0
aI0
aI4
aI4
asS'Praveen Kumar'
p1217
(lp1218
I2
aI4
aI1
aI0
aI0
aI0
aI0
aI0
aI6
aI7
asS'Zaheer Khan'
p1219
(lp1220
I0
aI3
aI0
aI0
aI0
aI0
aI0
aI0
aI3
aI3
assS'James Faulkner '
p1221
(dp1222
S'MM Sharma'
p1223
(lp1224
I1
aI1
aI0
aI0
aI0
aI0
aI0
aI0
aI1
aI2
asS'Ashish Nehra'
p1225
(lp1226
I1
aI2
aI0
aI0
aI1
aI0
aI0
aI0
aI6
aI4
asS'TA Boult'
p1227
(lp1228
I0
aI2
aI0
aI0
aI0
aI0
aI0
aI0
aI2
aI2
asS'I Sharma'
p1229
(lp1230
I0
aI2
aI0
aI0
aI0
aI0
aI2
aI0
aI14
aI4
asS'Karanveer Singh'
p1231
(lp1232
I0
aI2
aI2
aI0
aI0
aI0
aI0
aI0
aI6
aI4
asS'NM Coulter-Nile'
p1233
(lp1234
I1
aI1
aI0
aI0
aI2
aI0
aI0
aI0
aI9
aI4
asS'Anureet Singh'
p1235
(lp1236
I1
aI3
aI0
aI0
aI0
aI0
aI0
aI0
aI3
aI4
asS'Sandeep Sharma'
p1237
(lp1238
I2
aI0
aI0
aI0
aI0
aI0
aI0
aI0
aI0
aI2
asS'Mitchell Starc'
p1239
(lp1240
I0
aI2
aI0
aI0
aI0
aI0
aI0
aI0
aI2
aI2
asS'Axar Patel'
p1241
(lp1242
I5
aI5
aI1
aI0
aI0
aI0
aI1
aI0
aI13
aI12
asS'S Aravind'
p1243
(lp1244
I3
aI0
aI0
aI0
aI1
aI0
aI0
aI0
aI4
aI4
asS'KV Sharma'
p1245
(lp1246
I1
aI1
aI0
aI0
aI0
aI0
aI0
aI0
aI1
aI2
asS'RS Bopara'
p1247
(lp1248
I1
aI2
aI1
aI0
aI0
aI0
aI0
aI0
aI4
aI4
asS'Andre Russell'
p1249
(lp1250
I2
aI0
aI0
aI0
aI1
aI0
aI0
aI0
aI4
aI3
asS'Ravindra Jadeja'
p1251
(lp1252
I1
aI1
aI0
aI0
aI0
aI0
aI0
aI0
aI1
aI2
asS'Imran Tahir'
p1253
(lp1254
I1
aI2
aI1
aI0
aI0
aI0
aI0
aI0
aI4
aI4
asS'Dwayne Bravo'
p1255
(lp1256
I0
aI4
aI0
aI0
aI1
aI0
aI0
aI0
aI8
aI5
asS'Harshal Patel'
p1257
(lp1258
I1
aI2
aI0
aI0
aI0
aI0
aI0
aI0
aI2
aI3
asS'Moises Henriques'
p1259
(lp1260
I3
aI0
aI0
aI0
aI2
aI0
aI0
aI0
aI8
aI5
asS'Shakib Al Hasan'
p1261
(lp1262
I1
aI2
aI0
aI0
aI0
aI0
aI0
aI0
aI2
aI3
asS'P Suyal'
p1263
(lp1264
I0
aI4
aI2
aI0
aI0
aI0
aI0
aI0
aI8
aI6
asS'S Gopal'
p1265
(lp1266
I0
aI2
aI0
aI0
aI0
aI0
aI0
aI0
aI2
aI2
asS'Lasith Malinga'
p1267
(lp1268
I2
aI2
aI0
aI0
aI0
aI0
aI0
aI0
aI2
aI4
asS'GS Sandhu'
p1269
(lp1270
I0
aI0
aI2
aI0
aI1
aI0
aI0
aI0
aI8
aI3
asS'Bhuvneshwar Kumar'
p1271
(lp1272
I1
aI0
aI0
aI0
aI0
aI0
aI0
aI0
aI0
aI1
asS'Amit Mishra'
p1273
(lp1274
I1
aI2
aI1
aI0
aI0
aI0
aI0
aI0
aI4
aI4
asS'Mitchell Johnson'
p1275
(lp1276
I8
aI4
aI1
aI0
aI2
aI0
aI2
aI0
aI26
aI17
asS'Praveen Kumar'
p1277
(lp1278
I5
aI3
aI1
aI0
aI2
aI0
aI0
aI0
aI13
aI11
assS'Morne Morkel '
p1279
(dp1280
S'Chris Morris'
p1281
(lp1282
I0
aI2
aI1
aI0
aI0
aI0
aI0
aI0
aI4
aI3
assS'HH Pandya '
p1283
(dp1284
S'Imran Tahir'
p1285
(lp1286
I1
aI0
aI0
aI0
aI0
aI0
aI0
aI0
aI0
aI1
asS'Dwayne Bravo'
p1287
(lp1288
I2
aI4
aI0
aI0
aI0
aI0
aI0
aI0
aI4
aI6
asS'Yuzvendra Chahal'
p1289
(lp1290
I1
aI1
aI0
aI0
aI0
aI0
aI1
aI0
aI7
aI3
asS'D Wiese'
p1291
(lp1292
I0
aI2
aI0
aI0
aI0
aI0
aI0
aI0
aI2
aI2
asS'Ashish Nehra'
p1293
(lp1294
I1
aI0
aI0
aI0
aI0
aI0
aI0
aI0
aI0
aI1
asS'Pawan Negi'
p1295
(lp1296
I2
aI0
aI0
aI0
aI0
aI0
aI3
aI0
aI18
aI5
asS'UT Yadav'
p1297
(lp1298
I0
aI3
aI1
aI0
aI5
aI0
aI0
aI0
aI25
aI9
asS'Shakib Al Hasan'
p1299
(lp1300
I0
aI2
aI0
aI0
aI0
aI0
aI0
aI0
aI2
aI2
asS'Sunil Narine'
p1301
(lp1302
I3
aI4
aI0
aI0
aI0
aI0
aI1
aI0
aI10
aI8
asS'AN Ahmed'
p1303
(lp1304
I2
aI2
aI2
aI0
aI0
aI0
aI4
aI0
aI30
aI10
asS'NM Coulter-Nile'
p1305
(lp1306
I5
aI0
aI0
aI0
aI0
aI0
aI0
aI0
aI0
aI5
asS'Andre Russell'
p1307
(lp1308
I3
aI4
aI1
aI0
aI3
aI0
aI1
aI0
aI24
aI12
asS'Zaheer Khan'
p1309
(lp1310
I1
aI1
aI0
aI0
aI1
aI0
aI0
aI0
aI5
aI3
asS'S Aravind'
p1311
(lp1312
I0
aI1
aI0
aI0
aI0
aI0
aI0
aI0
aI1
aI1
assS'Quinton de Kock'
p1313
(dp1314
S'MM Sharma'
p1315
(lp1316
I1
aI1
aI0
aI0
aI0
aI0
aI0
aI0
aI1
aI2
asS'KV Sharma'
p1317
(lp1318
I2
aI0
aI0
aI0
aI0
aI0
aI0
aI0
aI0
aI2
asS'Harshal Patel'
p1319
(lp1320
I3
aI3
aI0
aI0
aI2
aI0
aI0
aI0
aI11
aI8
asS'D Wiese'
p1321
(lp1322
I0
aI3
aI0
aI0
aI3
aI0
aI1
aI0
aI21
aI7
asS'AB Dinda'
p1323
(lp1324
I2
aI4
aI0
aI0
aI3
aI0
aI2
aI0
aI28
aI11
asS'Moises Henriques'
p1325
(lp1326
I1
aI1
aI0
aI0
aI1
aI0
aI0
aI0
aI5
aI3
asS'Praveen Kumar'
p1327
(lp1328
I2
aI0
aI0
aI0
aI3
aI0
aI0
aI0
aI12
aI5
asS'Bhuvneshwar Kumar'
p1329
(lp1330
I1
aI2
aI0
aI0
aI1
aI0
aI0
aI0
aI6
aI4
asS'Mitchell Starc'
p1331
(lp1332
I3
aI2
aI0
aI0
aI1
aI0
aI0
aI0
aI6
aI6
asS'I Sharma'
p1333
(lp1334
I6
aI0
aI0
aI0
aI4
aI0
aI1
aI0
aI22
aI11
asS'Chris Gayle'
p1335
(lp1336
I3
aI3
aI0
aI0
aI0
aI0
aI0
aI0
aI3
aI6
asS'Yuzvendra Chahal'
p1337
(lp1338
I1
aI0
aI0
aI0
aI0
aI0
aI0
aI0
aI0
aI1
asS'IC Pandey'
p1339
(lp1340
I3
aI2
aI0
aI0
aI0
aI0
aI0
aI0
aI2
aI5
asS'Parvez Rasool'
p1341
(lp1342
I2
aI3
aI1
aI0
aI0
aI0
aI0
aI0
aI5
aI6
assS'S Gopal '
p1343
(dp1344
S'Chris Morris'
p1345
(lp1346
I0
aI2
aI0
aI0
aI0
aI0
aI0
aI0
aI2
aI2
assS'DR Smith '
p1347
(dp1348
S'D Wiese'
p1349
(lp1350
I6
aI2
aI0
aI0
aI2
aI0
aI4
aI0
aI34
aI14
asS'DJ Muthuswami'
p1351
(lp1352
I5
aI2
aI1
aI0
aI2
aI0
aI0
aI0
aI12
aI10
asS'Harbhajan Singh'
p1353
(lp1354
I10
aI8
aI1
aI0
aI6
aI0
aI2
aI0
aI46
aI27
asS'I Sharma'
p1355
(lp1356
I5
aI1
aI0
aI0
aI2
aI0
aI0
aI0
aI9
aI8
asS'MJ McClenaghan'
p1357
(lp1358
I9
aI3
aI1
aI0
aI2
aI0
aI1
aI0
aI19
aI16
asS'Karanveer Singh'
p1359
(lp1360
I6
aI0
aI1
aI0
aI3
aI0
aI2
aI0
aI26
aI12
asS'NM Coulter-Nile'
p1361
(lp1362
I3
aI1
aI0
aI0
aI0
aI0
aI0
aI0
aI1
aI4
asS'Anureet Singh'
p1363
(lp1364
I1
aI0
aI0
aI0
aI0
aI0
aI0
aI0
aI0
aI1
asS'James Faulkner'
p1365
(lp1366
I10
aI0
aI2
aI0
aI0
aI0
aI2
aI0
aI16
aI14
asS'Mitchell Starc'
p1367
(lp1368
I20
aI7
aI0
aI0
aI2
aI0
aI0
aI0
aI15
aI29
asS'PV Tambe'
p1369
(lp1370
I0
aI4
aI2
aI0
aI0
aI0
aI0
aI0
aI8
aI6
asS'M de Lange'
p1371
(lp1372
I12
aI0
aI0
aI0
aI0
aI0
aI0
aI0
aI0
aI12
asS'KV Sharma'
p1373
(lp1374
I1
aI3
aI0
aI0
aI0
aI0
aI1
aI0
aI9
aI5
asS'Ankit Sharma'
p1375
(lp1376
I3
aI4
aI4
aI0
aI2
aI0
aI2
aI0
aI32
aI15
asS'Yuzvendra Chahal'
p1377
(lp1378
I4
aI4
aI2
aI0
aI2
aI0
aI2
aI0
aI28
aI14
asS'PJ Cummins'
p1379
(lp1380
I6
aI1
aI0
aI0
aI1
aI0
aI0
aI0
aI5
aI8
asS'S Aravind'
p1381
(lp1382
I2
aI2
aI0
aI0
aI1
aI0
aI0
aI0
aI6
aI5
asS'Imran Tahir'
p1383
(lp1384
I4
aI1
aI0
aI0
aI1
aI0
aI0
aI0
aI5
aI6
asS'TA Boult'
p1385
(lp1386
I9
aI2
aI0
aI0
aI3
aI0
aI0
aI0
aI14
aI14
asS'Harshal Patel'
p1387
(lp1388
I8
aI4
aI0
aI0
aI2
aI0
aI0
aI0
aI12
aI14
asS'Moises Henriques'
p1389
(lp1390
I1
aI0
aI0
aI0
aI0
aI0
aI0
aI0
aI0
aI1
asS'Albie Morkel'
p1391
(lp1392
I4
aI2
aI0
aI0
aI3
aI0
aI0
aI0
aI14
aI9
asS'J Suchith'
p1393
(lp1394
I10
aI3
aI0
aI0
aI7
aI0
aI6
aI0
aI67
aI26
asS'UT Yadav'
p1395
(lp1396
I3
aI2
aI0
aI0
aI2
aI0
aI1
aI0
aI16
aI8
asS'Brad Hogg'
p1397
(lp1398
I0
aI3
aI0
aI0
aI0
aI0
aI0
aI0
aI3
aI3
asS'HH Pandya'
p1399
(lp1400
I6
aI4
aI0
aI0
aI4
aI0
aI0
aI0
aI20
aI14
asS'P Suyal'
p1401
(lp1402
I8
aI6
aI0
aI0
aI4
aI0
aI0
aI0
aI22
aI18
asS'Chris Morris'
p1403
(lp1404
I18
aI1
aI2
aI0
aI0
aI0
aI0
aI0
aI5
aI21
asS'S Nadeem'
p1405
(lp1406
I9
aI2
aI0
aI0
aI0
aI0
aI1
aI0
aI8
aI12
asS'Lasith Malinga'
p1407
(lp1408
I14
aI3
aI2
aI0
aI5
aI0
aI0
aI0
aI27
aI24
asS'Andre Russell'
p1409
(lp1410
I0
aI1
aI0
aI0
aI0
aI0
aI0
aI0
aI1
aI1
asS'GS Sandhu'
p1411
(lp1412
I0
aI2
aI0
aI0
aI1
aI0
aI0
aI0
aI6
aI3
asS'R Vinay Kumar'
p1413
(lp1414
I5
aI3
aI0
aI0
aI1
aI0
aI0
aI0
aI7
aI9
asS'Bhuvneshwar Kumar'
p1415
(lp1416
I10
aI1
aI0
aI0
aI1
aI0
aI1
aI0
aI11
aI13
asS'Amit Mishra'
p1417
(lp1418
I1
aI2
aI0
aI0
aI0
aI0
aI0
aI0
aI2
aI3
asS'DJ Hooda'
p1419
(lp1420
I0
aI4
aI0
aI0
aI4
aI0
aI0
aI0
aI20
aI8
asS'Praveen Kumar'
p1421
(lp1422
I2
aI1
aI0
aI0
aI1
aI0
aI0
aI0
aI5
aI4
asS'Zaheer Khan'
p1423
(lp1424
I7
aI0
aI0
aI0
aI1
aI0
aI0
aI0
aI4
aI8
asS'Shane Watson'
p1425
(lp1426
I2
aI1
aI0
aI0
aI1
aI0
aI0
aI0
aI5
aI4
assS'Harbhajan Singh '
p1427
(dp1428
S'Imran Tahir'
p1429
(lp1430
I2
aI1
aI0
aI0
aI0
aI0
aI0
aI0
aI1
aI3
asS'MM Sharma'
p1431
(lp1432
I8
aI4
aI6
aI0
aI2
aI0
aI0
aI0
aI24
aI20
asS'Dwayne Bravo'
p1433
(lp1434
I2
aI2
aI0
aI0
aI1
aI0
aI1
aI0
aI12
aI6
asS'Anureet Singh'
p1435
(lp1436
I4
aI1
aI0
aI0
aI1
aI0
aI4
aI0
aI29
aI10
asS'Harshal Patel'
p1437
(lp1438
I0
aI1
aI0
aI0
aI0
aI0
aI0
aI0
aI1
aI1
asS'Shikhar Dhawan'
p1439
(lp1440
I1
aI2
aI1
aI0
aI4
aI0
aI1
aI0
aI26
aI9
asS'IC Pandey'
p1441
(lp1442
I4
aI0
aI0
aI0
aI0
aI0
aI0
aI0
aI0
aI4
asS'AN Ahmed'
p1443
(lp1444
I2
aI0
aI0
aI0
aI0
aI0
aI0
aI0
aI0
aI2
asS'Bhuvneshwar Kumar'
p1445
(lp1446
I2
aI0
aI0
aI0
aI0
aI0
aI0
aI0
aI0
aI2
asS'Mitchell Starc'
p1447
(lp1448
I1
aI0
aI1
aI0
aI0
aI0
aI0
aI0
aI2
aI2
asS'Axar Patel'
p1449
(lp1450
I0
aI2
aI0
aI0
aI0
aI0
aI0
aI0
aI2
aI2
asS'Mitchell Johnson'
p1451
(lp1452
I1
aI1
aI0
aI0
aI0
aI0
aI1
aI0
aI7
aI3
asS'Angelo Mathews'
p1453
(lp1454
I3
aI1
aI0
aI0
aI0
aI0
aI0
aI0
aI1
aI4
asS'NM Coulter-Nile'
p1455
(lp1456
I3
aI2
aI0
aI0
aI1
aI0
aI1
aI0
aI12
aI7
asS'Praveen Kumar'
p1457
(lp1458
I2
aI0
aI0
aI0
aI0
aI0
aI0
aI0
aI0
aI2
asS'Ravindra Jadeja'
p1459
(lp1460
I10
aI4
aI0
aI0
aI2
aI0
aI2
aI0
aI24
aI18
assS'Mandeep Singh '
p1461
(dp1462
S'MM Sharma'
p1463
(lp1464
I1
aI1
aI0
aI0
aI0
aI0
aI0
aI0
aI1
aI2
asS'YK Pathan'
p1465
(lp1466
I2
aI0
aI0
aI0
aI0
aI0
aI1
aI0
aI6
aI3
asS'BE Hendricks'
p1467
(lp1468
I1
aI2
aI0
aI0
aI0
aI0
aI0
aI0
aI2
aI3
asS'Dhawal Kulkarni'
p1469
(lp1470
I5
aI3
aI0
aI0
aI2
aI0
aI1
aI0
aI17
aI11
asS'Stuart Binny'
p1471
(lp1472
I7
aI1
aI1
aI0
aI1
aI0
aI0
aI0
aI7
aI10
asS'Sandeep Sharma'
p1473
(lp1474
I0
aI1
aI0
aI0
aI1
aI0
aI0
aI0
aI5
aI2
asS'James Faulkner'
p1475
(lp1476
I3
aI4
aI0
aI0
aI5
aI0
aI1
aI0
aI30
aI13
asS'PV Tambe'
p1477
(lp1478
I0
aI0
aI1
aI0
aI1
aI0
aI0
aI0
aI6
aI2
asS'Axar Patel'
p1479
(lp1480
I2
aI2
aI0
aI0
aI1
aI0
aI0
aI0
aI6
aI5
asS'KV Sharma'
p1481
(lp1482
I0
aI1
aI0
aI0
aI0
aI0
aI0
aI0
aI1
aI1
asS'Ankit Sharma'
p1483
(lp1484
I0
aI2
aI0
aI0
aI1
aI0
aI0
aI0
aI6
aI3
asS'RS Bopara'
p1485
(lp1486
I1
aI0
aI0
aI0
aI0
aI0
aI0
aI0
aI0
aI1
asS'Andre Russell'
p1487
(lp1488
I0
aI2
aI1
aI0
aI0
aI0
aI2
aI0
aI16
aI5
asS'TG Southee'
p1489
(lp1490
I1
aI1
aI0
aI0
aI1
aI0
aI0
aI0
aI5
aI3
asS'Shikhar Dhawan'
p1491
(lp1492
I0
aI1
aI3
aI0
aI0
aI0
aI0
aI0
aI7
aI4
asS'Moises Henriques'
p1493
(lp1494
I1
aI0
aI0
aI0
aI0
aI0
aI0
aI0
aI0
aI1
asS'UT Yadav'
p1495
(lp1496
I0
aI1
aI0
aI0
aI2
aI0
aI0
aI0
aI9
aI3
asS'Brad Hogg'
p1497
(lp1498
I1
aI2
aI0
aI0
aI0
aI0
aI1
aI0
aI8
aI4
asS'Chris Morris'
p1499
(lp1500
I2
aI2
aI1
aI0
aI0
aI0
aI0
aI0
aI4
aI5
asS'Ravichandran Ashwin'
p1501
(lp1502
I3
aI1
aI1
aI0
aI0
aI0
aI0
aI0
aI3
aI5
asS'Piyush Chawla'
p1503
(lp1504
I1
aI2
aI1
aI0
aI2
aI0
aI0
aI0
aI12
aI6
asS'Praveen Kumar'
p1505
(lp1506
I1
aI0
aI0
aI0
aI0
aI0
aI0
aI0
aI0
aI1
asS'Shane Watson'
p1507
(lp1508
I1
aI6
aI0
aI0
aI0
aI0
aI0
aI0
aI6
aI7
assS'Dwayne Bravo '
p1509
(dp1510
S'YK Pathan'
p1511
(lp1512
I3
aI3
aI0
aI0
aI1
aI0
aI0
aI0
aI7
aI7
asS'TA Boult'
p1513
(lp1514
I0
aI1
aI0
aI0
aI1
aI0
aI0
aI0
aI5
aI2
asS'Harbhajan Singh'
p1515
(lp1516
I3
aI4
aI1
aI0
aI0
aI0
aI0
aI0
aI6
aI8
asS'Iqbal Abdulla'
p1517
(lp1518
I4
aI0
aI0
aI0
aI0
aI0
aI0
aI0
aI0
aI4
asS'MJ McClenaghan'
p1519
(lp1520
I2
aI0
aI0
aI0
aI0
aI0
aI1
aI0
aI6
aI3
asS'A Ashish Reddy'
p1521
(lp1522
I0
aI3
aI0
aI0
aI0
aI0
aI0
aI0
aI3
aI3
asS'James Faulkner'
p1523
(lp1524
I6
aI5
aI5
aI2
aI1
aI0
aI0
aI0
aI25
aI19
asS'Mitchell Starc'
p1525
(lp1526
I3
aI2
aI1
aI0
aI2
aI0
aI0
aI0
aI12
aI8
asS'PV Tambe'
p1527
(lp1528
I2
aI12
aI0
aI0
aI6
aI0
aI2
aI0
aI48
aI22
asS'Ankit Sharma'
p1529
(lp1530
I4
aI4
aI0
aI0
aI0
aI0
aI0
aI0
aI4
aI8
asS'Yuvraj Singh'
p1531
(lp1532
I2
aI0
aI0
aI0
aI0
aI0
aI0
aI0
aI0
aI2
asS'Andre Russell'
p1533
(lp1534
I6
aI3
aI0
aI0
aI2
aI0
aI0
aI0
aI11
aI11
asS'PJ Cummins'
p1535
(lp1536
I0
aI2
aI1
aI0
aI0
aI0
aI0
aI0
aI4
aI3
asS'Kieron Pollard'
p1537
(lp1538
I0
aI1
aI2
aI0
aI2
aI0
aI2
aI0
aI25
aI7
asS'DJ Muthuswami'
p1539
(lp1540
I1
aI0
aI0
aI0
aI0
aI0
aI0
aI0
aI0
aI1
asS'Moises Henriques'
p1541
(lp1542
I2
aI1
aI0
aI0
aI0
aI0
aI0
aI0
aI1
aI3
asS'Albie Morkel'
p1543
(lp1544
I1
aI2
aI0
aI0
aI0
aI0
aI0
aI0
aI2
aI3
asS'J Suchith'
p1545
(lp1546
I4
aI2
aI0
aI0
aI2
aI0
aI1
aI0
aI16
aI9
asS'Brad Hogg'
p1547
(lp1548
I3
aI3
aI0
aI0
aI1
aI0
aI0
aI0
aI7
aI7
asS'P Suyal'
p1549
(lp1550
I2
aI2
aI0
aI0
aI0
aI0
aI0
aI0
aI2
aI4
asS'Chris Morris'
p1551
(lp1552
I2
aI10
aI0
aI0
aI3
aI0
aI0
aI0
aI22
aI15
asS'GS Sandhu'
p1553
(lp1554
I2
aI0
aI0
aI0
aI0
aI0
aI1
aI0
aI6
aI3
asS'Bhuvneshwar Kumar'
p1555
(lp1556
I1
aI3
aI0
aI0
aI2
aI0
aI0
aI0
aI11
aI6
asS'Amit Mishra'
p1557
(lp1558
I1
aI1
aI0
aI0
aI0
aI0
aI0
aI0
aI1
aI2
asS'DJ Hooda'
p1559
(lp1560
I0
aI2
aI2
aI0
aI2
aI0
aI0
aI0
aI14
aI6
asS'Piyush Chawla'
p1561
(lp1562
I8
aI2
aI0
aI0
aI1
aI0
aI0
aI0
aI6
aI11
asS'Praveen Kumar'
p1563
(lp1564
I1
aI5
aI0
aI0
aI0
aI0
aI0
aI0
aI5
aI6
asS'Shane Watson'
p1565
(lp1566
I2
aI2
aI0
aI0
aI6
aI0
aI0
aI0
aI26
aI10
assS'Rohit Sharma '
p1567
(dp1568
S'MM Sharma'
p1569
(lp1570
I5
aI11
aI1
aI0
aI8
aI0
aI1
aI0
aI51
aI26
asS'Ashish Nehra'
p1571
(lp1572
I9
aI8
aI8
aI0
aI4
aI0
aI0
aI0
aI40
aI29
asS'D Wiese'
p1573
(lp1574
I6
aI4
aI0
aI0
aI3
aI0
aI1
aI0
aI22
aI14
asS'Dhawal Kulkarni'
p1575
(lp1576
I6
aI1
aI0
aI0
aI0
aI0
aI1
aI0
aI7
aI8
asS'Pawan Negi'
p1577
(lp1578
I2
aI10
aI0
aI0
aI1
aI0
aI0
aI0
aI14
aI13
asS'Angelo Mathews'
p1579
(lp1580
I3
aI4
aI0
aI0
aI1
aI0
aI1
aI0
aI14
aI9
asS'Karanveer Singh'
p1581
(lp1582
I1
aI2
aI1
aI0
aI0
aI0
aI0
aI0
aI4
aI4
asS'NM Coulter-Nile'
p1583
(lp1584
I2
aI1
aI1
aI0
aI0
aI0
aI1
aI0
aI9
aI5
asS'Stuart Binny'
p1585
(lp1586
I8
aI1
aI0
aI0
aI1
aI0
aI0
aI0
aI5
aI10
asS'Anureet Singh'
p1587
(lp1588
I2
aI1
aI2
aI0
aI1
aI0
aI0
aI0
aI9
aI6
asS'Varun Aaron'
p1589
(lp1590
I4
aI0
aI2
aI0
aI2
aI0
aI2
aI0
aI24
aI10
asS'Sandeep Sharma'
p1591
(lp1592
I2
aI0
aI0
aI0
aI0
aI0
aI0
aI0
aI0
aI2
asS'AN Ahmed'
p1593
(lp1594
I0
aI2
aI0
aI0
aI2
aI0
aI6
aI0
aI46
aI10
asS'Axar Patel'
p1595
(lp1596
I0
aI2
aI1
aI0
aI0
aI0
aI0
aI0
aI4
aI3
asS'KV Sharma'
p1597
(lp1598
I2
aI8
aI0
aI0
aI1
aI0
aI1
aI0
aI18
aI12
asS'Ankit Sharma'
p1599
(lp1600
I1
aI4
aI1
aI0
aI0
aI0
aI0
aI0
aI6
aI6
asS'Ravichandran Ashwin'
p1601
(lp1602
I3
aI3
aI3
aI0
aI0
aI0
aI3
aI0
aI27
aI12
asS'Yuzvendra Chahal'
p1603
(lp1604
I1
aI6
aI0
aI0
aI0
aI0
aI0
aI0
aI6
aI7
asS'TG Southee'
p1605
(lp1606
I1
aI1
aI1
aI0
aI1
aI0
aI0
aI0
aI7
aI4
asS'Ravindra Jadeja'
p1607
(lp1608
I4
aI20
aI1
aI0
aI0
aI0
aI1
aI0
aI28
aI26
asS'Imran Tahir'
p1609
(lp1610
I2
aI7
aI0
aI0
aI1
aI0
aI1
aI0
aI17
aI11
asS'Dwayne Bravo'
p1611
(lp1612
I4
aI9
aI1
aI0
aI4
aI0
aI0
aI0
aI27
aI18
asS'Harshal Patel'
p1613
(lp1614
I1
aI1
aI0
aI0
aI0
aI0
aI0
aI0
aI1
aI2
asS'UT Yadav'
p1615
(lp1616
I5
aI2
aI0
aI0
aI6
aI0
aI1
aI0
aI32
aI14
asS'Sunil Narine'
p1617
(lp1618
I9
aI8
aI0
aI0
aI5
aI0
aI1
aI0
aI34
aI23
asS'Shakib Al Hasan'
p1619
(lp1620
I6
aI7
aI0
aI0
aI4
aI0
aI1
aI0
aI29
aI18
asS'S Nadeem'
p1621
(lp1622
I3
aI3
aI1
aI0
aI0
aI0
aI1
aI0
aI11
aI8
asS'Morne Morkel'
p1623
(lp1624
I4
aI6
aI0
aI0
aI0
aI0
aI0
aI0
aI6
aI10
asS'Andre Russell'
p1625
(lp1626
I2
aI6
aI0
aI0
aI0
aI0
aI1
aI0
aI12
aI9
asS'J Theron'
p1627
(lp1628
I1
aI2
aI0
aI0
aI0
aI0
aI0
aI0
aI2
aI3
asS'Yuvraj Singh'
p1629
(lp1630
I1
aI1
aI1
aI0
aI0
aI0
aI0
aI0
aI3
aI3
asS'Amit Mishra'
p1631
(lp1632
I7
aI12
aI1
aI0
aI0
aI0
aI1
aI0
aI20
aI21
asS'Mitchell Johnson'
p1633
(lp1634
I3
aI1
aI2
aI0
aI1
aI0
aI0
aI0
aI9
aI7
asS'Piyush Chawla'
p1635
(lp1636
I4
aI5
aI1
aI0
aI2
aI0
aI0
aI0
aI15
aI12
asS'Praveen Kumar'
p1637
(lp1638
I0
aI3
aI0
aI0
aI1
aI0
aI1
aI0
aI13
aI5
asS'Zaheer Khan'
p1639
(lp1640
I2
aI2
aI0
aI0
aI0
aI0
aI0
aI0
aI2
aI4
assS'Jean-Paul Duminy '
p1641
(dp1642
S'MM Sharma'
p1643
(lp1644
I0
aI2
aI0
aI0
aI1
aI0
aI0
aI0
aI6
aI3
asS'D Wiese'
p1645
(lp1646
I2
aI6
aI2
aI0
aI0
aI0
aI0
aI0
aI10
aI10
asS'Dhawal Kulkarni'
p1647
(lp1648
I0
aI4
aI1
aI0
aI0
aI0
aI0
aI0
aI6
aI5
asS'Kieron Pollard'
p1649
(lp1650
I0
aI4
aI0
aI0
aI1
aI0
aI2
aI0
aI20
aI7
asS'Harbhajan Singh'
p1651
(lp1652
I6
aI7
aI2
aI0
aI0
aI0
aI0
aI0
aI11
aI15
asS'Dale Steyn'
p1653
(lp1654
I8
aI6
aI0
aI0
aI2
aI0
aI2
aI0
aI26
aI18
asS'MJ McClenaghan'
p1655
(lp1656
I4
aI2
aI0
aI0
aI0
aI0
aI0
aI0
aI2
aI6
asS'Rajat Bhatia'
p1657
(lp1658
I2
aI3
aI1
aI0
aI1
aI0
aI1
aI0
aI15
aI8
asS'Stuart Binny'
p1659
(lp1660
I1
aI0
aI0
aI0
aI1
aI0
aI1
aI0
aI10
aI3
asS'Chris Morris'
p1661
(lp1662
I1
aI3
aI1
aI0
aI0
aI0
aI2
aI0
aI17
aI7
asS'Anureet Singh'
p1663
(lp1664
I6
aI2
aI0
aI0
aI2
aI0
aI0
aI0
aI10
aI10
asS'Varun Aaron'
p1665
(lp1666
I3
aI1
aI0
aI0
aI1
aI0
aI0
aI0
aI5
aI5
asS'A Ashish Reddy'
p1667
(lp1668
I0
aI4
aI0
aI0
aI0
aI0
aI0
aI0
aI4
aI4
asS'Sandeep Sharma'
p1669
(lp1670
I2
aI4
aI2
aI0
aI2
aI0
aI0
aI0
aI16
aI10
asS'James Faulkner'
p1671
(lp1672
I8
aI5
aI3
aI0
aI1
aI0
aI1
aI0
aI21
aI18
asS'Mitchell Starc'
p1673
(lp1674
I4
aI3
aI4
aI0
aI3
aI0
aI0
aI0
aI23
aI14
asS'PV Tambe'
p1675
(lp1676
I2
aI4
aI0
aI0
aI0
aI0
aI0
aI0
aI4
aI6
asS'Axar Patel'
p1677
(lp1678
I2
aI0
aI0
aI0
aI0
aI0
aI0
aI0
aI0
aI2
asS'Parvez Rasool'
p1679
(lp1680
I2
aI5
aI1
aI0
aI0
aI0
aI0
aI0
aI7
aI8
asS'Chris Gayle'
p1681
(lp1682
I1
aI3
aI1
aI0
aI0
aI0
aI1
aI0
aI11
aI6
asS'RS Bopara'
p1683
(lp1684
I6
aI10
aI2
aI0
aI8
aI0
aI2
aI0
aI58
aI28
asS'Yuzvendra Chahal'
p1685
(lp1686
I3
aI6
aI0
aI0
aI0
aI0
aI2
aI0
aI18
aI11
asS'TG Southee'
p1687
(lp1688
I3
aI5
aI0
aI1
aI0
aI0
aI0
aI0
aI8
aI9
asS'DJ Hooda'
p1689
(lp1690
I3
aI7
aI1
aI0
aI0
aI0
aI0
aI0
aI9
aI11
asS'Dwayne Bravo'
p1691
(lp1692
I0
aI2
aI0
aI0
aI0
aI0
aI0
aI0
aI2
aI2
asS'KV Sharma'
p1693
(lp1694
I1
aI9
aI0
aI0
aI0
aI0
aI0
aI0
aI9
aI10
asS'Harshal Patel'
p1695
(lp1696
I4
aI4
aI0
aI0
aI2
aI0
aI0
aI0
aI12
aI10
asS'Shikhar Dhawan'
p1697
(lp1698
I4
aI4
aI0
aI0
aI0
aI0
aI0
aI0
aI4
aI8
asS'Moises Henriques'
p1699
(lp1700
I1
aI2
aI0
aI0
aI0
aI0
aI0
aI0
aI2
aI3
asS'J Suchith'
p1701
(lp1702
I1
aI1
aI0
aI0
aI1
aI0
aI0
aI0
aI5
aI3
asS'UT Yadav'
p1703
(lp1704
I2
aI2
aI0
aI0
aI2
aI0
aI0
aI0
aI10
aI6
asS'Brad Hogg'
p1705
(lp1706
I0
aI2
aI0
aI0
aI0
aI0
aI0
aI0
aI2
aI2
asS'Sunil Narine'
p1707
(lp1708
I7
aI4
aI0
aI0
aI1
aI0
aI1
aI0
aI14
aI13
asS'HH Pandya'
p1709
(lp1710
I0
aI3
aI0
aI0
aI1
aI0
aI0
aI0
aI7
aI4
asS'Johan Botha'
p1711
(lp1712
I0
aI2
aI0
aI0
aI1
aI0
aI0
aI0
aI6
aI3
asS'Morne Morkel'
p1713
(lp1714
I4
aI0
aI0
aI0
aI0
aI0
aI0
aI0
aI0
aI4
asS'Lasith Malinga'
p1715
(lp1716
I9
aI4
aI0
aI0
aI1
aI0
aI0
aI0
aI8
aI14
asS'I Sharma'
p1717
(lp1718
I0
aI1
aI0
aI0
aI0
aI0
aI0
aI0
aI1
aI1
asS'IC Pandey'
p1719
(lp1720
I5
aI1
aI1
aI0
aI0
aI0
aI0
aI0
aI3
aI7
asS'Jasprit Bumrah'
p1721
(lp1722
I3
aI5
aI1
aI0
aI1
aI0
aI4
aI0
aI35
aI14
asS'R Vinay Kumar'
p1723
(lp1724
I1
aI2
aI0
aI0
aI1
aI0
aI2
aI0
aI18
aI6
asS'Bhuvneshwar Kumar'
p1725
(lp1726
I14
aI1
aI4
aI0
aI0
aI0
aI0
aI0
aI9
aI19
asS'AB Dinda'
p1727
(lp1728
I0
aI1
aI0
aI0
aI0
aI0
aI0
aI0
aI1
aI1
asS'Mitchell Johnson'
p1729
(lp1730
I2
aI4
aI0
aI0
aI2
aI0
aI0
aI0
aI12
aI8
asS'Piyush Chawla'
p1731
(lp1732
I1
aI3
aI0
aI0
aI0
aI0
aI0
aI0
aI3
aI4
asS'Praveen Kumar'
p1733
(lp1734
I3
aI4
aI0
aI0
aI0
aI0
aI0
aI0
aI4
aI7
asS'Shane Watson'
p1735
(lp1736
I6
aI2
aI1
aI0
aI0
aI0
aI1
aI0
aI10
aI10
assS'Bhuvneshwar Kumar '
p1737
(dp1738
S'UT Yadav'
p1739
(lp1740
I0
aI1
aI0
aI0
aI1
aI0
aI1
aI0
aI11
aI3
asS'Kieron Pollard'
p1741
(lp1742
I1
aI0
aI0
aI0
aI0
aI0
aI0
aI0
aI0
aI1
asS'Andre Russell'
p1743
(lp1744
I1
aI0
aI0
aI0
aI0
aI0
aI0
aI0
aI0
aI1
asS'R Vinay Kumar'
p1745
(lp1746
I2
aI0
aI1
aI0
aI1
aI0
aI0
aI0
aI6
aI4
asS'MJ McClenaghan'
p1747
(lp1748
I1
aI0
aI0
aI0
aI0
aI0
aI0
aI0
aI0
aI1
assS'Rajat Bhatia '
p1749
(dp1750
S'MM Sharma'
p1751
(lp1752
I1
aI0
aI0
aI0
aI0
aI0
aI0
aI0
aI0
aI1
assS'KV Sharma '
p1753
(dp1754
S'Imran Tahir'
p1755
(lp1756
I0
aI4
aI0
aI0
aI0
aI0
aI4
aI0
aI28
aI8
asS'Lasith Malinga'
p1757
(lp1758
I4
aI2
aI0
aI0
aI0
aI0
aI0
aI0
aI2
aI6
asS'Dwayne Bravo'
p1759
(lp1760
I2
aI3
aI0
aI0
aI1
aI0
aI0
aI0
aI7
aI6
asS'Piyush Chawla'
p1761
(lp1762
I0
aI3
aI0
aI0
aI0
aI0
aI0
aI0
aI3
aI3
asS'Anureet Singh'
p1763
(lp1764
I0
aI2
aI0
aI0
aI0
aI0
aI0
aI0
aI2
aI2
asS'Albie Morkel'
p1765
(lp1766
I1
aI1
aI1
aI0
aI0
aI0
aI0
aI0
aI3
aI3
asS'BE Hendricks'
p1767
(lp1768
I1
aI1
aI0
aI0
aI0
aI0
aI0
aI0
aI1
aI2
asS'Sandeep Sharma'
p1769
(lp1770
I0
aI3
aI0
aI0
aI0
aI0
aI1
aI0
aI9
aI4
asS'Ashish Nehra'
p1771
(lp1772
I1
aI1
aI0
aI0
aI0
aI0
aI0
aI0
aI1
aI2
asS'R Vinay Kumar'
p1773
(lp1774
I1
aI0
aI1
aI0
aI0
aI0
aI0
aI0
aI2
aI2
asS'Johan Botha'
p1775
(lp1776
I3
aI2
aI1
aI0
aI0
aI0
aI3
aI0
aI22
aI9
asS'UT Yadav'
p1777
(lp1778
I0
aI3
aI0
aI0
aI0
aI0
aI0
aI0
aI3
aI3
asS'Brad Hogg'
p1779
(lp1780
I1
aI4
aI0
aI0
aI0
aI0
aI0
aI0
aI4
aI5
asS'J Suchith'
p1781
(lp1782
I2
aI2
aI0
aI0
aI0
aI0
aI0
aI0
aI2
aI4
asS'Kieron Pollard'
p1783
(lp1784
I0
aI2
aI0
aI0
aI0
aI0
aI0
aI0
aI2
aI2
asS'Amit Mishra'
p1785
(lp1786
I1
aI0
aI1
aI0
aI1
aI0
aI0
aI0
aI6
aI3
asS'MJ McClenaghan'
p1787
(lp1788
I2
aI2
aI1
aI0
aI0
aI0
aI0
aI0
aI4
aI5
asS'Angelo Mathews'
p1789
(lp1790
I2
aI2
aI0
aI0
aI0
aI0
aI0
aI0
aI2
aI4
asS'Harbhajan Singh'
p1791
(lp1792
I2
aI5
aI0
aI0
aI0
aI0
aI0
aI0
aI5
aI7
asS'NM Coulter-Nile'
p1793
(lp1794
I5
aI7
aI2
aI0
aI1
aI0
aI0
aI0
aI15
aI15
assS'AN Ahmed '
p1795
(dp1796
S'Bhuvneshwar Kumar'
p1797
(lp1798
I1
aI0
aI0
aI0
aI0
aI0
aI0
aI0
aI0
aI1
asS'Kieron Pollard'
p1799
(lp1800
I0
aI2
aI0
aI0
aI0
aI0
aI0
aI0
aI2
aI2
asS'TA Boult'
p1801
(lp1802
I0
aI0
aI0
aI0
aI1
aI0
aI0
aI0
aI4
aI1
asS'Morne Morkel'
p1803
(lp1804
I0
aI1
aI0
aI0
aI1
aI0
aI0
aI0
aI5
aI2
assS'Ankit Sharma '
p1805
(dp1806
S'Mitchell Starc'
p1807
(lp1808
I1
aI0
aI0
aI0
aI0
aI0
aI0
aI0
aI0
aI1
asS'Dwayne Bravo'
p1809
(lp1810
I1
aI0
aI0
aI0
aI0
aI0
aI0
aI0
aI0
aI1
asS'Yuzvendra Chahal'
p1811
(lp1812
I0
aI2
aI0
aI0
aI0
aI0
aI0
aI0
aI2
aI2
asS'D Wiese'
p1813
(lp1814
I0
aI1
aI0
aI0
aI1
aI0
aI0
aI0
aI5
aI2
assS'RR Rossouw '
p1815
(dp1816
S'MM Sharma'
p1817
(lp1818
I2
aI0
aI2
aI0
aI2
aI0
aI2
aI0
aI24
aI8
asS'Ashish Nehra'
p1819
(lp1820
I6
aI4
aI0
aI0
aI0
aI0
aI0
aI0
aI4
aI10
asS'Harbhajan Singh'
p1821
(lp1822
I2
aI0
aI0
aI0
aI0
aI0
aI0
aI0
aI0
aI2
assS'M Vijay '
p1823
(dp1824
S'MM Sharma'
p1825
(lp1826
I2
aI0
aI0
aI0
aI0
aI0
aI0
aI0
aI0
aI2
asS'Ashish Nehra'
p1827
(lp1828
I8
aI2
aI1
aI0
aI2
aI0
aI0
aI0
aI12
aI13
asS'Bipul Sharma'
p1829
(lp1830
I1
aI0
aI0
aI0
aI0
aI0
aI0
aI0
aI0
aI1
asS'TA Boult'
p1831
(lp1832
I8
aI3
aI1
aI1
aI2
aI0
aI1
aI0
aI22
aI16
asS'Harbhajan Singh'
p1833
(lp1834
I6
aI6
aI1
aI1
aI0
aI0
aI0
aI0
aI11
aI14
asS'I Sharma'
p1835
(lp1836
I1
aI0
aI0
aI0
aI1
aI0
aI0
aI0
aI4
aI2
asS'MJ McClenaghan'
p1837
(lp1838
I1
aI1
aI0
aI1
aI2
aI0
aI0
aI0
aI12
aI5
asS'Angelo Mathews'
p1839
(lp1840
I4
aI0
aI0
aI0
aI2
aI0
aI0
aI0
aI8
aI6
asS'NM Coulter-Nile'
p1841
(lp1842
I8
aI2
aI0
aI0
aI0
aI0
aI0
aI0
aI2
aI10
asS'Stuart Binny'
p1843
(lp1844
I8
aI1
aI0
aI0
aI0
aI0
aI2
aI0
aI13
aI11
asS'Chris Morris'
p1845
(lp1846
I13
aI1
aI3
aI0
aI0
aI0
aI3
aI0
aI25
aI20
asS'James Faulkner'
p1847
(lp1848
I4
aI4
aI2
aI0
aI1
aI0
aI0
aI0
aI12
aI11
asS'Mitchell Starc'
p1849
(lp1850
I0
aI1
aI0
aI0
aI0
aI0
aI0
aI0
aI1
aI1
asS'PV Tambe'
p1851
(lp1852
I2
aI5
aI2
aI0
aI0
aI0
aI0
aI0
aI9
aI9
asS'S Aravind'
p1853
(lp1854
I2
aI1
aI0
aI0
aI0
aI0
aI0
aI0
aI1
aI3
asS'KV Sharma'
p1855
(lp1856
I0
aI2
aI0
aI0
aI0
aI0
aI0
aI0
aI2
aI2
asS'Andre Russell'
p1857
(lp1858
I0
aI1
aI0
aI0
aI0
aI0
aI0
aI0
aI1
aI1
asS'TG Southee'
p1859
(lp1860
I2
aI1
aI1
aI1
aI2
aI0
aI0
aI0
aI14
aI7
asS'Ravindra Jadeja'
p1861
(lp1862
I3
aI3
aI0
aI0
aI1
aI0
aI0
aI0
aI7
aI7
asS'DJ Muthuswami'
p1863
(lp1864
I10
aI4
aI2
aI0
aI2
aI0
aI2
aI0
aI28
aI20
asS'Harshal Patel'
p1865
(lp1866
I2
aI0
aI0
aI0
aI0
aI0
aI0
aI0
aI0
aI2
asS'Moises Henriques'
p1867
(lp1868
I0
aI1
aI0
aI0
aI0
aI0
aI0
aI0
aI1
aI1
asS'J Suchith'
p1869
(lp1870
I3
aI9
aI1
aI0
aI2
aI0
aI1
aI0
aI25
aI16
asS'UT Yadav'
p1871
(lp1872
I12
aI1
aI0
aI0
aI3
aI0
aI1
aI0
aI19
aI17
asS'Sunil Narine'
p1873
(lp1874
I5
aI2
aI0
aI0
aI1
aI0
aI0
aI0
aI6
aI8
asS'P Suyal'
p1875
(lp1876
I4
aI0
aI0
aI0
aI0
aI0
aI0
aI0
aI0
aI4
asS'Johan Botha'
p1877
(lp1878
I1
aI2
aI0
aI0
aI0
aI0
aI0
aI0
aI2
aI3
asS'Lasith Malinga'
p1879
(lp1880
I2
aI1
aI0
aI0
aI1
aI0
aI0
aI0
aI5
aI4
asS'Dhawal Kulkarni'
p1881
(lp1882
I7
aI2
aI0
aI0
aI1
aI0
aI0
aI0
aI6
aI10
asS'R Vinay Kumar'
p1883
(lp1884
I12
aI3
aI1
aI0
aI4
aI0
aI0
aI0
aI21
aI20
asS'Bhuvneshwar Kumar'
p1885
(lp1886
I8
aI3
aI0
aI0
aI1
aI0
aI0
aI0
aI7
aI12
asS'Ravichandran Ashwin'
p1887
(lp1888
I2
aI1
aI0
aI0
aI0
aI0
aI0
aI0
aI1
aI3
asS'IC Pandey'
p1889
(lp1890
I2
aI2
aI1
aI0
aI1
aI0
aI1
aI0
aI14
aI7
assS'MEK Hussey '
p1891
(dp1892
S'Lasith Malinga'
p1893
(lp1894
I4
aI3
aI0
aI0
aI0
aI0
aI0
aI0
aI3
aI7
asS'D Wiese'
p1895
(lp1896
I3
aI7
aI0
aI0
aI1
aI0
aI0
aI0
aI11
aI11
asS'Harshal Patel'
p1897
(lp1898
I2
aI2
aI0
aI0
aI1
aI0
aI0
aI0
aI6
aI5
asS'Sandeep Sharma'
p1899
(lp1900
I3
aI1
aI0
aI0
aI0
aI0
aI0
aI0
aI1
aI4
asS'R Vinay Kumar'
p1901
(lp1902
I4
aI1
aI0
aI0
aI1
aI0
aI1
aI0
aI11
aI7
asS'Mitchell Starc'
p1903
(lp1904
I3
aI5
aI0
aI0
aI0
aI0
aI0
aI0
aI5
aI8
asS'S Aravind'
p1905
(lp1906
I2
aI5
aI2
aI0
aI1
aI0
aI0
aI0
aI13
aI10
asS'MJ McClenaghan'
p1907
(lp1908
I3
aI2
aI0
aI0
aI1
aI0
aI0
aI0
aI6
aI6
asS'Yuzvendra Chahal'
p1909
(lp1910
I3
aI6
aI0
aI1
aI0
aI0
aI2
aI0
aI21
aI12
assS'Stuart Binny '
p1911
(dp1912
S'Imran Tahir'
p1913
(lp1914
I1
aI1
aI0
aI0
aI0
aI0
aI0
aI0
aI1
aI2
asS'Lasith Malinga'
p1915
(lp1916
I0
aI2
aI0
aI0
aI0
aI0
aI0
aI0
aI2
aI2
asS'Anureet Singh'
p1917
(lp1918
I0
aI2
aI0
aI0
aI2
aI0
aI2
aI0
aI22
aI6
asS'Harshal Patel'
p1919
(lp1920
I3
aI1
aI0
aI0
aI1
aI0
aI0
aI0
aI5
aI5
asS'D Wiese'
p1921
(lp1922
I1
aI4
aI1
aI0
aI0
aI0
aI0
aI0
aI6
aI6
asS'A Ashish Reddy'
p1923
(lp1924
I2
aI4
aI2
aI0
aI0
aI0
aI0
aI0
aI8
aI8
asS'TA Boult'
p1925
(lp1926
I2
aI2
aI0
aI0
aI2
aI0
aI0
aI0
aI10
aI6
asS'Sandeep Sharma'
p1927
(lp1928
I1
aI3
aI0
aI0
aI1
aI0
aI0
aI0
aI7
aI5
asS'R Vinay Kumar'
p1929
(lp1930
I0
aI3
aI0
aI0
aI1
aI0
aI0
aI0
aI7
aI4
asS'Bhuvneshwar Kumar'
p1931
(lp1932
I0
aI6
aI0
aI0
aI0
aI0
aI0
aI0
aI6
aI6
asS'Mitchell Starc'
p1933
(lp1934
I2
aI1
aI0
aI0
aI0
aI0
aI0
aI0
aI1
aI3
asS'Mitchell Johnson'
p1935
(lp1936
I8
aI0
aI0
aI0
aI0
aI0
aI0
aI0
aI0
aI8
asS'RS Bopara'
p1937
(lp1938
I0
aI6
aI0
aI0
aI0
aI0
aI0
aI0
aI6
aI6
asS'Karanveer Singh'
p1939
(lp1940
I0
aI4
aI0
aI0
aI1
aI0
aI0
aI0
aI8
aI5
asS'Yuzvendra Chahal'
p1941
(lp1942
I2
aI2
aI1
aI0
aI1
aI0
aI0
aI0
aI8
aI6
asS'Praveen Kumar'
p1943
(lp1944
I0
aI5
aI0
aI0
aI0
aI0
aI0
aI0
aI5
aI5
asS'S Aravind'
p1945
(lp1946
I1
aI0
aI0
aI0
aI0
aI0
aI0
aI0
aI0
aI1
assS'D Wiese '
p1947
(dp1948
S'PV Tambe'
p1949
(lp1950
I0
aI1
aI0
aI0
aI0
aI0
aI0
aI0
aI1
aI1
asS'MM Sharma'
p1951
(lp1952
I3
aI4
aI0
aI0
aI1
aI0
aI2
aI0
aI20
aI10
asS'Dwayne Bravo'
p1953
(lp1954
I12
aI10
aI1
aI0
aI5
aI0
aI1
aI0
aI38
aI29
asS'Anureet Singh'
p1955
(lp1956
I1
aI3
aI0
aI0
aI0
aI0
aI0
aI0
aI3
aI4
asS'Lasith Malinga'
p1957
(lp1958
I4
aI2
aI0
aI0
aI0
aI0
aI0
aI0
aI2
aI6
asS'Jasprit Bumrah'
p1959
(lp1960
I0
aI4
aI0
aI0
aI0
aI0
aI2
aI0
aI16
aI6
asS'Dhawal Kulkarni'
p1961
(lp1962
I3
aI0
aI0
aI0
aI2
aI0
aI0
aI0
aI8
aI5
asS'Ashish Nehra'
p1963
(lp1964
I8
aI7
aI1
aI0
aI0
aI0
aI0
aI0
aI9
aI16
asS'Harbhajan Singh'
p1965
(lp1966
I6
aI2
aI0
aI0
aI2
aI0
aI0
aI0
aI10
aI10
asS'UT Yadav'
p1967
(lp1968
I0
aI2
aI1
aI0
aI0
aI0
aI0
aI0
aI4
aI3
asS'Kieron Pollard'
p1969
(lp1970
I2
aI4
aI2
aI0
aI2
aI0
aI0
aI0
aI16
aI10
asS'Axar Patel'
p1971
(lp1972
I0
aI1
aI0
aI0
aI0
aI0
aI0
aI0
aI1
aI1
asS'MJ McClenaghan'
p1973
(lp1974
I2
aI2
aI0
aI0
aI6
aI0
aI0
aI0
aI26
aI10
asS'HH Pandya'
p1975
(lp1976
I0
aI4
aI0
aI0
aI2
aI0
aI2
aI0
aI24
aI8
asS'Andre Russell'
p1977
(lp1978
I0
aI3
aI1
aI0
aI0
aI0
aI0
aI0
aI5
aI4
asS'Ravindra Jadeja'
p1979
(lp1980
I0
aI6
aI0
aI0
aI0
aI0
aI0
aI0
aI6
aI6
asS'Shane Watson'
p1981
(lp1982
I0
aI2
aI0
aI0
aI0
aI0
aI0
aI0
aI2
aI2
assS'UT Yadav '
p1983
(dp1984
S'James Faulkner'
p1985
(lp1986
I1
aI0
aI0
aI0
aI3
aI0
aI1
aI0
aI18
aI5
asS'Ashish Nehra'
p1987
(lp1988
I1
aI0
aI0
aI0
aI0
aI0
aI0
aI0
aI0
aI1
asS'Chris Morris'
p1989
(lp1990
I0
aI2
aI0
aI0
aI0
aI0
aI0
aI0
aI2
aI2
asS'Kieron Pollard'
p1991
(lp1992
I0
aI1
aI0
aI0
aI1
aI0
aI0
aI0
aI5
aI2
asS'Shane Watson'
p1993
(lp1994
I3
aI0
aI0
aI0
aI1
aI0
aI0
aI0
aI4
aI4
assS'NJ Maddinson '
p1995
(dp1996
S'IC Pandey'
p1997
(lp1998
I6
aI0
aI0
aI0
aI1
aI0
aI0
aI0
aI4
aI7
assS'KK Nair '
p1999
(dp2000
S'D Wiese'
p2001
(lp2002
I4
aI4
aI0
aI0
aI1
aI0
aI0
aI0
aI8
aI9
asS'Shivam Sharma'
p2003
(lp2004
I0
aI2
aI4
aI0
aI2
aI0
aI0
aI0
aI18
aI8
asS'Pawan Negi'
p2005
(lp2006
I2
aI2
aI0
aI0
aI1
aI0
aI0
aI0
aI6
aI5
asS'I Sharma'
p2007
(lp2008
I4
aI0
aI0
aI0
aI0
aI0
aI0
aI0
aI0
aI4
asS'MJ McClenaghan'
p2009
(lp2010
I1
aI1
aI0
aI0
aI0
aI0
aI0
aI0
aI1
aI2
asS'Angelo Mathews'
p2011
(lp2012
I3
aI4
aI1
aI0
aI1
aI0
aI0
aI0
aI10
aI9
asS'NM Coulter-Nile'
p2013
(lp2014
I2
aI1
aI1
aI0
aI0
aI0
aI1
aI0
aI9
aI5
asS'Anureet Singh'
p2015
(lp2016
I6
aI1
aI0
aI0
aI0
aI0
aI0
aI0
aI1
aI7
asS'Morne Morkel'
p2017
(lp2018
I1
aI1
aI0
aI0
aI0
aI0
aI0
aI0
aI1
aI2
asS'Azhar Mahmood'
p2019
(lp2020
I1
aI1
aI0
aI0
aI0
aI0
aI0
aI0
aI1
aI2
asS'Sandeep Sharma'
p2021
(lp2022
I5
aI5
aI0
aI0
aI0
aI0
aI2
aI0
aI17
aI12
asS'Axar Patel'
p2023
(lp2024
I1
aI0
aI0
aI0
aI2
aI0
aI1
aI0
aI14
aI4
asS'S Aravind'
p2025
(lp2026
I1
aI0
aI1
aI0
aI0
aI0
aI0
aI0
aI2
aI2
asS'KV Sharma'
p2027
(lp2028
I3
aI3
aI1
aI0
aI0
aI0
aI0
aI0
aI5
aI7
asS'RS Bopara'
p2029
(lp2030
I6
aI0
aI0
aI0
aI0
aI0
aI0
aI0
aI0
aI6
asS'Yuzvendra Chahal'
p2031
(lp2032
I2
aI3
aI0
aI0
aI1
aI0
aI0
aI0
aI7
aI6
asS'Ravindra Jadeja'
p2033
(lp2034
I3
aI4
aI0
aI0
aI0
aI0
aI0
aI0
aI4
aI7
asS'Imran Tahir'
p2035
(lp2036
I1
aI1
aI2
aI0
aI0
aI0
aI0
aI0
aI5
aI4
asS'Dwayne Bravo'
p2037
(lp2038
I0
aI2
aI0
aI0
aI0
aI0
aI0
aI0
aI2
aI2
asS'Iqbal Abdulla'
p2039
(lp2040
I2
aI2
aI0
aI0
aI0
aI0
aI1
aI0
aI8
aI5
asS'Harshal Patel'
p2041
(lp2042
I2
aI2
aI0
aI0
aI0
aI0
aI0
aI0
aI2
aI4
asS'Moises Henriques'
p2043
(lp2044
I1
aI1
aI0
aI0
aI0
aI0
aI0
aI0
aI1
aI2
asS'UT Yadav'
p2045
(lp2046
I1
aI1
aI0
aI0
aI2
aI0
aI0
aI0
aI9
aI4
asS'Lasith Malinga'
p2047
(lp2048
I1
aI1
aI0
aI0
aI0
aI0
aI0
aI0
aI1
aI2
asS'Andre Russell'
p2049
(lp2050
I0
aI1
aI0
aI0
aI1
aI0
aI0
aI0
aI5
aI2
asS'GS Sandhu'
p2051
(lp2052
I2
aI1
aI2
aI0
aI2
aI0
aI1
aI0
aI19
aI8
asS'R Vinay Kumar'
p2053
(lp2054
I0
aI1
aI0
aI0
aI1
aI0
aI0
aI0
aI5
aI2
asS'Virat Kohli'
p2055
(lp2056
I0
aI1
aI0
aI0
aI0
aI0
aI0
aI0
aI1
aI1
asS'Amit Mishra'
p2057
(lp2058
I7
aI5
aI4
aI0
aI6
aI0
aI0
aI0
aI37
aI22
asS'Mitchell Johnson'
p2059
(lp2060
I0
aI4
aI2
aI0
aI0
aI0
aI0
aI0
aI8
aI6
asS'Praveen Kumar'
p2061
(lp2062
I1
aI0
aI0
aI0
aI0
aI0
aI0
aI0
aI0
aI1
asS'Zaheer Khan'
p2063
(lp2064
I1
aI1
aI0
aI0
aI0
aI0
aI0
aI0
aI1
aI2
assS'Azhar Mahmood'
p2065
(dp2066
S'James Faulkner'
p2067
(lp2068
I2
aI0
aI1
aI0
aI0
aI0
aI0
aI0
aI2
aI3
asS'Shane Watson'
p2069
(lp2070
I3
aI0
aI0
aI0
aI1
aI0
aI0
aI0
aI4
aI4
assS'Virat Kohli '
p2071
(dp2072
S'MM Sharma'
p2073
(lp2074
I10
aI10
aI2
aI1
aI0
aI0
aI0
aI0
aI17
aI23
asS'Ashish Nehra'
p2075
(lp2076
I17
aI6
aI3
aI0
aI2
aI0
aI1
aI0
aI26
aI29
asS'BE Hendricks'
p2077
(lp2078
I2
aI1
aI1
aI0
aI0
aI0
aI0
aI0
aI3
aI4
asS'TA Boult'
p2079
(lp2080
I9
aI1
aI0
aI0
aI1
aI0
aI1
aI0
aI11
aI12
asS'Pawan Negi'
p2081
(lp2082
I3
aI2
aI3
aI0
aI0
aI0
aI1
aI0
aI14
aI9
asS'Harbhajan Singh'
p2083
(lp2084
I6
aI10
aI1
aI0
aI0
aI0
aI3
aI0
aI30
aI20
asS'Dale Steyn'
p2085
(lp2086
I1
aI0
aI1
aI0
aI1
aI0
aI0
aI0
aI6
aI3
asS'MJ McClenaghan'
p2087
(lp2088
I8
aI5
aI1
aI0
aI1
aI0
aI0
aI0
aI11
aI15
asS'Angelo Mathews'
p2089
(lp2090
I1
aI1
aI0
aI0
aI0
aI0
aI0
aI0
aI1
aI2
asS'NM Coulter-Nile'
p2091
(lp2092
I2
aI2
aI0
aI0
aI2
aI0
aI0
aI0
aI10
aI6
asS'Jean-Paul Duminy'
p2093
(lp2094
I1
aI2
aI0
aI0
aI0
aI0
aI0
aI0
aI2
aI3
asS'Anureet Singh'
p2095
(lp2096
I3
aI3
aI1
aI0
aI3
aI0
aI1
aI0
aI23
aI11
asS'Morne Morkel'
p2097
(lp2098
I8
aI1
aI0
aI1
aI0
aI0
aI1
aI0
aI10
aI11
asS'Sandeep Sharma'
p2099
(lp2100
I3
aI2
aI0
aI0
aI0
aI0
aI0
aI0
aI2
aI5
asS'James Faulkner'
p2101
(lp2102
I2
aI4
aI2
aI0
aI0
aI0
aI0
aI0
aI8
aI8
asS'PV Tambe'
p2103
(lp2104
I3
aI7
aI2
aI0
aI0
aI0
aI2
aI0
aI23
aI14
asS'Axar Patel'
p2105
(lp2106
I2
aI3
aI0
aI0
aI0
aI0
aI1
aI0
aI9
aI6
asS'KV Sharma'
p2107
(lp2108
I1
aI4
aI4
aI0
aI1
aI0
aI1
aI0
aI22
aI11
asS'Ankit Sharma'
p2109
(lp2110
I3
aI2
aI0
aI0
aI0
aI0
aI0
aI0
aI2
aI5
asS'RS Bopara'
p2111
(lp2112
I2
aI3
aI0
aI0
aI0
aI0
aI0
aI0
aI3
aI5
asS'Andre Russell'
p2113
(lp2114
I1
aI0
aI0
aI0
aI0
aI0
aI0
aI0
aI0
aI1
asS'TG Southee'
p2115
(lp2116
I2
aI0
aI0
aI0
aI0
aI0
aI0
aI0
aI0
aI2
asS'Ravindra Jadeja'
p2117
(lp2118
I12
aI15
aI3
aI0
aI3
aI0
aI2
aI0
aI45
aI35
asS'PJ Cummins'
p2119
(lp2120
I4
aI3
aI0
aI0
aI1
aI0
aI1
aI0
aI13
aI9
asS'Imran Tahir'
p2121
(lp2122
I0
aI3
aI0
aI0
aI1
aI0
aI0
aI0
aI7
aI4
asS'Dwayne Bravo'
p2123
(lp2124
I4
aI3
aI3
aI0
aI4
aI0
aI0
aI0
aI25
aI14
asS'Dhawal Kulkarni'
p2125
(lp2126
I8
aI10
aI3
aI0
aI1
aI0
aI0
aI0
aI20
aI22
asS'Moises Henriques'
p2127
(lp2128
I1
aI2
aI0
aI0
aI0
aI0
aI0
aI0
aI2
aI3
asS'Glenn Maxwell'
p2129
(lp2130
I0
aI3
aI0
aI0
aI1
aI0
aI0
aI0
aI7
aI4
asS'J Suchith'
p2131
(lp2132
I2
aI4
aI0
aI0
aI0
aI0
aI1
aI0
aI10
aI7
asS'J Yadav'
p2133
(lp2134
I1
aI1
aI0
aI0
aI0
aI0
aI0
aI0
aI1
aI2
asS'UT Yadav'
p2135
(lp2136
I2
aI1
aI0
aI0
aI1
aI0
aI1
aI0
aI11
aI5
asS'Brad Hogg'
p2137
(lp2138
I0
aI2
aI0
aI0
aI0
aI0
aI0
aI0
aI2
aI2
asS'Sunil Narine'
p2139
(lp2140
I1
aI3
aI0
aI0
aI0
aI0
aI0
aI0
aI3
aI4
asS'HH Pandya'
p2141
(lp2142
I4
aI4
aI1
aI0
aI3
aI0
aI1
aI0
aI24
aI13
asS'Chris Morris'
p2143
(lp2144
I1
aI7
aI0
aI0
aI0
aI0
aI0
aI0
aI7
aI8
asS'Ravichandran Ashwin'
p2145
(lp2146
I2
aI4
aI0
aI0
aI2
aI0
aI2
aI0
aI24
aI10
asS'Lasith Malinga'
p2147
(lp2148
I1
aI4
aI0
aI0
aI0
aI0
aI0
aI0
aI4
aI5
asS'IC Pandey'
p2149
(lp2150
I6
aI11
aI0
aI0
aI0
aI0
aI0
aI0
aI11
aI17
asS'Jasprit Bumrah'
p2151
(lp2152
I7
aI11
aI3
aI0
aI4
aI0
aI1
aI0
aI39
aI26
asS'Bhuvneshwar Kumar'
p2153
(lp2154
I3
aI2
aI0
aI0
aI3
aI0
aI1
aI0
aI20
aI9
asS'Amit Mishra'
p2155
(lp2156
I2
aI3
aI0
aI0
aI3
aI0
aI0
aI0
aI15
aI8
asS'Mitchell Johnson'
p2157
(lp2158
I6
aI1
aI1
aI0
aI1
aI0
aI0
aI0
aI7
aI9
asS'Piyush Chawla'
p2159
(lp2160
I0
aI2
aI0
aI0
aI0
aI0
aI1
aI0
aI8
aI3
asS'Praveen Kumar'
p2161
(lp2162
I6
aI3
aI1
aI0
aI1
aI0
aI2
aI0
aI21
aI13
asS'Shane Watson'
p2163
(lp2164
I1
aI5
aI2
aI0
aI0
aI0
aI1
aI0
aI15
aI9
assS'Steven Smith'
p2165
(dp2166
S'MM Sharma'
p2167
(lp2168
I1
aI4
aI2
aI0
aI0
aI0
aI0
aI0
aI8
aI7
asS'D Wiese'
p2169
(lp2170
I4
aI9
aI1
aI0
aI2
aI0
aI0
aI0
aI19
aI16
asS'TA Boult'
p2171
(lp2172
I2
aI4
aI0
aI0
aI2
aI0
aI0
aI0
aI12
aI8
asS'Pawan Negi'
p2173
(lp2174
I0
aI2
aI1
aI0
aI0
aI0
aI0
aI0
aI4
aI3
asS'Harbhajan Singh'
p2175
(lp2176
I0
aI4
aI1
aI0
aI1
aI0
aI0
aI0
aI10
aI6
asS'I Sharma'
p2177
(lp2178
I3
aI3
aI0
aI0
aI2
aI0
aI0
aI0
aI11
aI8
asS'MJ McClenaghan'
p2179
(lp2180
I4
aI1
aI0
aI0
aI0
aI0
aI0
aI0
aI1
aI5
asS'Angelo Mathews'
p2181
(lp2182
I0
aI2
aI0
aI0
aI1
aI0
aI0
aI0
aI6
aI3
asS'Karanveer Singh'
p2183
(lp2184
I1
aI4
aI0
aI0
aI2
aI0
aI0
aI0
aI12
aI7
asS'NM Coulter-Nile'
p2185
(lp2186
I3
aI0
aI0
aI0
aI1
aI0
aI0
aI0
aI4
aI4
asS'Anureet Singh'
p2187
(lp2188
I1
aI1
aI0
aI0
aI0
aI0
aI0
aI0
aI1
aI2
asS'Virat Kohli'
p2189
(lp2190
I1
aI3
aI0
aI0
aI0
aI0
aI0
aI0
aI3
aI4
asS'Sandeep Sharma'
p2191
(lp2192
I1
aI5
aI1
aI0
aI1
aI0
aI0
aI0
aI11
aI8
asS'Corey Anderson'
p2193
(lp2194
I10
aI4
aI4
aI0
aI0
aI0
aI0
aI0
aI12
aI18
asS'Mitchell Starc'
p2195
(lp2196
I3
aI1
aI0
aI0
aI1
aI0
aI0
aI0
aI5
aI5
asS'Axar Patel'
p2197
(lp2198
I3
aI1
aI0
aI0
aI2
aI0
aI0
aI0
aI9
aI6
asS'KV Sharma'
p2199
(lp2200
I4
aI4
aI1
aI0
aI3
aI0
aI2
aI0
aI30
aI14
asS'RS Bopara'
p2201
(lp2202
I3
aI8
aI0
aI0
aI1
aI0
aI0
aI0
aI12
aI12
asS'Yuzvendra Chahal'
p2203
(lp2204
I2
aI5
aI1
aI0
aI0
aI0
aI0
aI0
aI7
aI8
asS'Ravindra Jadeja'
p2205
(lp2206
I4
aI4
aI0
aI0
aI0
aI0
aI0
aI0
aI4
aI8
asS'Dwayne Bravo'
p2207
(lp2208
I2
aI0
aI0
aI0
aI0
aI0
aI0
aI0
aI0
aI2
asS'Iqbal Abdulla'
p2209
(lp2210
I0
aI3
aI0
aI0
aI0
aI0
aI0
aI0
aI3
aI3
asS'Harshal Patel'
p2211
(lp2212
I0
aI4
aI1
aI0
aI0
aI0
aI0
aI0
aI6
aI5
asS'Moises Henriques'
p2213
(lp2214
I1
aI3
aI1
aI0
aI3
aI0
aI0
aI0
aI17
aI8
asS'J Suchith'
p2215
(lp2216
I2
aI16
aI4
aI0
aI3
aI0
aI0
aI0
aI36
aI25
asS'Shakib Al Hasan'
p2217
(lp2218
I0
aI2
aI0
aI0
aI0
aI0
aI0
aI0
aI2
aI2
asS'P Suyal'
p2219
(lp2220
I8
aI4
aI4
aI2
aI2
aI0
aI2
aI0
aI38
aI22
asS'S Gopal'
p2221
(lp2222
I0
aI6
aI0
aI0
aI0
aI0
aI0
aI0
aI6
aI6
asS'Lasith Malinga'
p2223
(lp2224
I11
aI10
aI9
aI0
aI12
aI0
aI0
aI0
aI76
aI42
asS'Andre Russell'
p2225
(lp2226
I2
aI2
aI0
aI0
aI2
aI0
aI0
aI0
aI10
aI6
asS'R Vinay Kumar'
p2227
(lp2228
I0
aI2
aI0
aI0
aI0
aI0
aI0
aI0
aI2
aI2
asS'Bhuvneshwar Kumar'
p2229
(lp2230
I1
aI1
aI0
aI0
aI0
aI0
aI0
aI0
aI1
aI2
asS'Amit Mishra'
p2231
(lp2232
I2
aI0
aI0
aI0
aI0
aI0
aI0
aI0
aI0
aI2
asS'Mitchell Johnson'
p2233
(lp2234
I2
aI0
aI0
aI0
aI0
aI0
aI0
aI0
aI0
aI2
asS'Piyush Chawla'
p2235
(lp2236
I1
aI2
aI0
aI0
aI0
aI0
aI0
aI0
aI2
aI3
asS'Praveen Kumar'
p2237
(lp2238
I3
aI3
aI0
aI0
aI2
aI0
aI0
aI0
aI11
aI8
assS'Manoj Tiwary'
p2239
(dp2240
S'Piyush Chawla'
p2241
(lp2242
I7
aI10
aI0
aI0
aI0
aI0
aI1
aI0
aI16
aI18
asS'YK Pathan'
p2243
(lp2244
I0
aI6
aI0
aI0
aI2
aI0
aI0
aI0
aI14
aI8
asS'UT Yadav'
p2245
(lp2246
I8
aI0
aI0
aI0
aI1
aI0
aI0
aI0
aI4
aI9
asS'Brad Hogg'
p2247
(lp2248
I2
aI1
aI0
aI0
aI0
aI0
aI0
aI0
aI1
aI3
asS'Sunil Narine'
p2249
(lp2250
I9
aI6
aI0
aI0
aI4
aI0
aI0
aI0
aI22
aI19
asS'Andre Russell'
p2251
(lp2252
I5
aI6
aI0
aI0
aI2
aI0
aI0
aI0
aI14
aI13
asS'Morne Morkel'
p2253
(lp2254
I8
aI2
aI0
aI0
aI4
aI0
aI0
aI0
aI18
aI14
assS'Andre Russell '
p2255
(dp2256
S'MM Sharma'
p2257
(lp2258
I3
aI0
aI0
aI0
aI0
aI0
aI0
aI0
aI0
aI3
asS'Ashish Nehra'
p2259
(lp2260
I1
aI2
aI0
aI0
aI0
aI0
aI0
aI0
aI2
aI3
asS'RG More'
p2261
(lp2262
I1
aI3
aI0
aI0
aI0
aI0
aI0
aI0
aI3
aI4
asS'Bipul Sharma'
p2263
(lp2264
I4
aI3
aI0
aI0
aI0
aI0
aI4
aI0
aI27
aI11
asS'D Wiese'
p2265
(lp2266
I1
aI2
aI0
aI0
aI1
aI0
aI1
aI0
aI12
aI5
asS'BE Hendricks'
p2267
(lp2268
I0
aI1
aI0
aI0
aI1
aI0
aI0
aI0
aI5
aI2
asS'Dhawal Kulkarni'
p2269
(lp2270
I2
aI0
aI1
aI0
aI2
aI0
aI0
aI0
aI10
aI5
asS'Pawan Negi'
p2271
(lp2272
I3
aI5
aI0
aI0
aI0
aI0
aI1
aI0
aI11
aI9
asS'Dale Steyn'
p2273
(lp2274
I0
aI2
aI0
aI0
aI0
aI0
aI0
aI0
aI2
aI2
asS'Gurkeerat Singh'
p2275
(lp2276
I1
aI0
aI0
aI0
aI0
aI0
aI0
aI0
aI0
aI1
asS'Stuart Binny'
p2277
(lp2278
I0
aI1
aI0
aI0
aI0
aI0
aI0
aI0
aI1
aI1
asS'Anureet Singh'
p2279
(lp2280
I1
aI7
aI4
aI0
aI5
aI0
aI3
aI0
aI53
aI20
asS'Varun Aaron'
p2281
(lp2282
I2
aI1
aI0
aI0
aI4
aI0
aI2
aI0
aI29
aI9
asS'Sandeep Sharma'
p2283
(lp2284
I2
aI0
aI0
aI0
aI0
aI0
aI0
aI0
aI0
aI2
asS'AN Ahmed'
p2285
(lp2286
I2
aI1
aI0
aI0
aI1
aI0
aI1
aI0
aI11
aI5
asS'James Faulkner'
p2287
(lp2288
I1
aI3
aI0
aI0
aI0
aI0
aI0
aI0
aI3
aI4
asS'Axar Patel'
p2289
(lp2290
I5
aI5
aI6
aI0
aI5
aI0
aI3
aI0
aI55
aI24
asS'RS Bopara'
p2291
(lp2292
I4
aI2
aI0
aI0
aI2
aI0
aI0
aI0
aI10
aI8
asS'Yuzvendra Chahal'
p2293
(lp2294
I0
aI3
aI1
aI0
aI3
aI0
aI0
aI0
aI17
aI7
asS'Ravindra Jadeja'
p2295
(lp2296
I0
aI4
aI0
aI0
aI2
aI0
aI1
aI0
aI18
aI7
asS'Imran Tahir'
p2297
(lp2298
I2
aI0
aI0
aI0
aI1
aI0
aI0
aI0
aI4
aI3
asS'Dwayne Bravo'
p2299
(lp2300
I1
aI5
aI0
aI0
aI2
aI0
aI2
aI0
aI25
aI10
asS'Harshal Patel'
p2301
(lp2302
I3
aI1
aI1
aI0
aI2
aI0
aI1
aI0
aI17
aI8
asS'Moises Henriques'
p2303
(lp2304
I2
aI0
aI0
aI0
aI0
aI0
aI0
aI0
aI0
aI2
asS'Chris Morris'
p2305
(lp2306
I1
aI0
aI0
aI0
aI0
aI0
aI0
aI0
aI0
aI1
asS'BB Sran'
p2307
(lp2308
I1
aI1
aI0
aI0
aI1
aI0
aI1
aI0
aI11
aI4
asS'Lasith Malinga'
p2309
(lp2310
I1
aI1
aI0
aI0
aI0
aI0
aI0
aI0
aI1
aI2
asS'NLTC Perera'
p2311
(lp2312
I12
aI6
aI0
aI0
aI6
aI0
aI2
aI0
aI42
aI26
asS'R Vinay Kumar'
p2313
(lp2314
I1
aI1
aI0
aI0
aI0
aI0
aI0
aI0
aI1
aI2
asS'Amit Mishra'
p2315
(lp2316
I1
aI1
aI0
aI0
aI0
aI0
aI0
aI0
aI1
aI2
asS'Mitchell Johnson'
p2317
(lp2318
I8
aI4
aI0
aI0
aI6
aI0
aI0
aI0
aI28
aI18
asS'Shane Watson'
p2319
(lp2320
I1
aI2
aI0
aI0
aI1
aI0
aI1
aI0
aI12
aI5
assS'Imran Tahir '
p2321
(dp2322
S'Mitchell Starc'
p2323
(lp2324
I1
aI1
aI0
aI0
aI0
aI0
aI0
aI0
aI1
aI2
asS'Ashish Nehra'
p2325
(lp2326
I0
aI0
aI1
aI0
aI0
aI0
aI0
aI0
aI2
aI1
asS'Harshal Patel'
p2327
(lp2328
I0
aI1
aI0
aI0
aI0
aI0
aI0
aI0
aI1
aI1
asS'Dwayne Bravo'
p2329
(lp2330
I1
aI0
aI0
aI0
aI0
aI0
aI0
aI0
aI0
aI1
asS'D Wiese'
p2331
(lp2332
I0
aI1
aI0
aI0
aI0
aI0
aI0
aI0
aI1
aI1
assS'Amit Mishra '
p2333
(dp2334
S'Ashish Nehra'
p2335
(lp2336
I0
aI1
aI1
aI0
aI0
aI0
aI0
aI0
aI3
aI2
asS'D Wiese'
p2337
(lp2338
I0
aI1
aI0
aI0
aI0
aI0
aI0
aI0
aI1
aI1
asS'Dhawal Kulkarni'
p2339
(lp2340
I1
aI0
aI0
aI0
aI0
aI0
aI0
aI0
aI0
aI1
asS'UT Yadav'
p2341
(lp2342
I0
aI2
aI0
aI0
aI0
aI0
aI0
aI0
aI2
aI2
asS'Mitchell Starc'
p2343
(lp2344
I2
aI1
aI0
aI0
aI0
aI0
aI0
aI0
aI1
aI3
asS'Ravichandran Ashwin'
p2345
(lp2346
I1
aI1
aI0
aI0
aI0
aI0
aI0
aI0
aI1
aI2
asS'TG Southee'
p2347
(lp2348
I1
aI1
aI0
aI0
aI0
aI0
aI0
aI0
aI1
aI2
assS'Anureet Singh '
p2349
(dp2350
S'Imran Tahir'
p2351
(lp2352
I0
aI2
aI0
aI0
aI0
aI0
aI1
aI0
aI8
aI3
asS'MM Sharma'
p2353
(lp2354
I3
aI1
aI0
aI0
aI0
aI0
aI0
aI0
aI1
aI4
asS'Dwayne Bravo'
p2355
(lp2356
I3
aI5
aI0
aI0
aI0
aI0
aI0
aI0
aI5
aI8
asS'Morne Morkel'
p2357
(lp2358
I2
aI0
aI0
aI0
aI0
aI0
aI0
aI0
aI0
aI2
asS'Ashish Nehra'
p2359
(lp2360
I4
aI1
aI0
aI0
aI0
aI0
aI0
aI0
aI1
aI5
asS'Ravindra Jadeja'
p2361
(lp2362
I0
aI1
aI0
aI0
aI0
aI0
aI0
aI0
aI1
aI1
asS'James Faulkner'
p2363
(lp2364
I1
aI0
aI0
aI0
aI0
aI0
aI0
aI0
aI0
aI1
asS'Mitchell Starc'
p2365
(lp2366
I2
aI0
aI0
aI0
aI0
aI0
aI0
aI0
aI0
aI2
asS'Ravichandran Ashwin'
p2367
(lp2368
I0
aI2
aI0
aI0
aI0
aI0
aI0
aI0
aI2
aI2
asS'Chris Morris'
p2369
(lp2370
I2
aI0
aI0
aI0
aI0
aI0
aI0
aI0
aI0
aI2
asS'Praveen Kumar'
p2371
(lp2372
I1
aI0
aI0
aI0
aI0
aI0
aI0
aI0
aI0
aI1
asS'Bhuvneshwar Kumar'
p2373
(lp2374
I1
aI0
aI0
aI0
aI0
aI0
aI0
aI0
aI0
aI1
assS'M Vohra '
p2375
(dp2376
S'Jean-Paul Duminy'
p2377
(lp2378
I2
aI1
aI0
aI0
aI0
aI0
aI0
aI0
aI1
aI3
asS'Bhuvneshwar Kumar'
p2379
(lp2380
I5
aI1
aI0
aI0
aI2
aI0
aI0
aI0
aI9
aI8
asS'Piyush Chawla'
p2381
(lp2382
I1
aI1
aI0
aI0
aI0
aI0
aI1
aI0
aI7
aI3
asS'Bipul Sharma'
p2383
(lp2384
I3
aI1
aI0
aI0
aI1
aI0
aI0
aI0
aI5
aI5
asS'Harshal Patel'
p2385
(lp2386
I1
aI0
aI0
aI0
aI0
aI0
aI0
aI0
aI0
aI1
asS'D Wiese'
p2387
(lp2388
I1
aI0
aI0
aI1
aI0
aI0
aI0
aI0
aI3
aI2
asS'Brad Hogg'
p2389
(lp2390
I5
aI3
aI0
aI0
aI0
aI0
aI0
aI0
aI3
aI8
asS'TA Boult'
p2391
(lp2392
I3
aI1
aI0
aI0
aI0
aI0
aI0
aI0
aI1
aI4
asS'Pawan Negi'
p2393
(lp2394
I1
aI1
aI0
aI0
aI0
aI0
aI0
aI0
aI1
aI2
asS'Johan Botha'
p2395
(lp2396
I1
aI1
aI0
aI0
aI0
aI0
aI1
aI0
aI7
aI3
asS'UT Yadav'
p2397
(lp2398
I2
aI1
aI0
aI0
aI0
aI0
aI0
aI0
aI1
aI3
asS'Mitchell Starc'
p2399
(lp2400
I2
aI1
aI1
aI0
aI0
aI0
aI0
aI0
aI3
aI4
asS'Sunil Narine'
p2401
(lp2402
I3
aI3
aI0
aI0
aI0
aI0
aI0
aI0
aI3
aI6
asS'I Sharma'
p2403
(lp2404
I2
aI4
aI0
aI0
aI0
aI0
aI1
aI0
aI10
aI7
asS'Andre Russell'
p2405
(lp2406
I4
aI2
aI3
aI0
aI1
aI0
aI1
aI0
aI18
aI11
asS'IC Pandey'
p2407
(lp2408
I3
aI1
aI1
aI0
aI0
aI0
aI0
aI0
aI3
aI5
asS'Zaheer Khan'
p2409
(lp2410
I4
aI0
aI0
aI0
aI0
aI0
aI0
aI0
aI0
aI4
asS'S Aravind'
p2411
(lp2412
I0
aI1
aI0
aI0
aI0
aI0
aI1
aI0
aI7
aI2
assS'Eoin Morgan'
p2413
(dp2414
S'MM Sharma'
p2415
(lp2416
I2
aI3
aI1
aI0
aI1
aI0
aI1
aI0
aI15
aI8
asS'Ashish Nehra'
p2417
(lp2418
I0
aI1
aI0
aI0
aI0
aI0
aI0
aI0
aI1
aI1
asS'RG More'
p2419
(lp2420
I1
aI1
aI0
aI0
aI0
aI0
aI0
aI0
aI1
aI2
asS'YK Pathan'
p2421
(lp2422
I0
aI1
aI0
aI0
aI0
aI0
aI0
aI0
aI1
aI1
asS'D Wiese'
p2423
(lp2424
I0
aI2
aI0
aI0
aI0
aI0
aI0
aI0
aI2
aI2
asS'BE Hendricks'
p2425
(lp2426
I2
aI0
aI0
aI0
aI0
aI0
aI0
aI0
aI0
aI2
asS'Dhawal Kulkarni'
p2427
(lp2428
I10
aI2
aI0
aI0
aI0
aI0
aI0
aI0
aI2
aI12
asS'Pawan Negi'
p2429
(lp2430
I1
aI1
aI0
aI0
aI0
aI0
aI1
aI0
aI7
aI3
asS'Johan Botha'
p2431
(lp2432
I2
aI2
aI0
aI0
aI0
aI0
aI0
aI0
aI2
aI4
asS'MJ McClenaghan'
p2433
(lp2434
I7
aI1
aI1
aI0
aI0
aI0
aI0
aI0
aI3
aI9
asS'Jean-Paul Duminy'
p2435
(lp2436
I4
aI4
aI0
aI0
aI1
aI0
aI0
aI0
aI8
aI9
asS'Suresh Raina'
p2437
(lp2438
I4
aI3
aI0
aI0
aI0
aI0
aI0
aI0
aI3
aI7
asS'Stuart Binny'
p2439
(lp2440
I6
aI6
aI2
aI0
aI2
aI0
aI0
aI0
aI18
aI16
asS'NM Coulter-Nile'
p2441
(lp2442
I4
aI1
aI0
aI0
aI0
aI0
aI0
aI0
aI1
aI5
asS'James Faulkner'
p2443
(lp2444
I6
aI8
aI0
aI0
aI0
aI0
aI2
aI0
aI20
aI16
asS'Mitchell Starc'
p2445
(lp2446
I2
aI1
aI1
aI0
aI0
aI0
aI1
aI0
aI9
aI5
asS'PV Tambe'
p2447
(lp2448
I9
aI1
aI3
aI0
aI1
aI0
aI2
aI0
aI23
aI16
asS'TG Southee'
p2449
(lp2450
I0
aI2
aI0
aI0
aI2
aI0
aI0
aI0
aI10
aI4
asS'Dwayne Bravo'
p2451
(lp2452
I1
aI5
aI0
aI0
aI0
aI0
aI0
aI0
aI5
aI6
asS'Glenn Maxwell'
p2453
(lp2454
I1
aI1
aI0
aI0
aI1
aI0
aI2
aI0
aI17
aI5
asS'J Yadav'
p2455
(lp2456
I2
aI4
aI1
aI0
aI0
aI0
aI0
aI0
aI6
aI7
asS'Brad Hogg'
p2457
(lp2458
I1
aI0
aI0
aI0
aI0
aI0
aI0
aI0
aI0
aI1
asS'Chris Morris'
p2459
(lp2460
I0
aI1
aI1
aI0
aI2
aI0
aI1
aI0
aI17
aI5
asS'Lasith Malinga'
p2461
(lp2462
I2
aI0
aI0
aI0
aI0
aI0
aI0
aI0
aI0
aI2
asS'RN ten Doeschate'
p2463
(lp2464
I1
aI0
aI0
aI0
aI0
aI0
aI0
aI0
aI0
aI1
asS'R Vinay Kumar'
p2465
(lp2466
I0
aI2
aI0
aI0
aI1
aI0
aI0
aI0
aI6
aI3
asS'Amit Mishra'
p2467
(lp2468
I1
aI3
aI0
aI0
aI0
aI0
aI0
aI0
aI3
aI4
asS'DJ Hooda'
p2469
(lp2470
I6
aI4
aI1
aI0
aI0
aI0
aI0
aI0
aI6
aI11
asS'Piyush Chawla'
p2471
(lp2472
I2
aI2
aI0
aI0
aI0
aI0
aI0
aI0
aI2
aI4
asS'Zaheer Khan'
p2473
(lp2474
I1
aI2
aI0
aI0
aI1
aI0
aI0
aI0
aI6
aI4
asS'Shane Watson'
p2475
(lp2476
I2
aI1
aI2
aI0
aI1
aI0
aI2
aI0
aI21
aI8
assS'DJ Hooda '
p2477
(dp2478
S'D Wiese'
p2479
(lp2480
I3
aI2
aI1
aI0
aI0
aI0
aI0
aI0
aI4
aI6
asS'Shivam Sharma'
p2481
(lp2482
I4
aI0
aI0
aI0
aI2
aI0
aI0
aI0
aI8
aI6
asS'Pawan Negi'
p2483
(lp2484
I1
aI3
aI2
aI0
aI1
aI0
aI0
aI0
aI11
aI7
asS'MJ McClenaghan'
p2485
(lp2486
I0
aI1
aI0
aI0
aI0
aI0
aI0
aI0
aI1
aI1
asS'Karanveer Singh'
p2487
(lp2488
I3
aI1
aI2
aI0
aI0
aI0
aI2
aI0
aI17
aI8
asS'Angelo Mathews'
p2489
(lp2490
I0
aI1
aI1
aI0
aI2
aI0
aI1
aI0
aI17
aI5
asS'JD Unadkat'
p2491
(lp2492
I1
aI1
aI0
aI0
aI0
aI0
aI2
aI0
aI13
aI4
asS'NM Coulter-Nile'
p2493
(lp2494
I0
aI1
aI1
aI0
aI1
aI0
aI0
aI0
aI7
aI3
asS'Anureet Singh'
p2495
(lp2496
I1
aI2
aI0
aI0
aI1
aI0
aI1
aI0
aI12
aI5
asS'Mitchell Starc'
p2497
(lp2498
I2
aI1
aI1
aI0
aI0
aI0
aI0
aI0
aI3
aI4
asS'Axar Patel'
p2499
(lp2500
I1
aI5
aI0
aI0
aI0
aI0
aI0
aI0
aI5
aI6
asS'KV Sharma'
p2501
(lp2502
I2
aI0
aI1
aI0
aI0
aI0
aI0
aI0
aI2
aI3
asS'RS Bopara'
p2503
(lp2504
I1
aI2
aI1
aI0
aI0
aI0
aI0
aI0
aI4
aI4
asS'Yuzvendra Chahal'
p2505
(lp2506
I0
aI1
aI0
aI0
aI0
aI0
aI0
aI0
aI1
aI1
asS'Ravindra Jadeja'
p2507
(lp2508
I2
aI1
aI0
aI0
aI0
aI0
aI0
aI0
aI1
aI3
asS'Imran Tahir'
p2509
(lp2510
I1
aI2
aI0
aI0
aI0
aI0
aI1
aI0
aI8
aI4
asS'Dwayne Bravo'
p2511
(lp2512
I1
aI3
aI0
aI0
aI0
aI0
aI0
aI0
aI3
aI4
asS'Iqbal Abdulla'
p2513
(lp2514
I1
aI0
aI0
aI0
aI0
aI0
aI0
aI0
aI0
aI1
asS'Harshal Patel'
p2515
(lp2516
I3
aI0
aI2
aI0
aI0
aI0
aI0
aI0
aI4
aI5
asS'Moises Henriques'
p2517
(lp2518
I1
aI1
aI0
aI0
aI0
aI0
aI0
aI0
aI1
aI2
asS'Glenn Maxwell'
p2519
(lp2520
I2
aI2
aI0
aI0
aI0
aI0
aI4
aI0
aI26
aI8
asS'S Gopal'
p2521
(lp2522
I0
aI2
aI0
aI0
aI0
aI0
aI4
aI0
aI26
aI6
asS'Lasith Malinga'
p2523
(lp2524
I3
aI0
aI0
aI0
aI0
aI0
aI0
aI0
aI0
aI3
asS'Yuvraj Singh'
p2525
(lp2526
I0
aI2
aI0
aI0
aI0
aI0
aI0
aI0
aI2
aI2
asS'Amit Mishra'
p2527
(lp2528
I2
aI3
aI2
aI0
aI0
aI0
aI0
aI0
aI7
aI7
assS'Shikhar Dhawan'
p2529
(dp2530
S'MM Sharma'
p2531
(lp2532
I6
aI5
aI0
aI0
aI2
aI0
aI0
aI0
aI13
aI13
asS'Ashish Nehra'
p2533
(lp2534
I6
aI6
aI1
aI1
aI3
aI0
aI0
aI0
aI23
aI17
asS'RG More'
p2535
(lp2536
I0
aI1
aI0
aI0
aI1
aI0
aI0
aI0
aI5
aI2
asS'DJ Hooda'
p2537
(lp2538
I7
aI7
aI1
aI0
aI4
aI0
aI1
aI0
aI31
aI20
asS'YK Pathan'
p2539
(lp2540
I2
aI8
aI0
aI0
aI0
aI0
aI0
aI0
aI8
aI10
asS'D Wiese'
p2541
(lp2542
I1
aI0
aI0
aI0
aI1
aI0
aI0
aI0
aI4
aI2
asS'BE Hendricks'
p2543
(lp2544
I0
aI2
aI0
aI0
aI2
aI0
aI0
aI0
aI10
aI4
asS'DJ Muthuswami'
p2545
(lp2546
I8
aI0
aI0
aI0
aI0
aI0
aI0
aI0
aI0
aI8
asS'Pawan Negi'
p2547
(lp2548
I1
aI3
aI0
aI0
aI1
aI0
aI0
aI0
aI7
aI5
asS'Harbhajan Singh'
p2549
(lp2550
I3
aI1
aI0
aI0
aI4
aI0
aI1
aI0
aI23
aI9
asS'MJ McClenaghan'
p2551
(lp2552
I8
aI1
aI1
aI0
aI2
aI0
aI0
aI0
aI11
aI12
asS'Angelo Mathews'
p2553
(lp2554
I6
aI0
aI0
aI0
aI6
aI0
aI0
aI0
aI24
aI12
asS'NM Coulter-Nile'
p2555
(lp2556
I4
aI4
aI2
aI1
aI0
aI0
aI0
aI0
aI11
aI11
asS'Gurkeerat Singh'
p2557
(lp2558
I0
aI2
aI0
aI0
aI0
aI0
aI0
aI0
aI2
aI2
asS'Suresh Raina'
p2559
(lp2560
I2
aI6
aI0
aI0
aI1
aI0
aI0
aI0
aI10
aI9
asS'Jean-Paul Duminy'
p2561
(lp2562
I2
aI4
aI0
aI0
aI0
aI0
aI0
aI0
aI4
aI6
asS'Anureet Singh'
p2563
(lp2564
I2
aI1
aI0
aI0
aI0
aI0
aI0
aI0
aI1
aI3
asS'Varun Aaron'
p2565
(lp2566
I4
aI3
aI0
aI0
aI1
aI0
aI0
aI0
aI7
aI8
asS'Sandeep Sharma'
p2567
(lp2568
I4
aI1
aI1
aI0
aI2
aI0
aI0
aI0
aI11
aI8
asS'AN Ahmed'
p2569
(lp2570
I7
aI3
aI0
aI0
aI0
aI0
aI2
aI0
aI15
aI12
asS'James Faulkner'
p2571
(lp2572
I4
aI1
aI1
aI0
aI0
aI0
aI0
aI0
aI3
aI6
asS'Mitchell Starc'
p2573
(lp2574
I1
aI1
aI0
aI0
aI0
aI0
aI0
aI0
aI1
aI2
asS'PV Tambe'
p2575
(lp2576
I0
aI4
aI0
aI0
aI0
aI0
aI1
aI0
aI10
aI5
asS'Yuzvendra Chahal'
p2577
(lp2578
I0
aI8
aI0
aI0
aI0
aI0
aI0
aI0
aI8
aI8
asS'TG Southee'
p2579
(lp2580
I8
aI0
aI0
aI0
aI0
aI0
aI0
aI0
aI0
aI8
asS'Mitchell Johnson'
p2581
(lp2582
I1
aI1
aI0
aI0
aI0
aI0
aI0
aI0
aI1
aI2
asS'Dwayne Bravo'
p2583
(lp2584
I2
aI1
aI0
aI0
aI1
aI0
aI0
aI0
aI5
aI4
asS'Dhawal Kulkarni'
p2585
(lp2586
I7
aI3
aI0
aI0
aI6
aI0
aI0
aI0
aI27
aI16
asS'Harshal Patel'
p2587
(lp2588
I1
aI3
aI1
aI0
aI0
aI0
aI0
aI0
aI5
aI5
asS'Glenn Maxwell'
p2589
(lp2590
I1
aI0
aI0
aI0
aI0
aI0
aI0
aI0
aI0
aI1
asS'Chris Morris'
p2591
(lp2592
I1
aI1
aI0
aI0
aI0
aI0
aI0
aI0
aI1
aI2
asS'Darren Sammy'
p2593
(lp2594
I1
aI4
aI0
aI0
aI1
aI0
aI0
aI0
aI8
aI6
asS'J Yadav'
p2595
(lp2596
I0
aI2
aI0
aI0
aI0
aI0
aI0
aI0
aI2
aI2
asS'UT Yadav'
p2597
(lp2598
I6
aI8
aI0
aI0
aI4
aI0
aI0
aI0
aI24
aI18
asS'Brad Hogg'
p2599
(lp2600
I2
aI1
aI0
aI0
aI0
aI0
aI0
aI0
aI1
aI3
asS'Sunil Narine'
p2601
(lp2602
I4
aI4
aI2
aI2
aI2
aI0
aI0
aI0
aI22
aI14
asS'Johan Botha'
p2603
(lp2604
I9
aI15
aI0
aI0
aI0
aI0
aI0
aI0
aI15
aI24
asS'Morne Morkel'
p2605
(lp2606
I8
aI12
aI0
aI0
aI2
aI0
aI0
aI0
aI20
aI22
asS'Lasith Malinga'
p2607
(lp2608
I5
aI3
aI1
aI0
aI1
aI0
aI0
aI0
aI9
aI10
asS'Andre Russell'
p2609
(lp2610
I4
aI1
aI0
aI0
aI3
aI0
aI0
aI0
aI13
aI8
asS'SA Abbott'
p2611
(lp2612
I2
aI2
aI0
aI0
aI2
aI0
aI0
aI0
aI10
aI6
asS'Piyush Chawla'
p2613
(lp2614
I0
aI4
aI2
aI0
aI0
aI0
aI2
aI0
aI20
aI8
asS'Zaheer Khan'
p2615
(lp2616
I5
aI0
aI0
aI0
aI2
aI0
aI0
aI0
aI8
aI7
asS'Shane Watson'
p2617
(lp2618
I0
aI2
aI0
aI0
aI0
aI0
aI0
aI0
aI2
aI2
assS'Chris Gayle '
p2619
(dp2620
S'MM Sharma'
p2621
(lp2622
I6
aI3
aI2
aI0
aI1
aI0
aI0
aI0
aI11
aI12
asS'Ashish Nehra'
p2623
(lp2624
I6
aI1
aI0
aI0
aI0
aI0
aI1
aI0
aI7
aI8
asS'YK Pathan'
p2625
(lp2626
I2
aI7
aI0
aI0
aI1
aI0
aI2
aI0
aI23
aI12
asS'BE Hendricks'
p2627
(lp2628
I0
aI1
aI1
aI0
aI0
aI0
aI0
aI0
aI3
aI2
asS'TA Boult'
p2629
(lp2630
I3
aI1
aI1
aI0
aI0
aI0
aI1
aI0
aI9
aI6
asS'Harbhajan Singh'
p2631
(lp2632
I4
aI4
aI0
aI0
aI0
aI0
aI0
aI0
aI4
aI8
asS'KC Cariappa'
p2633
(lp2634
I2
aI2
aI0
aI0
aI1
aI0
aI1
aI0
aI12
aI6
asS'Dale Steyn'
p2635
(lp2636
I0
aI1
aI0
aI0
aI1
aI0
aI1
aI0
aI11
aI3
asS'MJ McClenaghan'
p2637
(lp2638
I13
aI4
aI0
aI0
aI0
aI0
aI1
aI0
aI10
aI18
asS'Angelo Mathews'
p2639
(lp2640
I2
aI2
aI0
aI0
aI0
aI0
aI0
aI0
aI2
aI4
asS'Karanveer Singh'
p2641
(lp2642
I0
aI2
aI0
aI0
aI1
aI0
aI2
aI0
aI18
aI5
asS'NM Coulter-Nile'
p2643
(lp2644
I8
aI3
aI1
aI0
aI2
aI0
aI1
aI0
aI19
aI15
asS'Suresh Raina'
p2645
(lp2646
I2
aI4
aI0
aI0
aI0
aI0
aI2
aI0
aI16
aI8
asS'Shikhar Dhawan'
p2647
(lp2648
I0
aI3
aI0
aI0
aI0
aI0
aI0
aI0
aI3
aI3
asS'Jean-Paul Duminy'
p2649
(lp2650
I1
aI1
aI0
aI0
aI1
aI0
aI0
aI0
aI5
aI3
asS'Anureet Singh'
p2651
(lp2652
I5
aI4
aI0
aI0
aI0
aI0
aI0
aI0
aI4
aI9
asS'Morne Morkel'
p2653
(lp2654
I2
aI3
aI0
aI0
aI2
aI0
aI1
aI0
aI17
aI8
asS'Sandeep Sharma'
p2655
(lp2656
I9
aI5
aI0
aI0
aI3
aI0
aI3
aI0
aI35
aI20
asS'James Faulkner'
p2657
(lp2658
I2
aI2
aI0
aI0
aI0
aI0
aI0
aI0
aI2
aI4
asS'Axar Patel'
p2659
(lp2660
I6
aI2
aI0
aI0
aI1
aI0
aI3
aI0
aI24
aI12
asS'Ravichandran Ashwin'
p2661
(lp2662
I9
aI2
aI0
aI0
aI1
aI0
aI0
aI0
aI6
aI12
asS'Andre Russell'
p2663
(lp2664
I0
aI2
aI0
aI0
aI1
aI0
aI0
aI0
aI6
aI3
asS'TG Southee'
p2665
(lp2666
I2
aI0
aI0
aI0
aI1
aI0
aI1
aI0
aI10
aI4
asS'PJ Cummins'
p2667
(lp2668
I0
aI3
aI0
aI0
aI0
aI0
aI0
aI0
aI3
aI3
asS'Imran Tahir'
p2669
(lp2670
I3
aI3
aI0
aI0
aI1
aI0
aI1
aI0
aI13
aI8
asS'Dwayne Bravo'
p2671
(lp2672
I2
aI1
aI0
aI0
aI0
aI0
aI0
aI0
aI1
aI3
asS'DJ Muthuswami'
p2673
(lp2674
I3
aI0
aI0
aI0
aI2
aI0
aI1
aI0
aI14
aI6
asS'Moises Henriques'
p2675
(lp2676
I1
aI0
aI0
aI0
aI0
aI0
aI0
aI0
aI0
aI1
asS'Glenn Maxwell'
p2677
(lp2678
I3
aI3
aI0
aI0
aI0
aI0
aI2
aI0
aI15
aI8
asS'J Yadav'
p2679
(lp2680
I3
aI1
aI0
aI0
aI0
aI0
aI0
aI0
aI1
aI4
asS'UT Yadav'
p2681
(lp2682
I0
aI0
aI0
aI0
aI0
aI0
aI1
aI0
aI6
aI1
asS'Brad Hogg'
p2683
(lp2684
I3
aI0
aI0
aI0
aI0
aI0
aI2
aI0
aI12
aI5
asS'Sunil Narine'
p2685
(lp2686
I8
aI5
aI1
aI0
aI2
aI0
aI0
aI0
aI15
aI16
asS'Shakib Al Hasan'
p2687
(lp2688
I2
aI3
aI0
aI0
aI0
aI0
aI2
aI0
aI15
aI7
asS'Chris Morris'
p2689
(lp2690
I12
aI2
aI0
aI0
aI5
aI0
aI1
aI0
aI28
aI20
asS'Lasith Malinga'
p2691
(lp2692
I18
aI5
aI0
aI0
aI1
aI0
aI0
aI0
aI9
aI24
asS'Jasprit Bumrah'
p2693
(lp2694
I2
aI6
aI2
aI0
aI0
aI0
aI0
aI0
aI10
aI10
asS'Dhawal Kulkarni'
p2695
(lp2696
I8
aI2
aI0
aI0
aI2
aI0
aI1
aI0
aI16
aI13
asS'Bhuvneshwar Kumar'
p2697
(lp2698
I6
aI0
aI0
aI0
aI5
aI0
aI2
aI0
aI32
aI13
asS'Amit Mishra'
p2699
(lp2700
I0
aI3
aI0
aI0
aI0
aI0
aI1
aI0
aI9
aI4
asS'Mitchell Johnson'
p2701
(lp2702
I4
aI2
aI0
aI0
aI3
aI0
aI3
aI0
aI32
aI12
asS'Piyush Chawla'
p2703
(lp2704
I1
aI2
aI0
aI0
aI0
aI0
aI1
aI0
aI8
aI4
asS'Praveen Kumar'
p2705
(lp2706
I2
aI0
aI0
aI0
aI1
aI0
aI0
aI0
aI4
aI3
asS'Zaheer Khan'
p2707
(lp2708
I1
aI0
aI0
aI0
aI0
aI0
aI0
aI0
aI0
aI1
asS'Shane Watson'
p2709
(lp2710
I5
aI1
aI0
aI0
aI0
aI0
aI0
aI0
aI1
aI6
assS'RG More '
p2711
(dp2712
S'Andre Russell'
p2713
(lp2714
I0
aI2
aI0
aI0
aI0
aI0
aI0
aI0
aI2
aI2
assS'Ravindra Jadeja '
p2715
(dp2716
S'YK Pathan'
p2717
(lp2718
I1
aI4
aI0
aI0
aI0
aI0
aI0
aI0
aI4
aI5
asS'TA Boult'
p2719
(lp2720
I1
aI2
aI2
aI0
aI0
aI0
aI0
aI0
aI6
aI5
asS'MJ McClenaghan'
p2721
(lp2722
I1
aI2
aI0
aI0
aI0
aI0
aI1
aI0
aI8
aI4
asS'Jean-Paul Duminy'
p2723
(lp2724
I1
aI3
aI0
aI0
aI0
aI0
aI0
aI0
aI3
aI4
asS'Anureet Singh'
p2725
(lp2726
I1
aI2
aI0
aI0
aI1
aI0
aI0
aI0
aI6
aI4
asS'Sandeep Sharma'
p2727
(lp2728
I0
aI2
aI0
aI0
aI0
aI0
aI0
aI0
aI2
aI2
asS'Mitchell Starc'
p2729
(lp2730
I0
aI2
aI0
aI0
aI0
aI0
aI0
aI0
aI2
aI2
asS'Axar Patel'
p2731
(lp2732
I1
aI1
aI0
aI0
aI0
aI0
aI0
aI0
aI1
aI2
asS'Yuzvendra Chahal'
p2733
(lp2734
I3
aI2
aI0
aI0
aI0
aI0
aI0
aI0
aI2
aI5
asS'PJ Cummins'
p2735
(lp2736
I4
aI6
aI1
aI0
aI0
aI0
aI0
aI0
aI8
aI11
asS'Imran Tahir'
p2737
(lp2738
I1
aI1
aI0
aI0
aI1
aI0
aI0
aI0
aI5
aI3
asS'Kieron Pollard'
p2739
(lp2740
I0
aI2
aI2
aI0
aI1
aI0
aI0
aI0
aI10
aI5
asS'Iqbal Abdulla'
p2741
(lp2742
I2
aI1
aI0
aI0
aI0
aI0
aI0
aI0
aI1
aI3
asS'Harshal Patel'
p2743
(lp2744
I4
aI2
aI2
aI0
aI2
aI0
aI0
aI0
aI14
aI10
asS'Albie Morkel'
p2745
(lp2746
I2
aI1
aI0
aI0
aI0
aI0
aI0
aI0
aI1
aI3
asS'Brad Hogg'
p2747
(lp2748
I5
aI5
aI0
aI0
aI1
aI0
aI1
aI0
aI15
aI12
asS'Lasith Malinga'
p2749
(lp2750
I0
aI4
aI0
aI0
aI0
aI0
aI0
aI0
aI4
aI4
asS'Andre Russell'
p2751
(lp2752
I6
aI4
aI1
aI0
aI0
aI0
aI0
aI0
aI6
aI11
asS'GS Sandhu'
p2753
(lp2754
I1
aI2
aI0
aI0
aI0
aI0
aI0
aI0
aI2
aI3
asS'R Vinay Kumar'
p2755
(lp2756
I0
aI4
aI0
aI0
aI1
aI0
aI0
aI0
aI8
aI5
asS'Bhuvneshwar Kumar'
p2757
(lp2758
I0
aI4
aI1
aI0
aI0
aI0
aI0
aI0
aI6
aI5
asS'Amit Mishra'
p2759
(lp2760
I5
aI2
aI0
aI0
aI0
aI0
aI1
aI0
aI8
aI8
asS'Mitchell Johnson'
p2761
(lp2762
I0
aI0
aI1
aI1
aI1
aI0
aI0
aI0
aI9
aI3
asS'Piyush Chawla'
p2763
(lp2764
I6
aI4
aI1
aI0
aI0
aI0
aI0
aI0
aI6
aI11
asS'Praveen Kumar'
p2765
(lp2766
I1
aI2
aI0
aI0
aI0
aI0
aI0
aI0
aI2
aI3
asS'Zaheer Khan'
p2767
(lp2768
I0
aI1
aI0
aI0
aI0
aI0
aI0
aI0
aI1
aI1
assS'Naman Ojha'
p2769
(dp2770
S'MM Sharma'
p2771
(lp2772
I0
aI1
aI0
aI0
aI2
aI0
aI0
aI0
aI9
aI3
asS'Ashish Nehra'
p2773
(lp2774
I1
aI0
aI0
aI0
aI0
aI0
aI0
aI0
aI0
aI1
asS'RG More'
p2775
(lp2776
I1
aI1
aI0
aI0
aI1
aI0
aI1
aI0
aI11
aI4
asS'BE Hendricks'
p2777
(lp2778
I0
aI1
aI0
aI0
aI0
aI0
aI0
aI0
aI1
aI1
asS'Dhawal Kulkarni'
p2779
(lp2780
I8
aI2
aI0
aI0
aI0
aI0
aI0
aI0
aI2
aI10
asS'Angelo Mathews'
p2781
(lp2782
I2
aI6
aI2
aI0
aI2
aI0
aI0
aI0
aI18
aI12
asS'NM Coulter-Nile'
p2783
(lp2784
I0
aI2
aI0
aI0
aI0
aI0
aI0
aI0
aI2
aI2
asS'Stuart Binny'
p2785
(lp2786
I2
aI6
aI0
aI0
aI0
aI0
aI0
aI0
aI6
aI8
asS'Anureet Singh'
p2787
(lp2788
I6
aI4
aI0
aI0
aI2
aI0
aI0
aI0
aI12
aI12
asS'Morne Morkel'
p2789
(lp2790
I0
aI2
aI0
aI0
aI2
aI0
aI0
aI0
aI10
aI4
asS'James Faulkner'
p2791
(lp2792
I6
aI3
aI0
aI0
aI5
aI0
aI0
aI0
aI23
aI14
asS'PV Tambe'
p2793
(lp2794
I10
aI0
aI4
aI0
aI0
aI0
aI0
aI0
aI8
aI14
asS'Axar Patel'
p2795
(lp2796
I2
aI2
aI1
aI0
aI0
aI0
aI0
aI0
aI4
aI5
asS'TG Southee'
p2797
(lp2798
I4
aI2
aI2
aI0
aI0
aI0
aI0
aI0
aI6
aI8
asS'Imran Tahir'
p2799
(lp2800
I2
aI4
aI0
aI0
aI0
aI0
aI0
aI0
aI4
aI6
asS'Dwayne Bravo'
p2801
(lp2802
I5
aI1
aI1
aI0
aI0
aI0
aI0
aI0
aI3
aI7
asS'M Vijay'
p2803
(lp2804
I0
aI3
aI0
aI0
aI0
aI0
aI0
aI0
aI3
aI3
asS'Shikhar Dhawan'
p2805
(lp2806
I1
aI2
aI0
aI0
aI1
aI0
aI0
aI0
aI6
aI4
asS'J Suchith'
p2807
(lp2808
I3
aI2
aI2
aI0
aI0
aI0
aI0
aI0
aI6
aI7
asS'UT Yadav'
p2809
(lp2810
I9
aI2
aI0
aI0
aI0
aI0
aI4
aI0
aI26
aI15
asS'Chris Morris'
p2811
(lp2812
I9
aI4
aI0
aI0
aI2
aI0
aI0
aI0
aI12
aI15
asS'R Vinay Kumar'
p2813
(lp2814
I0
aI3
aI0
aI0
aI0
aI0
aI0
aI0
aI3
aI3
asS'Ravichandran Ashwin'
p2815
(lp2816
I2
aI3
aI1
aI0
aI0
aI0
aI1
aI0
aI11
aI7
asS'Mitchell Johnson'
p2817
(lp2818
I1
aI2
aI1
aI0
aI0
aI0
aI0
aI0
aI4
aI4
asS'IC Pandey'
p2819
(lp2820
I0
aI1
aI0
aI0
aI0
aI0
aI0
aI0
aI1
aI1
asS'Shane Watson'
p2821
(lp2822
I0
aI1
aI0
aI0
aI0
aI0
aI0
aI0
aI1
aI1
assS'Unmukt Chand'
p2823
(dp2824
S'Stuart Binny'
p2825
(lp2826
I0
aI3
aI0
aI0
aI0
aI0
aI0
aI0
aI3
aI3
asS'Iqbal Abdulla'
p2827
(lp2828
I6
aI6
aI2
aI0
aI4
aI0
aI2
aI0
aI38
aI20
asS'DJ Hooda'
p2829
(lp2830
I2
aI4
aI0
aI0
aI0
aI0
aI0
aI0
aI4
aI6
asS'Varun Aaron'
p2831
(lp2832
I2
aI0
aI0
aI0
aI0
aI0
aI0
aI0
aI0
aI2
asS'D Wiese'
p2833
(lp2834
I2
aI8
aI0
aI0
aI8
aI0
aI0
aI0
aI40
aI18
asS'TG Southee'
p2835
(lp2836
I12
aI0
aI0
aI0
aI2
aI0
aI0
aI0
aI8
aI14
asS'DJ Muthuswami'
p2837
(lp2838
I2
aI0
aI1
aI0
aI0
aI0
aI0
aI0
aI2
aI3
asS'Dhawal Kulkarni'
p2839
(lp2840
I5
aI2
aI0
aI0
aI0
aI0
aI0
aI0
aI2
aI7
asS'AN Ahmed'
p2841
(lp2842
I0
aI2
aI0
aI0
aI0
aI0
aI0
aI0
aI2
aI2
asS'James Faulkner'
p2843
(lp2844
I2
aI0
aI0
aI0
aI0
aI0
aI0
aI0
aI0
aI2
asS'PV Tambe'
p2845
(lp2846
I2
aI2
aI4
aI0
aI0
aI0
aI0
aI0
aI10
aI8
asS'Amit Mishra'
p2847
(lp2848
I1
aI2
aI0
aI0
aI2
aI0
aI0
aI0
aI10
aI5
asS'Dale Steyn'
p2849
(lp2850
I1
aI0
aI0
aI0
aI1
aI0
aI0
aI0
aI4
aI2
asS'Ankit Sharma'
p2851
(lp2852
I0
aI2
aI0
aI0
aI1
aI0
aI0
aI0
aI6
aI3
asS'Yuzvendra Chahal'
p2853
(lp2854
I18
aI8
aI0
aI0
aI4
aI0
aI2
aI0
aI36
aI32
asS'Praveen Kumar'
p2855
(lp2856
I1
aI1
aI0
aI0
aI0
aI0
aI0
aI0
aI1
aI2
asS'S Nadeem'
p2857
(lp2858
I1
aI2
aI0
aI0
aI0
aI0
aI0
aI0
aI2
aI3
asS'Shane Watson'
p2859
(lp2860
I2
aI2
aI1
aI0
aI0
aI0
aI0
aI0
aI4
aI5
assS'Gautam Gambhir'
p2861
(dp2862
S'MM Sharma'
p2863
(lp2864
I5
aI2
aI0
aI0
aI0
aI0
aI1
aI0
aI8
aI8
asS'Ashish Nehra'
p2865
(lp2866
I3
aI3
aI1
aI0
aI0
aI0
aI1
aI0
aI11
aI8
asS'D Wiese'
p2867
(lp2868
I2
aI1
aI0
aI0
aI1
aI0
aI0
aI0
aI5
aI4
asS'BE Hendricks'
p2869
(lp2870
I1
aI1
aI0
aI0
aI1
aI0
aI0
aI0
aI5
aI3
asS'DJ Muthuswami'
p2871
(lp2872
I14
aI2
aI0
aI0
aI6
aI0
aI0
aI0
aI26
aI22
asS'Pragyan Ojha'
p2873
(lp2874
I1
aI4
aI2
aI0
aI0
aI0
aI1
aI0
aI14
aI8
asS'Harbhajan Singh'
p2875
(lp2876
I4
aI9
aI2
aI0
aI6
aI0
aI0
aI0
aI37
aI21
asS'AN Ahmed'
p2877
(lp2878
I2
aI5
aI0
aI0
aI1
aI0
aI0
aI0
aI9
aI8
asS'MJ McClenaghan'
p2879
(lp2880
I3
aI2
aI0
aI0
aI1
aI0
aI0
aI0
aI6
aI6
asS'Angelo Mathews'
p2881
(lp2882
I4
aI12
aI0
aI0
aI10
aI0
aI0
aI0
aI52
aI26
asS'NM Coulter-Nile'
p2883
(lp2884
I2
aI10
aI0
aI0
aI0
aI0
aI0
aI0
aI10
aI12
asS'Gurkeerat Singh'
p2885
(lp2886
I3
aI2
aI0
aI0
aI0
aI0
aI0
aI0
aI2
aI5
asS'Jean-Paul Duminy'
p2887
(lp2888
I0
aI3
aI0
aI0
aI2
aI0
aI0
aI0
aI11
aI5
asS'Anureet Singh'
p2889
(lp2890
I10
aI2
aI0
aI0
aI3
aI0
aI0
aI0
aI14
aI15
asS'Varun Aaron'
p2891
(lp2892
I7
aI3
aI1
aI0
aI3
aI0
aI0
aI0
aI17
aI14
asS'Sandeep Sharma'
p2893
(lp2894
I16
aI4
aI2
aI0
aI2
aI0
aI0
aI0
aI16
aI24
asS'Corey Anderson'
p2895
(lp2896
I1
aI1
aI0
aI0
aI0
aI0
aI0
aI0
aI1
aI2
asS'Mitchell Starc'
p2897
(lp2898
I0
aI1
aI0
aI0
aI1
aI0
aI0
aI0
aI5
aI2
asS'Axar Patel'
p2899
(lp2900
I3
aI1
aI0
aI0
aI0
aI0
aI0
aI0
aI1
aI4
asS'KV Sharma'
p2901
(lp2902
I1
aI0
aI1
aI0
aI0
aI0
aI0
aI0
aI2
aI2
asS'Glenn Maxwell'
p2903
(lp2904
I0
aI2
aI0
aI0
aI0
aI0
aI0
aI0
aI2
aI2
asS'Yuzvendra Chahal'
p2905
(lp2906
I3
aI3
aI2
aI0
aI1
aI0
aI0
aI0
aI11
aI9
asS'SA Abbott'
p2907
(lp2908
I1
aI3
aI0
aI0
aI1
aI0
aI1
aI0
aI13
aI6
asS'Imran Tahir'
p2909
(lp2910
I8
aI16
aI0
aI0
aI0
aI0
aI0
aI0
aI16
aI24
asS'Harshal Patel'
p2911
(lp2912
I3
aI4
aI0
aI0
aI0
aI0
aI0
aI0
aI4
aI7
asS'Moises Henriques'
p2913
(lp2914
I2
aI1
aI0
aI0
aI1
aI0
aI0
aI0
aI5
aI4
asS'Albie Morkel'
p2915
(lp2916
I0
aI1
aI0
aI0
aI0
aI0
aI0
aI0
aI1
aI1
asS'Darren Sammy'
p2917
(lp2918
I1
aI2
aI0
aI0
aI1
aI0
aI0
aI0
aI6
aI4
asS'J Suchith'
p2919
(lp2920
I1
aI3
aI2
aI0
aI1
aI0
aI0
aI0
aI11
aI7
asS'Chris Morris'
p2921
(lp2922
I2
aI1
aI0
aI0
aI0
aI0
aI0
aI0
aI1
aI3
asS'Lasith Malinga'
p2923
(lp2924
I4
aI2
aI1
aI0
aI1
aI0
aI0
aI0
aI8
aI8
asS'NLTC Perera'
p2925
(lp2926
I0
aI4
aI0
aI0
aI0
aI0
aI0
aI0
aI4
aI4
asS'IC Pandey'
p2927
(lp2928
I1
aI0
aI0
aI0
aI0
aI0
aI0
aI0
aI0
aI1
asS'Jasprit Bumrah'
p2929
(lp2930
I3
aI1
aI0
aI0
aI1
aI0
aI0
aI0
aI5
aI5
asS'R Vinay Kumar'
p2931
(lp2932
I8
aI5
aI0
aI0
aI2
aI0
aI0
aI0
aI13
aI15
asS'Bhuvneshwar Kumar'
p2933
(lp2934
I2
aI6
aI0
aI0
aI2
aI0
aI0
aI0
aI14
aI10
asS'Amit Mishra'
p2935
(lp2936
I0
aI10
aI2
aI0
aI0
aI0
aI0
aI0
aI14
aI12
asS'Mitchell Johnson'
p2937
(lp2938
I2
aI2
aI0
aI0
aI0
aI0
aI0
aI0
aI2
aI4
asS'Praveen Kumar'
p2939
(lp2940
I2
aI1
aI0
aI0
aI0
aI0
aI0
aI0
aI1
aI3
asS'Zaheer Khan'
p2941
(lp2942
I4
aI2
aI0
aI0
aI0
aI0
aI0
aI0
aI2
aI6
asS'Dale Steyn'
p2943
(lp2944
I11
aI5
aI2
aI0
aI2
aI0
aI0
aI0
aI17
aI20
assS'MM Sharma '
p2945
(dp2946
S'Lasith Malinga'
p2947
(lp2948
I0
aI2
aI0
aI0
aI0
aI0
aI0
aI0
aI2
aI2
asS'NM Coulter-Nile'
p2949
(lp2950
I0
aI0
aI1
aI0
aI0
aI0
aI0
aI0
aI2
aI1
asS'D Wiese'
p2951
(lp2952
I0
aI4
aI0
aI0
aI0
aI0
aI0
aI0
aI4
aI4
asS'R Vinay Kumar'
p2953
(lp2954
I0
aI0
aI2
aI0
aI1
aI0
aI2
aI0
aI20
aI5
asS'Mitchell Starc'
p2955
(lp2956
I8
aI0
aI0
aI0
aI0
aI0
aI0
aI0
aI0
aI8
asS'MJ McClenaghan'
p2957
(lp2958
I1
aI2
aI0
aI0
aI0
aI0
aI0
aI0
aI2
aI3
asS'Andre Russell'
p2959
(lp2960
I1
aI0
aI0
aI0
aI0
aI0
aI0
aI0
aI0
aI1
assS'Shane Watson '
p2961
(dp2962
S'MM Sharma'
p2963
(lp2964
I13
aI9
aI4
aI1
aI4
aI0
aI0
aI0
aI36
aI31
asS'Ashish Nehra'
p2965
(lp2966
I11
aI11
aI2
aI0
aI3
aI0
aI0
aI0
aI27
aI27
asS'Shivam Sharma'
p2967
(lp2968
I0
aI0
aI0
aI0
aI6
aI0
aI2
aI0
aI36
aI8
asS'Pawan Negi'
p2969
(lp2970
I1
aI4
aI0
aI0
aI1
aI0
aI0
aI0
aI8
aI6
asS'Harbhajan Singh'
p2971
(lp2972
I0
aI1
aI0
aI0
aI0
aI0
aI0
aI0
aI1
aI1
asS'I Sharma'
p2973
(lp2974
I2
aI0
aI0
aI0
aI0
aI0
aI0
aI0
aI0
aI2
asS'MJ McClenaghan'
p2975
(lp2976
I2
aI3
aI0
aI0
aI0
aI0
aI1
aI0
aI9
aI6
asS'Angelo Mathews'
p2977
(lp2978
I1
aI0
aI0
aI0
aI1
aI0
aI0
aI0
aI4
aI2
asS'NM Coulter-Nile'
p2979
(lp2980
I3
aI2
aI0
aI0
aI1
aI0
aI0
aI0
aI6
aI6
asS'Anureet Singh'
p2981
(lp2982
I6
aI4
aI0
aI2
aI4
aI0
aI0
aI0
aI26
aI16
asS'Morne Morkel'
p2983
(lp2984
I2
aI5
aI1
aI0
aI0
aI0
aI1
aI0
aI13
aI9
asS'Azhar Mahmood'
p2985
(lp2986
I3
aI3
aI0
aI0
aI4
aI0
aI1
aI0
aI25
aI11
asS'Sandeep Sharma'
p2987
(lp2988
I16
aI4
aI0
aI0
aI0
aI0
aI0
aI0
aI4
aI20
asS'Mitchell Starc'
p2989
(lp2990
I5
aI2
aI0
aI0
aI5
aI0
aI0
aI0
aI22
aI12
asS'Axar Patel'
p2991
(lp2992
I4
aI6
aI0
aI0
aI0
aI0
aI2
aI0
aI18
aI12
asS'S Aravind'
p2993
(lp2994
I1
aI1
aI0
aI0
aI0
aI0
aI0
aI0
aI1
aI2
asS'Yuzvendra Chahal'
p2995
(lp2996
I2
aI0
aI0
aI0
aI1
aI0
aI1
aI0
aI10
aI4
asS'Ravindra Jadeja'
p2997
(lp2998
I11
aI13
aI2
aI0
aI0
aI0
aI4
aI0
aI41
aI30
asS'Dwayne Bravo'
p2999
(lp3000
I2
aI4
aI0
aI0
aI4
aI0
aI2
aI0
aI32
aI12
asS'Iqbal Abdulla'
p3001
(lp3002
I5
aI2
aI0
aI0
aI0
aI0
aI0
aI0
aI2
aI7
asS'Harshal Patel'
p3003
(lp3004
I1
aI1
aI0
aI0
aI0
aI0
aI0
aI0
aI1
aI2
asS'J Suchith'
p3005
(lp3006
I8
aI1
aI0
aI0
aI1
aI0
aI1
aI0
aI11
aI11
asS'UT Yadav'
p3007
(lp3008
I1
aI8
aI1
aI0
aI3
aI0
aI0
aI0
aI22
aI13
asS'Shakib Al Hasan'
p3009
(lp3010
I4
aI4
aI2
aI0
aI2
aI0
aI2
aI0
aI28
aI14
asS'Lasith Malinga'
p3011
(lp3012
I0
aI1
aI0
aI0
aI0
aI0
aI0
aI0
aI1
aI1
asS'Andre Russell'
p3013
(lp3014
I2
aI6
aI1
aI0
aI0
aI0
aI0
aI0
aI8
aI9
asS'IC Pandey'
p3015
(lp3016
I4
aI2
aI0
aI0
aI2
aI0
aI0
aI0
aI10
aI8
asS'GS Sandhu'
p3017
(lp3018
I0
aI1
aI0
aI0
aI0
aI0
aI0
aI0
aI1
aI1
asS'R Vinay Kumar'
p3019
(lp3020
I1
aI2
aI0
aI0
aI1
aI0
aI0
aI0
aI6
aI4
asS'Bhuvneshwar Kumar'
p3021
(lp3022
I2
aI0
aI0
aI0
aI2
aI0
aI0
aI0
aI8
aI4
asS'Ravichandran Ashwin'
p3023
(lp3024
I0
aI8
aI0
aI0
aI0
aI0
aI2
aI0
aI20
aI10
asS'Mitchell Johnson'
p3025
(lp3026
I8
aI6
aI0
aI0
aI0
aI0
aI0
aI0
aI6
aI14
asS'Piyush Chawla'
p3027
(lp3028
I0
aI2
aI0
aI0
aI0
aI0
aI1
aI0
aI8
aI3
asS'Praveen Kumar'
p3029
(lp3030
I5
aI0
aI0
aI0
aI1
aI0
aI0
aI0
aI4
aI6
asS'Zaheer Khan'
p3031
(lp3032
I12
aI0
aI1
aI0
aI2
aI0
aI0
aI0
aI10
aI15
assS'Harshal Patel '
p3033
(dp3034
S'MM Sharma'
p3035
(lp3036
I0
aI1
aI0
aI0
aI0
aI0
aI0
aI0
aI1
aI1
asS'Dwayne Bravo'
p3037
(lp3038
I0
aI1
aI0
aI0
aI0
aI0
aI0
aI0
aI1
aI1
asS'Morne Morkel'
p3039
(lp3040
I0
aI1
aI1
aI0
aI0
aI0
aI0
aI0
aI3
aI2
asS'TA Boult'
p3041
(lp3042
I1
aI0
aI1
aI0
aI0
aI0
aI0
aI0
aI2
aI2
asS'Ashish Nehra'
p3043
(lp3044
I3
aI0
aI0
aI0
aI0
aI0
aI0
aI0
aI0
aI3
asS'Sunil Narine'
p3045
(lp3046
I1
aI0
aI0
aI0
aI0
aI0
aI1
aI0
aI6
aI2
asS'TG Southee'
p3047
(lp3048
I1
aI0
aI0
aI0
aI0
aI0
aI1
aI0
aI6
aI2
assS'Dale Steyn '
p3049
(dp3050
S'Lasith Malinga'
p3051
(lp3052
I1
aI1
aI0
aI0
aI0
aI0
aI0
aI0
aI1
aI2
asS'Kieron Pollard'
p3053
(lp3054
I1
aI2
aI1
aI0
aI1
aI0
aI0
aI0
aI8
aI5
asS'Andre Russell'
p3055
(lp3056
I0
aI1
aI0
aI0
aI0
aI0
aI0
aI0
aI1
aI1
asS'R Vinay Kumar'
p3057
(lp3058
I1
aI2
aI0
aI0
aI2
aI0
aI0
aI0
aI10
aI5
assS'AJ Finch '
p3059
(dp3060
S'Stuart Binny'
p3061
(lp3062
I2
aI2
aI0
aI0
aI0
aI0
aI0
aI0
aI2
aI4
asS'Anureet Singh'
p3063
(lp3064
I3
aI0
aI1
aI0
aI1
aI0
aI0
aI0
aI6
aI5
asS'Morne Morkel'
p3065
(lp3066
I2
aI0
aI0
aI0
aI1
aI0
aI0
aI0
aI4
aI3
asS'Dhawal Kulkarni'
p3067
(lp3068
I8
aI0
aI0
aI0
aI0
aI0
aI0
aI0
aI0
aI8
asS'Sandeep Sharma'
p3069
(lp3070
I5
aI2
aI0
aI0
aI0
aI0
aI0
aI0
aI2
aI7
asS'UT Yadav'
p3071
(lp3072
I1
aI1
aI0
aI0
aI0
aI0
aI0
aI0
aI1
aI2
asS'Mitchell Johnson'
p3073
(lp3074
I2
aI0
aI0
aI0
aI0
aI0
aI0
aI0
aI0
aI2
asS'Chris Morris'
p3075
(lp3076
I4
aI0
aI0
aI0
aI2
aI0
aI0
aI0
aI8
aI6
asS'TG Southee'
p3077
(lp3078
I6
aI2
aI0
aI0
aI2
aI0
aI0
aI0
aI10
aI10
assS'RS Bopara '
p3079
(dp3080
S'Harbhajan Singh'
p3081
(lp3082
I4
aI3
aI1
aI0
aI0
aI0
aI0
aI0
aI5
aI8
asS'MJ McClenaghan'
p3083
(lp3084
I3
aI3
aI1
aI0
aI0
aI0
aI0
aI0
aI5
aI7
asS'Angelo Mathews'
p3085
(lp3086
I2
aI4
aI0
aI0
aI0
aI0
aI0
aI0
aI4
aI6
asS'Jean-Paul Duminy'
p3087
(lp3088
I2
aI7
aI0
aI0
aI0
aI0
aI2
aI0
aI19
aI11
asS'NM Coulter-Nile'
p3089
(lp3090
I6
aI0
aI0
aI0
aI2
aI0
aI2
aI0
aI20
aI10
asS'Morne Morkel'
p3091
(lp3092
I4
aI2
aI0
aI0
aI0
aI0
aI0
aI0
aI2
aI6
asS'James Faulkner'
p3093
(lp3094
I3
aI2
aI0
aI0
aI2
aI0
aI0
aI0
aI10
aI7
asS'PV Tambe'
p3095
(lp3096
I6
aI8
aI2
aI0
aI0
aI0
aI2
aI0
aI24
aI18
asS'Ravichandran Ashwin'
p3097
(lp3098
I3
aI2
aI0
aI0
aI0
aI0
aI0
aI0
aI2
aI5
asS'TG Southee'
p3099
(lp3100
I0
aI4
aI0
aI0
aI0
aI0
aI0
aI0
aI4
aI4
asS'Ravindra Jadeja'
p3101
(lp3102
I0
aI1
aI0
aI0
aI0
aI0
aI2
aI0
aI13
aI3
asS'DJ Hooda'
p3103
(lp3104
I0
aI4
aI2
aI0
aI0
aI0
aI0
aI0
aI8
aI6
asS'Imran Tahir'
p3105
(lp3106
I4
aI10
aI0
aI2
aI0
aI0
aI2
aI0
aI28
aI18
asS'Dwayne Bravo'
p3107
(lp3108
I1
aI1
aI0
aI0
aI0
aI0
aI0
aI0
aI1
aI2
asS'Albie Morkel'
p3109
(lp3110
I0
aI3
aI2
aI0
aI1
aI0
aI0
aI0
aI11
aI6
asS'J Suchith'
p3111
(lp3112
I0
aI3
aI0
aI0
aI1
aI0
aI0
aI0
aI7
aI4
asS'Sunil Narine'
p3113
(lp3114
I0
aI2
aI0
aI0
aI0
aI0
aI0
aI0
aI2
aI2
asS'Chris Morris'
p3115
(lp3116
I6
aI6
aI0
aI0
aI2
aI0
aI0
aI0
aI14
aI14
asS'Lasith Malinga'
p3117
(lp3118
I1
aI2
aI1
aI0
aI0
aI0
aI0
aI0
aI4
aI4
asS'R Vinay Kumar'
p3119
(lp3120
I2
aI2
aI0
aI0
aI0
aI0
aI0
aI0
aI2
aI4
asS'Yuvraj Singh'
p3121
(lp3122
I0
aI4
aI0
aI0
aI0
aI0
aI0
aI0
aI4
aI4
asS'Amit Mishra'
p3123
(lp3124
I4
aI9
aI1
aI0
aI0
aI0
aI0
aI0
aI11
aI14
asS'Mitchell Johnson'
p3125
(lp3126
I2
aI0
aI0
aI0
aI0
aI0
aI0
aI0
aI0
aI2
asS'IC Pandey'
p3127
(lp3128
I1
aI2
aI2
aI0
aI0
aI0
aI0
aI0
aI6
aI5
asS'Zaheer Khan'
p3129
(lp3130
I0
aI2
aI0
aI0
aI0
aI0
aI0
aI0
aI2
aI2
asS'Shane Watson'
p3131
(lp3132
I0
aI0
aI0
aI1
aI0
aI0
aI0
aI0
aI3
aI1
assS'Shakib Al Hasan '
p3133
(dp3134
S'Varun Aaron'
p3135
(lp3136
I1
aI0
aI0
aI0
aI0
aI0
aI0
aI0
aI0
aI1
asS'Dhawal Kulkarni'
p3137
(lp3138
I0
aI1
aI0
aI0
aI2
aI0
aI0
aI0
aI9
aI3
asS'R Vinay Kumar'
p3139
(lp3140
I1
aI0
aI1
aI0
aI0
aI0
aI0
aI0
aI2
aI2
asS'Harbhajan Singh'
p3141
(lp3142
I1
aI2
aI0
aI0
aI1
aI0
aI0
aI0
aI6
aI4
asS'James Faulkner'
p3143
(lp3144
I1
aI3
aI0
aI0
aI0
aI0
aI0
aI0
aI3
aI4
asS'MJ McClenaghan'
p3145
(lp3146
I1
aI2
aI0
aI0
aI1
aI0
aI0
aI0
aI6
aI4
asS'HH Pandya'
p3147
(lp3148
I1
aI1
aI2
aI0
aI1
aI0
aI0
aI0
aI9
aI5
asS'Chris Morris'
p3149
(lp3150
I3
aI0
aI0
aI0
aI0
aI0
aI0
aI0
aI0
aI3
asS'Shane Watson'
p3151
(lp3152
I0
aI1
aI0
aI0
aI0
aI0
aI0
aI0
aI1
aI1
assS'Ravichandran Ashwin '
p3153
(dp3154
S'Imran Tahir'
p3155
(lp3156
I0
aI1
aI3
aI0
aI0
aI0
aI0
aI0
aI7
aI4
asS'Lasith Malinga'
p3157
(lp3158
I1
aI5
aI1
aI0
aI2
aI0
aI0
aI0
aI15
aI9
asS'Iqbal Abdulla'
p3159
(lp3160
I0
aI2
aI0
aI0
aI0
aI0
aI0
aI0
aI2
aI2
asS'D Wiese'
p3161
(lp3162
I2
aI0
aI0
aI0
aI2
aI0
aI0
aI0
aI8
aI4
asS'Harshal Patel'
p3163
(lp3164
I0
aI1
aI0
aI0
aI0
aI0
aI0
aI0
aI1
aI1
asS'DJ Muthuswami'
p3165
(lp3166
I2
aI0
aI0
aI0
aI0
aI0
aI0
aI0
aI0
aI2
asS'R Vinay Kumar'
p3167
(lp3168
I0
aI2
aI0
aI0
aI0
aI0
aI0
aI0
aI2
aI2
asS'UT Yadav'
p3169
(lp3170
I0
aI1
aI0
aI0
aI2
aI0
aI0
aI0
aI9
aI3
asS'Brad Hogg'
p3171
(lp3172
I1
aI0
aI0
aI0
aI0
aI0
aI0
aI0
aI0
aI1
asS'MJ McClenaghan'
p3173
(lp3174
I2
aI2
aI0
aI0
aI0
aI0
aI1
aI0
aI8
aI5
asS'NM Coulter-Nile'
p3175
(lp3176
I0
aI1
aI0
aI0
aI1
aI0
aI0
aI0
aI5
aI2
assS'Yuvraj Singh '
p3177
(dp3178
S'MM Sharma'
p3179
(lp3180
I0
aI1
aI2
aI0
aI1
aI0
aI0
aI0
aI9
aI4
asS'YK Pathan'
p3181
(lp3182
I0
aI4
aI0
aI0
aI0
aI0
aI0
aI0
aI4
aI4
asS'D Wiese'
p3183
(lp3184
I3
aI2
aI2
aI0
aI0
aI0
aI0
aI0
aI6
aI7
asS'Dhawal Kulkarni'
p3185
(lp3186
I1
aI1
aI0
aI0
aI3
aI0
aI0
aI0
aI13
aI5
asS'Pawan Negi'
p3187
(lp3188
I1
aI2
aI0
aI0
aI1
aI0
aI0
aI0
aI6
aI4
asS'Harbhajan Singh'
p3189
(lp3190
I8
aI3
aI1
aI0
aI0
aI0
aI0
aI0
aI5
aI12
asS'Dale Steyn'
p3191
(lp3192
I6
aI6
aI2
aI0
aI0
aI0
aI0
aI0
aI10
aI14
asS'MJ McClenaghan'
p3193
(lp3194
I1
aI5
aI0
aI0
aI0
aI0
aI2
aI0
aI17
aI8
asS'Suresh Raina'
p3195
(lp3196
I0
aI2
aI0
aI0
aI0
aI0
aI0
aI0
aI2
aI2
asS'Shikhar Dhawan'
p3197
(lp3198
I6
aI6
aI2
aI0
aI2
aI0
aI0
aI0
aI18
aI16
asS'Anureet Singh'
p3199
(lp3200
I4
aI2
aI0
aI0
aI0
aI0
aI2
aI0
aI14
aI8
asS'Morne Morkel'
p3201
(lp3202
I4
aI2
aI0
aI0
aI0
aI0
aI2
aI0
aI14
aI8
asS'Sandeep Sharma'
p3203
(lp3204
I8
aI2
aI0
aI0
aI2
aI0
aI0
aI0
aI10
aI12
asS'James Faulkner'
p3205
(lp3206
I3
aI5
aI1
aI0
aI0
aI0
aI2
aI0
aI19
aI11
asS'A Ashish Reddy'
p3207
(lp3208
I2
aI0
aI0
aI0
aI0
aI0
aI0
aI0
aI0
aI2
asS'Axar Patel'
p3209
(lp3210
I8
aI4
aI2
aI0
aI0
aI0
aI4
aI0
aI32
aI18
asS'Parvez Rasool'
p3211
(lp3212
I3
aI1
aI0
aI0
aI0
aI0
aI0
aI0
aI1
aI4
asS'KV Sharma'
p3213
(lp3214
I2
aI1
aI0
aI0
aI0
aI0
aI0
aI0
aI1
aI3
asS'RS Bopara'
p3215
(lp3216
I2
aI6
aI0
aI0
aI0
aI0
aI0
aI0
aI6
aI8
asS'Yuzvendra Chahal'
p3217
(lp3218
I2
aI1
aI0
aI0
aI0
aI0
aI1
aI0
aI7
aI4
asS'TG Southee'
p3219
(lp3220
I0
aI2
aI1
aI0
aI0
aI0
aI0
aI0
aI4
aI3
asS'Ravindra Jadeja'
p3221
(lp3222
I4
aI3
aI0
aI0
aI1
aI0
aI0
aI0
aI7
aI8
asS'DJ Hooda'
p3223
(lp3224
I2
aI4
aI1
aI0
aI0
aI0
aI0
aI0
aI6
aI7
asS'Dwayne Bravo'
p3225
(lp3226
I2
aI0
aI0
aI0
aI0
aI0
aI0
aI0
aI0
aI2
asS'Varun Aaron'
p3227
(lp3228
I1
aI0
aI0
aI0
aI0
aI0
aI0
aI0
aI0
aI1
asS'Glenn Maxwell'
p3229
(lp3230
I0
aI4
aI0
aI0
aI0
aI0
aI0
aI0
aI4
aI4
asS'J Suchith'
p3231
(lp3232
I0
aI3
aI0
aI0
aI1
aI0
aI0
aI0
aI7
aI4
asS'Sunil Narine'
p3233
(lp3234
I4
aI2
aI0
aI0
aI0
aI0
aI0
aI0
aI2
aI6
asS'HH Pandya'
p3235
(lp3236
I5
aI2
aI0
aI0
aI1
aI0
aI0
aI0
aI6
aI8
asS'Chris Morris'
p3237
(lp3238
I1
aI1
aI0
aI0
aI0
aI0
aI0
aI0
aI1
aI2
asS'Lasith Malinga'
p3239
(lp3240
I6
aI4
aI0
aI0
aI5
aI0
aI0
aI0
aI24
aI15
asS'IC Pandey'
p3241
(lp3242
I5
aI1
aI0
aI0
aI2
aI0
aI0
aI0
aI9
aI8
asS'Jasprit Bumrah'
p3243
(lp3244
I1
aI0
aI0
aI0
aI0
aI0
aI0
aI0
aI0
aI1
asS'Ravichandran Ashwin'
p3245
(lp3246
I3
aI2
aI0
aI0
aI0
aI0
aI1
aI0
aI8
aI6
asS'Mitchell Johnson'
p3247
(lp3248
I8
aI6
aI0
aI0
aI6
aI0
aI0
aI0
aI30
aI20
asS'Piyush Chawla'
p3249
(lp3250
I13
aI6
aI0
aI0
aI4
aI0
aI0
aI0
aI22
aI23
asS'Praveen Kumar'
p3251
(lp3252
I0
aI2
aI0
aI0
aI0
aI0
aI0
aI0
aI2
aI2
asS'Shane Watson'
p3253
(lp3254
I4
aI2
aI0
aI0
aI1
aI0
aI0
aI0
aI6
aI7
assS'Gurkeerat Singh '
p3255
(dp3256
S'Ashish Nehra'
p3257
(lp3258
I3
aI1
aI0
aI0
aI1
aI0
aI0
aI0
aI5
aI5
asS'Andre Russell'
p3259
(lp3260
I1
aI0
aI0
aI0
aI0
aI0
aI0
aI0
aI0
aI1
asS'Brad Hogg'
p3261
(lp3262
I2
aI2
aI0
aI0
aI0
aI0
aI0
aI0
aI2
aI4
asS'Moises Henriques'
p3263
(lp3264
I2
aI1
aI0
aI0
aI0
aI0
aI0
aI0
aI1
aI3
asS'UT Yadav'
p3265
(lp3266
I2
aI4
aI0
aI0
aI0
aI0
aI0
aI0
aI4
aI6
asS'Mitchell Starc'
p3267
(lp3268
I1
aI1
aI0
aI0
aI0
aI0
aI0
aI0
aI1
aI2
asS'Sunil Narine'
p3269
(lp3270
I4
aI2
aI0
aI0
aI0
aI0
aI0
aI0
aI2
aI6
asS'KV Sharma'
p3271
(lp3272
I0
aI2
aI0
aI0
aI0
aI0
aI0
aI0
aI2
aI2
asS'Ravichandran Ashwin'
p3273
(lp3274
I3
aI1
aI0
aI0
aI1
aI0
aI0
aI0
aI5
aI5
asS'Yuzvendra Chahal'
p3275
(lp3276
I0
aI1
aI0
aI0
aI0
aI0
aI0
aI0
aI1
aI1
asS'IC Pandey'
p3277
(lp3278
I2
aI1
aI0
aI0
aI1
aI0
aI0
aI0
aI5
aI4
asS'Piyush Chawla'
p3279
(lp3280
I2
aI6
aI0
aI0
aI0
aI0
aI2
aI0
aI18
aI10
assS'Piyush Chawla '
p3281
(dp3282
S'Imran Tahir'
p3283
(lp3284
I1
aI1
aI2
aI0
aI0
aI0
aI0
aI0
aI5
aI4
asS'Lasith Malinga'
p3285
(lp3286
I3
aI0
aI0
aI0
aI0
aI0
aI0
aI0
aI0
aI3
asS'Dwayne Bravo'
p3287
(lp3288
I2
aI0
aI0
aI0
aI0
aI0
aI0
aI0
aI0
aI2
asS'Anureet Singh'
p3289
(lp3290
I2
aI0
aI0
aI0
aI0
aI0
aI1
aI0
aI6
aI3
asS'Albie Morkel'
p3291
(lp3292
I2
aI1
aI0
aI0
aI0
aI0
aI0
aI0
aI1
aI3
asS'BE Hendricks'
p3293
(lp3294
I1
aI1
aI0
aI0
aI2
aI0
aI0
aI0
aI9
aI4
asS'Sandeep Sharma'
p3295
(lp3296
I1
aI2
aI0
aI0
aI0
aI0
aI0
aI0
aI2
aI3
asS'Kieron Pollard'
p3297
(lp3298
I3
aI0
aI0
aI0
aI0
aI0
aI0
aI0
aI0
aI3
asS'Bhuvneshwar Kumar'
p3299
(lp3300
I0
aI2
aI0
aI0
aI0
aI0
aI0
aI0
aI2
aI2
asS'Yuvraj Singh'
p3301
(lp3302
I2
aI4
aI0
aI0
aI0
aI0
aI0
aI0
aI4
aI6
asS'Axar Patel'
p3303
(lp3304
I0
aI1
aI0
aI0
aI0
aI0
aI0
aI0
aI1
aI1
asS'Mitchell Johnson'
p3305
(lp3306
I0
aI0
aI0
aI0
aI2
aI0
aI0
aI0
aI8
aI2
asS'MJ McClenaghan'
p3307
(lp3308
I0
aI1
aI0
aI0
aI0
aI0
aI0
aI0
aI1
aI1
asS'Angelo Mathews'
p3309
(lp3310
I2
aI2
aI0
aI0
aI1
aI0
aI1
aI0
aI12
aI6
asS'Shane Watson'
p3311
(lp3312
I1
aI0
aI0
aI0
aI0
aI0
aI0
aI0
aI0
aI1
asS'Dale Steyn'
p3313
(lp3314
I0
aI3
aI0
aI0
aI1
aI0
aI0
aI0
aI7
aI4
assS'A Ashish Reddy '
p3315
(dp3316
S'Imran Tahir'
p3317
(lp3318
I0
aI4
aI0
aI0
aI0
aI0
aI0
aI0
aI4
aI4
asS'Lasith Malinga'
p3319
(lp3320
I2
aI1
aI1
aI0
aI0
aI0
aI0
aI0
aI3
aI4
asS'Dwayne Bravo'
p3321
(lp3322
I1
aI0
aI0
aI0
aI1
aI0
aI0
aI0
aI4
aI2
asS'Chris Morris'
p3323
(lp3324
I0
aI2
aI0
aI0
aI0
aI0
aI0
aI0
aI2
aI2
asS'Anureet Singh'
p3325
(lp3326
I0
aI2
aI0
aI0
aI0
aI0
aI0
aI0
aI2
aI2
asS'Jean-Paul Duminy'
p3327
(lp3328
I0
aI2
aI0
aI0
aI0
aI0
aI0
aI0
aI2
aI2
asS'Sandeep Sharma'
p3329
(lp3330
I0
aI1
aI0
aI0
aI0
aI0
aI2
aI0
aI13
aI3
asS'Ashish Nehra'
p3331
(lp3332
I2
aI2
aI0
aI0
aI0
aI0
aI0
aI0
aI2
aI4
asS'Harbhajan Singh'
p3333
(lp3334
I3
aI3
aI1
aI0
aI0
aI0
aI1
aI0
aI11
aI8
asS'PV Tambe'
p3335
(lp3336
I2
aI6
aI0
aI0
aI0
aI0
aI0
aI0
aI6
aI8
asS'Kieron Pollard'
p3337
(lp3338
I1
aI1
aI1
aI0
aI0
aI0
aI0
aI0
aI3
aI3
asS'Mitchell Johnson'
p3339
(lp3340
I0
aI1
aI1
aI0
aI1
aI0
aI0
aI0
aI7
aI3
asS'Angelo Mathews'
p3341
(lp3342
I2
aI0
aI2
aI0
aI2
aI0
aI2
aI0
aI24
aI8
asS'NM Coulter-Nile'
p3343
(lp3344
I2
aI0
aI0
aI0
aI0
aI0
aI0
aI0
aI0
aI2
asS'TG Southee'
p3345
(lp3346
I2
aI2
aI2
aI0
aI0
aI0
aI2
aI0
aI18
aI8
assS'AB de Villiers'
p3347
(dp3348
S'Ashish Nehra'
p3349
(lp3350
I4
aI2
aI0
aI0
aI1
aI0
aI0
aI0
aI6
aI7
asS'YK Pathan'
p3351
(lp3352
I1
aI2
aI0
aI0
aI0
aI0
aI1
aI0
aI8
aI4
asS'TA Boult'
p3353
(lp3354
I1
aI0
aI0
aI0
aI1
aI0
aI0
aI0
aI4
aI2
asS'Harbhajan Singh'
p3355
(lp3356
I0
aI3
aI1
aI0
aI1
aI0
aI1
aI0
aI15
aI6
asS'KC Cariappa'
p3357
(lp3358
I1
aI1
aI0
aI0
aI2
aI0
aI1
aI0
aI15
aI5
asS'MJ McClenaghan'
p3359
(lp3360
I0
aI2
aI1
aI0
aI8
aI0
aI2
aI0
aI48
aI13
asS'Karanveer Singh'
p3361
(lp3362
I1
aI3
aI0
aI0
aI0
aI0
aI3
aI0
aI21
aI7
asS'Stuart Binny'
p3363
(lp3364
I7
aI3
aI1
aI0
aI0
aI0
aI1
aI0
aI11
aI12
asS'Anureet Singh'
p3365
(lp3366
I2
aI3
aI0
aI0
aI1
aI0
aI0
aI0
aI7
aI6
asS'Sandeep Sharma'
p3367
(lp3368
I0
aI5
aI0
aI0
aI0
aI0
aI0
aI0
aI5
aI5
asS'James Faulkner'
p3369
(lp3370
I2
aI7
aI3
aI0
aI5
aI0
aI0
aI0
aI33
aI17
asS'A Ashish Reddy'
p3371
(lp3372
I1
aI1
aI2
aI0
aI0
aI0
aI1
aI0
aI11
aI5
asS'PV Tambe'
p3373
(lp3374
I4
aI6
aI0
aI0
aI4
aI0
aI0
aI0
aI22
aI14
asS'Axar Patel'
p3375
(lp3376
I4
aI0
aI0
aI0
aI2
aI0
aI1
aI0
aI14
aI7
asS'KV Sharma'
p3377
(lp3378
I4
aI5
aI0
aI0
aI0
aI0
aI0
aI0
aI5
aI9
asS'Ankit Sharma'
p3379
(lp3380
I3
aI4
aI0
aI0
aI1
aI0
aI2
aI0
aI20
aI10
asS'RS Bopara'
p3381
(lp3382
I2
aI2
aI0
aI0
aI3
aI0
aI1
aI0
aI20
aI8
asS'Andre Russell'
p3383
(lp3384
I2
aI1
aI0
aI0
aI1
aI0
aI0
aI0
aI5
aI4
asS'TG Southee'
p3385
(lp3386
I4
aI2
aI0
aI0
aI0
aI0
aI0
aI0
aI2
aI6
asS'Ravindra Jadeja'
p3387
(lp3388
I2
aI2
aI0
aI0
aI0
aI0
aI2
aI0
aI14
aI6
asS'DJ Hooda'
p3389
(lp3390
I0
aI0
aI0
aI0
aI1
aI0
aI0
aI0
aI4
aI1
asS'Dhawal Kulkarni'
p3391
(lp3392
I8
aI7
aI2
aI0
aI3
aI0
aI0
aI0
aI23
aI20
asS'Shikhar Dhawan'
p3393
(lp3394
I0
aI4
aI0
aI0
aI1
aI0
aI0
aI0
aI8
aI5
asS'Moises Henriques'
p3395
(lp3396
I1
aI0
aI0
aI0
aI0
aI0
aI0
aI0
aI0
aI1
asS'J Suchith'
p3397
(lp3398
I2
aI3
aI1
aI0
aI5
aI0
aI0
aI0
aI25
aI11
asS'Brad Hogg'
p3399
(lp3400
I0
aI1
aI0
aI0
aI0
aI0
aI0
aI0
aI1
aI1
asS'HH Pandya'
p3401
(lp3402
I0
aI5
aI0
aI0
aI7
aI0
aI1
aI0
aI39
aI13
asS'Chris Morris'
p3403
(lp3404
I0
aI2
aI1
aI0
aI0
aI0
aI2
aI0
aI16
aI5
asS'Lasith Malinga'
p3405
(lp3406
I6
aI3
aI3
aI0
aI7
aI0
aI4
aI0
aI61
aI23
asS'IC Pandey'
p3407
(lp3408
I16
aI2
aI0
aI0
aI4
aI0
aI2
aI0
aI30
aI24
asS'Jasprit Bumrah'
p3409
(lp3410
I4
aI5
aI3
aI0
aI1
aI0
aI2
aI0
aI27
aI15
asS'Bhuvneshwar Kumar'
p3411
(lp3412
I0
aI2
aI0
aI0
aI1
aI0
aI0
aI0
aI6
aI3
asS'Mitchell Johnson'
p3413
(lp3414
I1
aI2
aI0
aI0
aI0
aI0
aI0
aI0
aI2
aI3
asS'Piyush Chawla'
p3415
(lp3416
I2
aI1
aI0
aI0
aI0
aI0
aI0
aI0
aI1
aI3
asS'Praveen Kumar'
p3417
(lp3418
I1
aI0
aI0
aI0
aI0
aI0
aI0
aI0
aI0
aI1
asS'Shane Watson'
p3419
(lp3420
I13
aI9
aI5
aI0
aI5
aI0
aI0
aI0
aI39
aI32
assS'MS Bisla '
p3421
(dp3422
S'Lasith Malinga'
p3423
(lp3424
I2
aI4
aI0
aI0
aI0
aI0
aI0
aI0
aI4
aI6
asS'MM Sharma'
p3425
(lp3426
I0
aI0
aI0
aI2
aI2
aI0
aI0
aI0
aI14
aI4
asS'Ashish Nehra'
p3427
(lp3428
I8
aI4
aI0
aI0
aI0
aI0
aI0
aI0
aI4
aI12
asS'Harbhajan Singh'
p3429
(lp3430
I8
aI0
aI0
aI0
aI2
aI0
aI2
aI0
aI20
aI12
asS'MJ McClenaghan'
p3431
(lp3432
I10
aI0
aI0
aI0
aI4
aI0
aI0
aI0
aI16
aI14
asS'IC Pandey'
p3433
(lp3434
I8
aI0
aI0
aI0
aI4
aI0
aI0
aI0
aI16
aI12
assS'Kane Williamson'
p3435
(dp3436
S'MM Sharma'
p3437
(lp3438
I0
aI2
aI0
aI0
aI1
aI0
aI1
aI0
aI12
aI4
asS'Dwayne Bravo'
p3439
(lp3440
I1
aI5
aI0
aI0
aI0
aI0
aI0
aI0
aI5
aI6
asS'Harshal Patel'
p3441
(lp3442
I3
aI2
aI0
aI0
aI0
aI0
aI0
aI0
aI2
aI5
asS'Ashish Nehra'
p3443
(lp3444
I1
aI2
aI1
aI0
aI0
aI0
aI0
aI0
aI4
aI4
asS'Yuzvendra Chahal'
p3445
(lp3446
I1
aI3
aI0
aI0
aI0
aI0
aI0
aI0
aI3
aI4
asS'IC Pandey'
p3447
(lp3448
I0
aI1
aI0
aI0
aI0
aI0
aI0
aI0
aI1
aI1
asS'Ravindra Jadeja'
p3449
(lp3450
I0
aI2
aI1
aI0
aI0
aI0
aI0
aI0
aI4
aI3
assS'Parthiv Patel'
p3451
(dp3452
S'MM Sharma'
p3453
(lp3454
I2
aI4
aI1
aI0
aI3
aI0
aI0
aI0
aI18
aI10
asS'Ashish Nehra'
p3455
(lp3456
I7
aI2
aI0
aI0
aI3
aI0
aI0
aI0
aI14
aI12
asS'D Wiese'
p3457
(lp3458
I6
aI0
aI0
aI0
aI0
aI0
aI0
aI0
aI0
aI6
asS'DJ Muthuswami'
p3459
(lp3460
I4
aI1
aI0
aI1
aI0
aI0
aI0
aI0
aI4
aI6
asS'Pawan Negi'
p3461
(lp3462
I3
aI5
aI2
aI0
aI2
aI0
aI1
aI0
aI23
aI13
asS'Iqbal Abdulla'
p3463
(lp3464
I0
aI2
aI0
aI0
aI0
aI0
aI0
aI0
aI2
aI2
asS'Dale Steyn'
p3465
(lp3466
I7
aI6
aI0
aI0
aI3
aI0
aI0
aI0
aI18
aI16
asS'Angelo Mathews'
p3467
(lp3468
I5
aI0
aI0
aI0
aI2
aI0
aI1
aI0
aI14
aI8
asS'Karanveer Singh'
p3469
(lp3470
I2
aI4
aI2
aI0
aI0
aI0
aI0
aI0
aI8
aI8
asS'Jean-Paul Duminy'
p3471
(lp3472
I1
aI1
aI0
aI0
aI2
aI0
aI0
aI0
aI9
aI4
asS'Stuart Binny'
p3473
(lp3474
I4
aI2
aI2
aI0
aI0
aI0
aI0
aI0
aI6
aI8
asS'NM Coulter-Nile'
p3475
(lp3476
I2
aI3
aI1
aI0
aI1
aI0
aI0
aI0
aI9
aI7
asS'Anureet Singh'
p3477
(lp3478
I1
aI0
aI0
aI0
aI0
aI0
aI0
aI0
aI0
aI1
asS'Morne Morkel'
p3479
(lp3480
I0
aI3
aI2
aI0
aI1
aI0
aI0
aI0
aI11
aI6
asS'Sandeep Sharma'
p3481
(lp3482
I5
aI1
aI0
aI0
aI1
aI0
aI0
aI0
aI5
aI7
asS'AN Ahmed'
p3483
(lp3484
I8
aI4
aI0
aI0
aI4
aI0
aI0
aI0
aI20
aI16
asS'TA Boult'
p3485
(lp3486
I0
aI2
aI0
aI0
aI0
aI0
aI0
aI0
aI2
aI2
asS'Mitchell Starc'
p3487
(lp3488
I2
aI2
aI1
aI0
aI3
aI0
aI0
aI0
aI16
aI8
asS'Axar Patel'
p3489
(lp3490
I1
aI4
aI1
aI0
aI0
aI0
aI0
aI0
aI6
aI6
asS'S Aravind'
p3491
(lp3492
I0
aI3
aI0
aI0
aI0
aI0
aI0
aI0
aI3
aI3
asS'KV Sharma'
p3493
(lp3494
I2
aI3
aI0
aI0
aI2
aI0
aI0
aI0
aI11
aI7
asS'TG Southee'
p3495
(lp3496
I2
aI3
aI0
aI0
aI1
aI0
aI0
aI0
aI7
aI6
asS'Ravindra Jadeja'
p3497
(lp3498
I1
aI4
aI1
aI0
aI1
aI0
aI0
aI0
aI10
aI7
asS'Dwayne Bravo'
p3499
(lp3500
I1
aI1
aI1
aI0
aI0
aI0
aI0
aI0
aI3
aI3
asS'M Vijay'
p3501
(lp3502
I1
aI1
aI0
aI0
aI1
aI0
aI0
aI0
aI5
aI3
asS'Varun Aaron'
p3503
(lp3504
I0
aI2
aI0
aI0
aI0
aI0
aI0
aI0
aI2
aI2
asS'Moises Henriques'
p3505
(lp3506
I3
aI4
aI0
aI0
aI2
aI0
aI0
aI0
aI12
aI9
asS'Glenn Maxwell'
p3507
(lp3508
I0
aI1
aI0
aI0
aI0
aI0
aI1
aI0
aI7
aI2
asS'UT Yadav'
p3509
(lp3510
I1
aI1
aI0
aI0
aI1
aI0
aI0
aI0
aI5
aI3
asS'Shakib Al Hasan'
p3511
(lp3512
I3
aI1
aI0
aI0
aI1
aI0
aI0
aI0
aI5
aI5
asS'Chris Morris'
p3513
(lp3514
I2
aI0
aI0
aI2
aI2
aI0
aI0
aI0
aI14
aI6
asS'J Theron'
p3515
(lp3516
I1
aI1
aI0
aI0
aI2
aI0
aI0
aI0
aI9
aI4
asS'Dhawal Kulkarni'
p3517
(lp3518
I5
aI3
aI0
aI0
aI4
aI0
aI0
aI0
aI19
aI12
asS'Bhuvneshwar Kumar'
p3519
(lp3520
I7
aI4
aI0
aI0
aI4
aI0
aI0
aI0
aI20
aI15
asS'Ravichandran Ashwin'
p3521
(lp3522
I10
aI5
aI0
aI1
aI1
aI0
aI0
aI0
aI12
aI17
asS'Mitchell Johnson'
p3523
(lp3524
I1
aI2
aI1
aI0
aI3
aI0
aI2
aI0
aI28
aI9
asS'Praveen Kumar'
p3525
(lp3526
I3
aI1
aI0
aI0
aI1
aI0
aI0
aI0
aI5
aI5
asS'Zaheer Khan'
p3527
(lp3528
I5
aI0
aI1
aI1
aI0
aI0
aI0
aI0
aI5
aI7
assS'Lasith Malinga '
p3529
(dp3530
S'Imran Tahir'
p3531
(lp3532
I4
aI1
aI0
aI0
aI0
aI0
aI0
aI0
aI1
aI5
asS'Angelo Mathews'
p3533
(lp3534
I2
aI1
aI0
aI0
aI1
aI0
aI0
aI0
aI5
aI4
asS'NM Coulter-Nile'
p3535
(lp3536
I1
aI0
aI0
aI0
aI0
aI0
aI0
aI0
aI0
aI1
assS'Shikhar Dhawan '
p3537
(dp3538
S'Lasith Malinga'
p3539
(lp3540
I1
aI1
aI0
aI0
aI1
aI0
aI0
aI0
aI5
aI3
asS'Dwayne Bravo'
p3541
(lp3542
I0
aI4
aI0
aI0
aI0
aI0
aI1
aI0
aI10
aI5
asS'Suresh Raina'
p3543
(lp3544
I2
aI1
aI0
aI0
aI0
aI0
aI0
aI0
aI1
aI3
asS'TA Boult'
p3545
(lp3546
I1
aI1
aI1
aI0
aI0
aI0
aI0
aI0
aI3
aI3
asS'Ashish Nehra'
p3547
(lp3548
I2
aI1
aI0
aI0
aI0
aI0
aI1
aI0
aI7
aI4
asS'Pawan Negi'
p3549
(lp3550
I4
aI0
aI1
aI0
aI1
aI0
aI0
aI0
aI6
aI6
asS'J Suchith'
p3551
(lp3552
I2
aI1
aI0
aI0
aI0
aI0
aI0
aI0
aI1
aI3
asS'Bhuvneshwar Kumar'
p3553
(lp3554
I2
aI1
aI0
aI0
aI0
aI0
aI0
aI0
aI1
aI3
asS'Mitchell Starc'
p3555
(lp3556
I0
aI1
aI0
aI0
aI0
aI0
aI0
aI0
aI1
aI1
asS'Ravindra Jadeja'
p3557
(lp3558
I1
aI1
aI0
aI0
aI0
aI0
aI0
aI0
aI1
aI2
assS'NLTC Perera '
p3559
(dp3560
S'UT Yadav'
p3561
(lp3562
I2
aI0
aI0
aI0
aI0
aI0
aI0
aI0
aI0
aI2
asS'Andre Russell'
p3563
(lp3564
I6
aI2
aI0
aI0
aI0
aI0
aI2
aI0
aI14
aI10
asS'Jean-Paul Duminy'
p3565
(lp3566
I1
aI2
aI0
aI0
aI0
aI0
aI0
aI0
aI2
aI3
asS'NM Coulter-Nile'
p3567
(lp3568
I3
aI1
aI0
aI0
aI0
aI0
aI0
aI0
aI1
aI4
asS'Piyush Chawla'
p3569
(lp3570
I0
aI4
aI0
aI0
aI0
aI0
aI0
aI0
aI4
aI4
assS'Faf du Plessis'
p3571
(dp3572
S'D Wiese'
p3573
(lp3574
I1
aI9
aI0
aI0
aI2
aI0
aI2
aI0
aI29
aI14
asS'BE Hendricks'
p3575
(lp3576
I1
aI1
aI0
aI2
aI1
aI0
aI0
aI0
aI11
aI5
asS'TA Boult'
p3577
(lp3578
I0
aI2
aI0
aI0
aI1
aI0
aI0
aI0
aI6
aI3
asS'Harbhajan Singh'
p3579
(lp3580
I7
aI13
aI1
aI0
aI3
aI0
aI1
aI0
aI33
aI25
asS'Iqbal Abdulla'
p3581
(lp3582
I5
aI12
aI0
aI0
aI4
aI0
aI1
aI0
aI34
aI22
asS'MJ McClenaghan'
p3583
(lp3584
I5
aI0
aI0
aI0
aI4
aI0
aI1
aI0
aI22
aI10
asS'Jean-Paul Duminy'
p3585
(lp3586
I3
aI0
aI2
aI0
aI1
aI0
aI0
aI0
aI8
aI6
asS'Gurkeerat Singh'
p3587
(lp3588
I2
aI5
aI0
aI0
aI0
aI0
aI0
aI0
aI5
aI7
asS'Rajat Bhatia'
p3589
(lp3590
I1
aI4
aI0
aI0
aI0
aI0
aI0
aI0
aI4
aI5
asS'Shikhar Dhawan'
p3591
(lp3592
I4
aI1
aI2
aI0
aI1
aI0
aI0
aI0
aI9
aI8
asS'Anureet Singh'
p3593
(lp3594
I1
aI2
aI0
aI0
aI0
aI0
aI0
aI0
aI2
aI3
asS'A Ashish Reddy'
p3595
(lp3596
I0
aI1
aI0
aI0
aI0
aI0
aI0
aI0
aI1
aI1
asS'Virat Kohli'
p3597
(lp3598
I0
aI2
aI1
aI0
aI0
aI0
aI0
aI0
aI4
aI3
asS'Sandeep Sharma'
p3599
(lp3600
I1
aI1
aI0
aI0
aI0
aI0
aI0
aI0
aI1
aI2
asS'James Faulkner'
p3601
(lp3602
I0
aI2
aI0
aI0
aI0
aI0
aI0
aI0
aI2
aI2
asS'Mitchell Starc'
p3603
(lp3604
I0
aI4
aI0
aI2
aI4
aI0
aI0
aI0
aI26
aI10
asS'PV Tambe'
p3605
(lp3606
I1
aI2
aI1
aI0
aI1
aI0
aI0
aI0
aI8
aI5
asS'Axar Patel'
p3607
(lp3608
I3
aI6
aI1
aI0
aI2
aI0
aI1
aI0
aI22
aI13
asS'S Aravind'
p3609
(lp3610
I5
aI2
aI0
aI1
aI0
aI0
aI0
aI0
aI5
aI8
asS'KV Sharma'
p3611
(lp3612
I0
aI4
aI1
aI0
aI0
aI0
aI0
aI0
aI6
aI5
asS'Ankit Sharma'
p3613
(lp3614
I9
aI3
aI0
aI1
aI2
aI0
aI0
aI0
aI14
aI15
asS'Yuvraj Singh'
p3615
(lp3616
I2
aI5
aI0
aI0
aI1
aI0
aI0
aI0
aI9
aI8
asS'Yuzvendra Chahal'
p3617
(lp3618
I5
aI8
aI1
aI0
aI0
aI0
aI0
aI0
aI10
aI14
asS'PJ Cummins'
p3619
(lp3620
I1
aI3
aI0
aI0
aI0
aI0
aI0
aI0
aI3
aI4
asS'Imran Tahir'
p3621
(lp3622
I1
aI2
aI1
aI0
aI0
aI0
aI0
aI0
aI4
aI4
asS'Kieron Pollard'
p3623
(lp3624
I1
aI3
aI0
aI0
aI0
aI0
aI0
aI0
aI3
aI4
asS'DJ Muthuswami'
p3625
(lp3626
I0
aI1
aI0
aI0
aI1
aI0
aI0
aI0
aI5
aI2
asS'Harshal Patel'
p3627
(lp3628
I4
aI3
aI0
aI0
aI0
aI0
aI0
aI0
aI3
aI7
asS'Moises Henriques'
p3629
(lp3630
I3
aI4
aI0
aI0
aI2
aI0
aI0
aI0
aI12
aI9
asS'Albie Morkel'
p3631
(lp3632
I4
aI4
aI1
aI0
aI3
aI0
aI0
aI0
aI18
aI12
asS'J Suchith'
p3633
(lp3634
I2
aI5
aI0
aI0
aI0
aI0
aI0
aI0
aI5
aI7
asS'J Yadav'
p3635
(lp3636
I0
aI3
aI0
aI0
aI0
aI0
aI0
aI0
aI3
aI3
asS'UT Yadav'
p3637
(lp3638
I3
aI1
aI0
aI0
aI1
aI0
aI0
aI0
aI5
aI5
asS'Brad Hogg'
p3639
(lp3640
I4
aI5
aI0
aI0
aI2
aI0
aI0
aI0
aI13
aI11
asS'Glenn Maxwell'
p3641
(lp3642
I1
aI1
aI0
aI0
aI1
aI0
aI0
aI0
aI5
aI3
asS'HH Pandya'
p3643
(lp3644
I0
aI2
aI0
aI0
aI0
aI0
aI0
aI0
aI2
aI2
asS'Chris Morris'
p3645
(lp3646
I1
aI3
aI0
aI0
aI0
aI0
aI0
aI0
aI3
aI4
asS'Lasith Malinga'
p3647
(lp3648
I8
aI6
aI0
aI0
aI0
aI0
aI0
aI0
aI6
aI14
asS'Andre Russell'
p3649
(lp3650
I0
aI4
aI1
aI0
aI0
aI0
aI0
aI0
aI6
aI5
asS'GS Sandhu'
p3651
(lp3652
I0
aI2
aI2
aI0
aI0
aI0
aI0
aI0
aI6
aI4
asS'R Vinay Kumar'
p3653
(lp3654
I10
aI4
aI1
aI0
aI2
aI0
aI0
aI0
aI14
aI17
asS'Amit Mishra'
p3655
(lp3656
I2
aI4
aI2
aI0
aI0
aI0
aI0
aI0
aI8
aI8
asS'Piyush Chawla'
p3657
(lp3658
I4
aI6
aI2
aI0
aI3
aI0
aI0
aI0
aI22
aI15
asS'Praveen Kumar'
p3659
(lp3660
I0
aI2
aI1
aI0
aI1
aI0
aI0
aI0
aI8
aI4
assS'Yuzvendra Chahal '
p3661
(dp3662
S'Bhuvneshwar Kumar'
p3663
(lp3664
I0
aI1
aI0
aI0
aI0
aI0
aI0
aI0
aI1
aI1
assS'Karanveer Singh '
p3665
(dp3666
S'MM Sharma'
p3667
(lp3668
I1
aI0
aI0
aI0
aI0
aI0
aI0
aI0
aI0
aI1
asS'Dwayne Bravo'
p3669
(lp3670
I2
aI2
aI0
aI0
aI0
aI0
aI0
aI0
aI2
aI4
asS'Chris Morris'
p3671
(lp3672
I2
aI1
aI0
aI0
aI1
aI0
aI0
aI0
aI5
aI4
asS'Harshal Patel'
p3673
(lp3674
I1
aI1
aI0
aI0
aI0
aI0
aI0
aI0
aI1
aI2
asS'Mitchell Starc'
p3675
(lp3676
I3
aI1
aI1
aI0
aI0
aI0
aI0
aI0
aI3
aI5
assS'Dinesh Karthik'
p3677
(dp3678
S'MM Sharma'
p3679
(lp3680
I9
aI10
aI2
aI0
aI2
aI0
aI0
aI0
aI22
aI23
asS'Ashish Nehra'
p3681
(lp3682
I2
aI2
aI0
aI0
aI1
aI0
aI0
aI0
aI6
aI5
asS'YK Pathan'
p3683
(lp3684
I1
aI0
aI0
aI0
aI0
aI0
aI0
aI0
aI0
aI1
asS'BE Hendricks'
p3685
(lp3686
I2
aI1
aI0
aI0
aI0
aI0
aI0
aI0
aI1
aI3
asS'Pawan Negi'
p3687
(lp3688
I2
aI2
aI0
aI0
aI1
aI0
aI0
aI0
aI6
aI5
asS'Harbhajan Singh'
p3689
(lp3690
I0
aI2
aI0
aI0
aI0
aI0
aI0
aI0
aI2
aI2
asS'KC Cariappa'
p3691
(lp3692
I0
aI1
aI0
aI0
aI0
aI0
aI0
aI0
aI1
aI1
asS'MJ McClenaghan'
p3693
(lp3694
I0
aI2
aI0
aI0
aI0
aI0
aI0
aI0
aI2
aI2
asS'Suresh Raina'
p3695
(lp3696
I2
aI3
aI1
aI0
aI3
aI0
aI0
aI0
aI17
aI9
asS'Stuart Binny'
p3697
(lp3698
I3
aI1
aI0
aI0
aI2
aI0
aI1
aI0
aI15
aI7
asS'Morne Morkel'
p3699
(lp3700
I1
aI0
aI0
aI0
aI0
aI0
aI0
aI0
aI0
aI1
asS'Sandeep Sharma'
p3701
(lp3702
I1
aI0
aI1
aI0
aI0
aI0
aI1
aI0
aI8
aI3
asS'James Faulkner'
p3703
(lp3704
I1
aI1
aI0
aI0
aI1
aI0
aI0
aI0
aI5
aI3
asS'PV Tambe'
p3705
(lp3706
I1
aI2
aI1
aI0
aI0
aI0
aI0
aI0
aI4
aI4
asS'Axar Patel'
p3707
(lp3708
I0
aI1
aI0
aI0
aI0
aI0
aI0
aI0
aI1
aI1
asS'KV Sharma'
p3709
(lp3710
I1
aI2
aI0
aI0
aI0
aI0
aI0
aI0
aI2
aI3
asS'RS Bopara'
p3711
(lp3712
I1
aI1
aI0
aI0
aI0
aI0
aI0
aI0
aI1
aI2
asS'Andre Russell'
p3713
(lp3714
I3
aI1
aI0
aI0
aI1
aI0
aI0
aI0
aI5
aI5
asS'TG Southee'
p3715
(lp3716
I1
aI3
aI0
aI0
aI0
aI0
aI0
aI0
aI3
aI4
asS'Ravindra Jadeja'
p3717
(lp3718
I1
aI3
aI0
aI0
aI0
aI0
aI0
aI0
aI3
aI4
asS'Dwayne Bravo'
p3719
(lp3720
I5
aI0
aI0
aI0
aI0
aI0
aI0
aI0
aI0
aI5
asS'HH Pandya'
p3721
(lp3722
I4
aI4
aI4
aI0
aI2
aI0
aI2
aI0
aI32
aI16
asS'Chris Morris'
p3723
(lp3724
I1
aI0
aI1
aI0
aI0
aI0
aI1
aI0
aI8
aI3
asS'Lasith Malinga'
p3725
(lp3726
I2
aI0
aI0
aI0
aI0
aI0
aI0
aI0
aI0
aI2
asS'IC Pandey'
p3727
(lp3728
I6
aI1
aI0
aI0
aI1
aI0
aI0
aI0
aI5
aI8
asS'Bhuvneshwar Kumar'
p3729
(lp3730
I0
aI1
aI0
aI0
aI0
aI0
aI0
aI0
aI1
aI1
asS'Ravichandran Ashwin'
p3731
(lp3732
I4
aI2
aI1
aI0
aI2
aI0
aI0
aI0
aI12
aI9
asS'Praveen Kumar'
p3733
(lp3734
I3
aI3
aI0
aI0
aI1
aI0
aI0
aI0
aI7
aI7
assS'Mayank Agarwal'
p3735
(dp3736
S'MM Sharma'
p3737
(lp3738
I2
aI1
aI0
aI0
aI0
aI0
aI1
aI0
aI7
aI4
asS'Ashish Nehra'
p3739
(lp3740
I6
aI0
aI0
aI0
aI2
aI0
aI0
aI0
aI8
aI8
asS'SN Thakur'
p3741
(lp3742
I3
aI2
aI1
aI0
aI3
aI0
aI0
aI0
aI16
aI9
asS'D Wiese'
p3743
(lp3744
I0
aI4
aI0
aI0
aI0
aI0
aI0
aI0
aI4
aI4
asS'Dhawal Kulkarni'
p3745
(lp3746
I1
aI0
aI1
aI0
aI4
aI0
aI0
aI0
aI18
aI6
asS'MJ McClenaghan'
p3747
(lp3748
I1
aI1
aI0
aI0
aI0
aI0
aI0
aI0
aI1
aI2
asS'Stuart Binny'
p3749
(lp3750
I2
aI0
aI0
aI0
aI0
aI0
aI1
aI0
aI6
aI3
asS'Anureet Singh'
p3751
(lp3752
I15
aI9
aI2
aI0
aI7
aI0
aI0
aI0
aI41
aI33
asS'Varun Aaron'
p3753
(lp3754
I6
aI5
aI0
aI0
aI1
aI0
aI1
aI0
aI15
aI13
asS'Sandeep Sharma'
p3755
(lp3756
I13
aI7
aI2
aI0
aI2
aI0
aI1
aI0
aI25
aI25
asS'Mitchell Starc'
p3757
(lp3758
I5
aI1
aI0
aI0
aI0
aI0
aI0
aI0
aI1
aI6
asS'PV Tambe'
p3759
(lp3760
I2
aI0
aI0
aI0
aI0
aI0
aI0
aI0
aI0
aI2
asS'Axar Patel'
p3761
(lp3762
I5
aI18
aI0
aI0
aI0
aI0
aI0
aI0
aI18
aI23
asS'TG Southee'
p3763
(lp3764
I6
aI5
aI0
aI0
aI2
aI0
aI1
aI0
aI19
aI14
asS'Iqbal Abdulla'
p3765
(lp3766
I3
aI3
aI0
aI0
aI0
aI0
aI0
aI0
aI3
aI6
asS'Harshal Patel'
p3767
(lp3768
I1
aI4
aI0
aI0
aI0
aI0
aI0
aI0
aI4
aI5
asS'Shikhar Dhawan'
p3769
(lp3770
I0
aI8
aI2
aI0
aI2
aI0
aI0
aI0
aI20
aI12
asS'Glenn Maxwell'
p3771
(lp3772
I2
aI4
aI0
aI0
aI0
aI0
aI2
aI0
aI16
aI8
asS'UT Yadav'
p3773
(lp3774
I10
aI2
aI0
aI0
aI0
aI0
aI0
aI0
aI2
aI12
asS'Chris Morris'
p3775
(lp3776
I2
aI1
aI0
aI0
aI1
aI0
aI0
aI0
aI5
aI4
asS'Morne Morkel'
p3777
(lp3778
I4
aI0
aI0
aI0
aI0
aI0
aI0
aI0
aI0
aI4
asS'Lasith Malinga'
p3779
(lp3780
I1
aI0
aI0
aI0
aI0
aI0
aI0
aI0
aI0
aI1
asS'NLTC Perera'
p3781
(lp3782
I0
aI4
aI0
aI0
aI2
aI0
aI0
aI0
aI12
aI6
asS'Bhuvneshwar Kumar'
p3783
(lp3784
I2
aI0
aI0
aI0
aI0
aI0
aI0
aI0
aI0
aI2
asS'Mitchell Johnson'
p3785
(lp3786
I2
aI12
aI0
aI0
aI4
aI0
aI2
aI0
aI40
aI20
asS'Praveen Kumar'
p3787
(lp3788
I2
aI2
aI0
aI0
aI0
aI0
aI0
aI0
aI2
aI4
assS'Wriddhiman Saha'
p3789
(dp3790
S'MM Sharma'
p3791
(lp3792
I2
aI1
aI0
aI0
aI0
aI0
aI0
aI0
aI1
aI3
asS'Ashish Nehra'
p3793
(lp3794
I1
aI0
aI0
aI0
aI0
aI0
aI0
aI0
aI0
aI1
asS'Bipul Sharma'
p3795
(lp3796
I1
aI1
aI0
aI0
aI0
aI0
aI0
aI0
aI1
aI2
asS'D Wiese'
p3797
(lp3798
I1
aI0
aI0
aI0
aI0
aI0
aI0
aI0
aI0
aI1
asS'TA Boult'
p3799
(lp3800
I2
aI1
aI0
aI0
aI1
aI0
aI0
aI0
aI5
aI4
asS'Pawan Negi'
p3801
(lp3802
I4
aI1
aI1
aI0
aI1
aI0
aI0
aI0
aI7
aI7
asS'I Sharma'
p3803
(lp3804
I1
aI2
aI0
aI0
aI0
aI0
aI0
aI0
aI2
aI3
asS'MJ McClenaghan'
p3805
(lp3806
I2
aI2
aI1
aI0
aI0
aI0
aI0
aI0
aI4
aI5
asS'Angelo Mathews'
p3807
(lp3808
I4
aI6
aI0
aI0
aI0
aI0
aI2
aI0
aI18
aI12
asS'NM Coulter-Nile'
p3809
(lp3810
I3
aI2
aI0
aI0
aI0
aI0
aI2
aI0
aI14
aI7
asS'Jean-Paul Duminy'
p3811
(lp3812
I0
aI2
aI0
aI0
aI0
aI0
aI0
aI0
aI2
aI2
asS'Morne Morkel'
p3813
(lp3814
I4
aI2
aI0
aI0
aI0
aI0
aI0
aI0
aI2
aI6
asS'James Faulkner'
p3815
(lp3816
I0
aI2
aI0
aI0
aI2
aI0
aI0
aI0
aI10
aI4
asS'Mitchell Starc'
p3817
(lp3818
I2
aI4
aI1
aI0
aI2
aI0
aI0
aI0
aI14
aI9
asS'PV Tambe'
p3819
(lp3820
I0
aI2
aI0
aI0
aI0
aI0
aI0
aI0
aI2
aI2
asS'S Aravind'
p3821
(lp3822
I5
aI2
aI0
aI0
aI4
aI0
aI2
aI0
aI30
aI13
asS'KV Sharma'
p3823
(lp3824
I3
aI7
aI0
aI0
aI0
aI0
aI0
aI0
aI7
aI10
asS'Yuvraj Singh'
p3825
(lp3826
I0
aI4
aI4
aI0
aI0
aI0
aI0
aI0
aI12
aI8
asS'Andre Russell'
p3827
(lp3828
I0
aI2
aI0
aI0
aI0
aI0
aI0
aI0
aI2
aI2
asS'TG Southee'
p3829
(lp3830
I2
aI0
aI0
aI1
aI1
aI0
aI0
aI0
aI7
aI4
asS'Ravindra Jadeja'
p3831
(lp3832
I1
aI4
aI0
aI0
aI0
aI0
aI0
aI0
aI4
aI5
asS'Imran Tahir'
p3833
(lp3834
I0
aI2
aI2
aI0
aI0
aI0
aI0
aI0
aI6
aI4
asS'Dwayne Bravo'
p3835
(lp3836
I2
aI2
aI2
aI0
aI0
aI0
aI0
aI0
aI6
aI6
asS'DJ Muthuswami'
p3837
(lp3838
I6
aI2
aI0
aI0
aI0
aI0
aI2
aI0
aI14
aI10
asS'Moises Henriques'
p3839
(lp3840
I5
aI6
aI3
aI0
aI0
aI0
aI0
aI0
aI12
aI14
asS'UT Yadav'
p3841
(lp3842
I9
aI1
aI4
aI0
aI2
aI0
aI2
aI0
aI29
aI18
asS'Brad Hogg'
p3843
(lp3844
I2
aI2
aI0
aI0
aI0
aI0
aI1
aI0
aI8
aI5
asS'Sunil Narine'
p3845
(lp3846
I3
aI3
aI0
aI0
aI0
aI0
aI1
aI0
aI9
aI7
asS'Chris Morris'
p3847
(lp3848
I2
aI2
aI0
aI0
aI6
aI0
aI0
aI0
aI26
aI10
asS'Ravichandran Ashwin'
p3849
(lp3850
I4
aI4
aI0
aI0
aI0
aI0
aI0
aI0
aI4
aI8
asS'Lasith Malinga'
p3851
(lp3852
I1
aI3
aI0
aI0
aI1
aI0
aI0
aI0
aI7
aI5
asS'IC Pandey'
p3853
(lp3854
I2
aI2
aI0
aI0
aI0
aI0
aI1
aI0
aI8
aI5
asS'R Vinay Kumar'
p3855
(lp3856
I1
aI1
aI0
aI0
aI0
aI0
aI0
aI0
aI1
aI2
asS'Bhuvneshwar Kumar'
p3857
(lp3858
I1
aI1
aI2
aI0
aI0
aI0
aI1
aI0
aI11
aI5
asS'Amit Mishra'
p3859
(lp3860
I6
aI10
aI2
aI0
aI0
aI0
aI0
aI0
aI14
aI18
asS'Piyush Chawla'
p3861
(lp3862
I1
aI4
aI3
aI1
aI0
aI0
aI0
aI0
aI13
aI9
asS'Praveen Kumar'
p3863
(lp3864
I0
aI3
aI1
aI0
aI1
aI0
aI0
aI0
aI9
aI5
asS'Zaheer Khan'
p3865
(lp3866
I2
aI1
aI0
aI0
aI0
aI0
aI0
aI0
aI1
aI3
assS'NM Coulter'
p3867
(dp3868
S'Dwayne Bravo'
p3869
(lp3870
I0
aI1
aI0
aI0
aI0
aI0
aI0
aI0
aI1
aI1
asS'Iqbal Abdulla'
p3871
(lp3872
I5
aI0
aI0
aI0
aI0
aI0
aI0
aI0
aI0
aI5
asS'D Wiese'
p3873
(lp3874
I2
aI0
aI0
aI0
aI1
aI0
aI0
aI0
aI4
aI3
asS'Dhawal Kulkarni'
p3875
(lp3876
I1
aI0
aI0
aI0
aI0
aI0
aI1
aI0
aI6
aI2
asS'R Vinay Kumar'
p3877
(lp3878
I0
aI1
aI1
aI0
aI0
aI0
aI0
aI0
aI3
aI2
asS'UT Yadav'
p3879
(lp3880
I0
aI2
aI0
aI0
aI0
aI0
aI0
aI0
aI2
aI2
asS'Sunil Narine'
p3881
(lp3882
I0
aI2
aI0
aI0
aI0
aI0
aI0
aI0
aI2
aI2
asS'Ravichandran Ashwin'
p3883
(lp3884
I1
aI0
aI0
aI0
aI0
aI0
aI0
aI0
aI0
aI1
asS'IC Pandey'
p3885
(lp3886
I1
aI0
aI0
aI0
aI1
aI0
aI0
aI0
aI4
aI2
assS'Brendon McCullum'
p3887
(dp3888
S'D Wiese'
p3889
(lp3890
I3
aI0
aI0
aI0
aI1
aI0
aI0
aI0
aI4
aI4
asS'BE Hendricks'
p3891
(lp3892
I2
aI1
aI0
aI0
aI1
aI0
aI0
aI0
aI5
aI4
asS'TA Boult'
p3893
(lp3894
I3
aI3
aI0
aI0
aI6
aI0
aI1
aI0
aI33
aI13
asS'Harbhajan Singh'
p3895
(lp3896
I2
aI2
aI2
aI0
aI6
aI0
aI0
aI0
aI30
aI12
asS'I Sharma'
p3897
(lp3898
I4
aI2
aI1
aI0
aI2
aI0
aI3
aI0
aI30
aI12
asS'MJ McClenaghan'
p3899
(lp3900
I1
aI1
aI0
aI0
aI0
aI0
aI1
aI0
aI7
aI3
asS'NM Coulter-Nile'
p3901
(lp3902
I1
aI0
aI0
aI0
aI1
aI0
aI0
aI0
aI4
aI2
asS'Rajat Bhatia'
p3903
(lp3904
I4
aI5
aI2
aI0
aI1
aI0
aI1
aI0
aI19
aI13
asS'Anureet Singh'
p3905
(lp3906
I1
aI3
aI1
aI0
aI0
aI0
aI1
aI0
aI11
aI6
asS'Sandeep Sharma'
p3907
(lp3908
I8
aI2
aI2
aI0
aI4
aI0
aI1
aI0
aI28
aI17
asS'James Faulkner'
p3909
(lp3910
I6
aI5
aI2
aI0
aI3
aI0
aI0
aI0
aI21
aI16
asS'Mitchell Starc'
p3911
(lp3912
I6
aI0
aI1
aI0
aI4
aI0
aI0
aI0
aI18
aI11
asS'PV Tambe'
p3913
(lp3914
I9
aI4
aI0
aI0
aI2
aI0
aI2
aI0
aI24
aI17
asS'Axar Patel'
p3915
(lp3916
I5
aI2
aI0
aI0
aI2
aI0
aI0
aI0
aI10
aI9
asS'Parvez Rasool'
p3917
(lp3918
I3
aI0
aI0
aI0
aI1
aI0
aI1
aI0
aI10
aI5
asS'KV Sharma'
p3919
(lp3920
I6
aI4
aI0
aI0
aI0
aI0
aI3
aI0
aI22
aI13
asS'Ankit Sharma'
p3921
(lp3922
I10
aI5
aI0
aI0
aI5
aI0
aI0
aI0
aI25
aI20
asS'RS Bopara'
p3923
(lp3924
I3
aI5
aI0
aI0
aI1
aI0
aI0
aI0
aI9
aI9
asS'Yuzvendra Chahal'
p3925
(lp3926
I9
aI1
aI0
aI0
aI1
aI0
aI0
aI0
aI5
aI11
asS'PJ Cummins'
p3927
(lp3928
I7
aI0
aI1
aI0
aI3
aI0
aI4
aI0
aI38
aI15
asS'Harshal Patel'
p3929
(lp3930
I0
aI1
aI0
aI0
aI0
aI0
aI0
aI0
aI1
aI1
asS'J Suchith'
p3931
(lp3932
I1
aI6
aI0
aI0
aI0
aI0
aI0
aI0
aI6
aI7
asS'UT Yadav'
p3933
(lp3934
I3
aI1
aI0
aI0
aI2
aI0
aI0
aI0
aI9
aI6
asS'Brad Hogg'
p3935
(lp3936
I1
aI0
aI0
aI0
aI0
aI0
aI0
aI0
aI0
aI1
asS'P Suyal'
p3937
(lp3938
I0
aI6
aI0
aI0
aI0
aI0
aI2
aI0
aI18
aI8
asS'Chris Morris'
p3939
(lp3940
I1
aI0
aI0
aI0
aI1
aI0
aI0
aI0
aI4
aI2
asS'S Nadeem'
p3941
(lp3942
I6
aI3
aI1
aI0
aI1
aI0
aI0
aI0
aI9
aI11
asS'Lasith Malinga'
p3943
(lp3944
I4
aI4
aI0
aI0
aI6
aI0
aI2
aI0
aI40
aI16
asS'R Vinay Kumar'
p3945
(lp3946
I1
aI0
aI1
aI0
aI3
aI0
aI0
aI0
aI14
aI5
asS'Bhuvneshwar Kumar'
p3947
(lp3948
I6
aI2
aI0
aI0
aI0
aI0
aI1
aI0
aI8
aI9
asS'Mitchell Johnson'
p3949
(lp3950
I8
aI2
aI1
aI0
aI2
aI0
aI1
aI0
aI18
aI14
asS'Piyush Chawla'
p3951
(lp3952
I3
aI0
aI0
aI0
aI1
aI0
aI0
aI0
aI4
aI4
asS'Zaheer Khan'
p3953
(lp3954
I8
aI2
aI0
aI0
aI0
aI0
aI0
aI0
aI2
aI10
asS'Shane Watson'
p3955
(lp3956
I3
aI2
aI0
aI0
aI1
aI0
aI1
aI0
aI12
aI7
assS'Johan Botha '
p3957
(dp3958
S'Anureet Singh'
p3959
(lp3960
I1
aI0
aI0
aI0
aI0
aI0
aI0
aI0
aI0
aI1
asS'Moises Henriques'
p3961
(lp3962
I0
aI2
aI0
aI0
aI0
aI0
aI0
aI0
aI2
aI2
asS'BE Hendricks'
p3963
(lp3964
I1
aI0
aI0
aI0
aI0
aI0
aI0
aI0
aI0
aI1
asS'Bhuvneshwar Kumar'
p3965
(lp3966
I1
aI0
aI0
aI0
aI0
aI0
aI1
aI0
aI6
aI2
asS'Axar Patel'
p3967
(lp3968
I0
aI2
aI0
aI0
aI0
aI0
aI0
aI0
aI2
aI2
asS'Dale Steyn'
p3969
(lp3970
I1
aI0
aI0
aI0
aI1
aI0
aI0
aI0
aI4
aI2
asS'Zaheer Khan'
p3971
(lp3972
I0
aI1
aI0
aI0
aI4
aI0
aI0
aI0
aI17
aI5
assS'Albie Morkel '
p3973
(dp3974
S'MM Sharma'
p3975
(lp3976
I2
aI4
aI0
aI0
aI2
aI0
aI0
aI0
aI12
aI8
asS'Dwayne Bravo'
p3977
(lp3978
I3
aI7
aI2
aI0
aI3
aI0
aI1
aI0
aI29
aI16
asS'Ashish Nehra'
p3979
(lp3980
I1
aI4
aI0
aI0
aI0
aI0
aI0
aI0
aI4
aI5
asS'Pawan Negi'
p3981
(lp3982
I1
aI1
aI0
aI0
aI0
aI0
aI1
aI0
aI7
aI3
asS'UT Yadav'
p3983
(lp3984
I0
aI1
aI0
aI0
aI1
aI0
aI0
aI0
aI5
aI2
asS'Ravichandran Ashwin'
p3985
(lp3986
I9
aI7
aI1
aI0
aI1
aI0
aI0
aI0
aI13
aI18
asS'IC Pandey'
p3987
(lp3988
I5
aI4
aI2
aI0
aI2
aI0
aI0
aI0
aI16
aI13
assS'Robin Uthappa'
p3989
(dp3990
S'MM Sharma'
p3991
(lp3992
I6
aI5
aI1
aI0
aI5
aI0
aI0
aI0
aI27
aI17
asS'Ashish Nehra'
p3993
(lp3994
I5
aI5
aI1
aI1
aI5
aI0
aI1
aI0
aI36
aI18
asS'RG More'
p3995
(lp3996
I1
aI7
aI7
aI0
aI1
aI0
aI0
aI0
aI25
aI16
asS'Bipul Sharma'
p3997
(lp3998
I3
aI3
aI0
aI0
aI0
aI0
aI0
aI0
aI3
aI6
asS'D Wiese'
p3999
(lp4000
I0
aI1
aI0
aI0
aI0
aI0
aI0
aI0
aI1
aI1
asS'BE Hendricks'
p4001
(lp4002
I1
aI1
aI0
aI0
aI1
aI0
aI0
aI0
aI5
aI3
asS'DJ Muthuswami'
p4003
(lp4004
I4
aI2
aI0
aI0
aI2
aI0
aI0
aI0
aI10
aI8
asS'Pawan Negi'
p4005
(lp4006
I2
aI6
aI1
aI0
aI0
aI0
aI0
aI0
aI8
aI9
asS'Harbhajan Singh'
p4007
(lp4008
I2
aI0
aI0
aI0
aI0
aI0
aI1
aI0
aI6
aI3
asS'Corey Anderson'
p4009
(lp4010
I2
aI1
aI0
aI0
aI0
aI0
aI1
aI0
aI7
aI4
asS'MJ McClenaghan'
p4011
(lp4012
I2
aI3
aI0
aI0
aI1
aI0
aI0
aI0
aI7
aI6
asS'Angelo Mathews'
p4013
(lp4014
I0
aI2
aI0
aI0
aI0
aI0
aI0
aI0
aI2
aI2
asS'NM Coulter-Nile'
p4015
(lp4016
I8
aI6
aI0
aI0
aI2
aI0
aI0
aI0
aI14
aI16
asS'Jean-Paul Duminy'
p4017
(lp4018
I1
aI1
aI0
aI0
aI0
aI0
aI1
aI0
aI7
aI3
asS'Anureet Singh'
p4019
(lp4020
I1
aI4
aI1
aI0
aI3
aI0
aI0
aI0
aI18
aI9
asS'Varun Aaron'
p4021
(lp4022
I2
aI4
aI1
aI0
aI2
aI0
aI0
aI0
aI14
aI9
asS'Sandeep Sharma'
p4023
(lp4024
I10
aI4
aI2
aI0
aI3
aI0
aI0
aI0
aI20
aI19
asS'AN Ahmed'
p4025
(lp4026
I3
aI5
aI1
aI0
aI0
aI0
aI0
aI0
aI7
aI9
asS'Mitchell Starc'
p4027
(lp4028
I3
aI1
aI0
aI0
aI0
aI0
aI0
aI0
aI1
aI4
asS'KV Sharma'
p4029
(lp4030
I5
aI8
aI3
aI0
aI0
aI0
aI0
aI0
aI14
aI16
asS'Ravichandran Ashwin'
p4031
(lp4032
I1
aI0
aI0
aI0
aI0
aI0
aI0
aI0
aI0
aI1
asS'Yuzvendra Chahal'
p4033
(lp4034
I1
aI5
aI1
aI0
aI0
aI0
aI0
aI0
aI7
aI7
asS'Ravindra Jadeja'
p4035
(lp4036
I1
aI3
aI0
aI0
aI1
aI0
aI0
aI0
aI7
aI5
asS'Imran Tahir'
p4037
(lp4038
I0
aI1
aI1
aI0
aI0
aI0
aI0
aI0
aI3
aI2
asS'Dwayne Bravo'
p4039
(lp4040
I1
aI2
aI1
aI0
aI0
aI0
aI0
aI0
aI4
aI4
asS'Dhawal Kulkarni'
p4041
(lp4042
I2
aI0
aI0
aI0
aI1
aI0
aI0
aI0
aI4
aI3
asS'Harshal Patel'
p4043
(lp4044
I5
aI2
aI0
aI0
aI4
aI0
aI0
aI0
aI18
aI11
asS'Moises Henriques'
p4045
(lp4046
I3
aI3
aI0
aI0
aI0
aI0
aI0
aI0
aI3
aI6
asS'Albie Morkel'
p4047
(lp4048
I4
aI1
aI1
aI0
aI2
aI0
aI0
aI0
aI11
aI8
asS'Darren Sammy'
p4049
(lp4050
I1
aI1
aI0
aI0
aI0
aI0
aI0
aI0
aI1
aI2
asS'Chris Morris'
p4051
(lp4052
I1
aI1
aI0
aI0
aI1
aI0
aI0
aI0
aI5
aI3
asS'Lasith Malinga'
p4053
(lp4054
I7
aI3
aI1
aI0
aI1
aI0
aI0
aI0
aI9
aI12
asS'BB Sran'
p4055
(lp4056
I0
aI1
aI0
aI0
aI1
aI0
aI0
aI0
aI5
aI2
asS'IC Pandey'
p4057
(lp4058
I1
aI2
aI0
aI0
aI1
aI0
aI1
aI0
aI12
aI5
asS'R Vinay Kumar'
p4059
(lp4060
I5
aI1
aI0
aI0
aI1
aI0
aI0
aI0
aI5
aI7
asS'Bhuvneshwar Kumar'
p4061
(lp4062
I4
aI7
aI0
aI0
aI2
aI1
aI0
aI0
aI20
aI14
asS'Amit Mishra'
p4063
(lp4064
I7
aI0
aI0
aI0
aI0
aI0
aI0
aI0
aI0
aI7
asS'SA Abbott'
p4065
(lp4066
I1
aI3
aI1
aI0
aI1
aI0
aI0
aI0
aI9
aI6
asS'Praveen Kumar'
p4067
(lp4068
I2
aI3
aI0
aI0
aI4
aI0
aI2
aI0
aI31
aI11
asS'Zaheer Khan'
p4069
(lp4070
I6
aI3
aI0
aI0
aI2
aI0
aI0
aI0
aI11
aI11
asS'Dale Steyn'
p4071
(lp4072
I4
aI7
aI2
aI0
aI1
aI0
aI2
aI0
aI27
aI16
assS'David Warner'
p4073
(dp4074
S'MM Sharma'
p4075
(lp4076
I2
aI5
aI1
aI0
aI5
aI0
aI2
aI0
aI39
aI15
asS'Ashish Nehra'
p4077
(lp4078
I2
aI7
aI1
aI0
aI4
aI0
aI0
aI0
aI25
aI14
asS'RG More'
p4079
(lp4080
I0
aI2
aI0
aI0
aI2
aI0
aI0
aI0
aI10
aI4
asS'YK Pathan'
p4081
(lp4082
I2
aI8
aI0
aI0
aI2
aI0
aI2
aI0
aI28
aI14
asS'D Wiese'
p4083
(lp4084
I1
aI3
aI0
aI0
aI2
aI0
aI0
aI0
aI11
aI6
asS'BE Hendricks'
p4085
(lp4086
I2
aI4
aI2
aI0
aI0
aI0
aI1
aI0
aI14
aI9
asS'DJ Muthuswami'
p4087
(lp4088
I4
aI0
aI4
aI0
aI8
aI0
aI0
aI0
aI40
aI16
asS'Johan Botha'
p4089
(lp4090
I12
aI8
aI2
aI0
aI6
aI0
aI0
aI0
aI36
aI28
asS'SA Abbott'
p4091
(lp4092
I0
aI1
aI1
aI0
aI1
aI0
aI0
aI0
aI7
aI3
asS'MJ McClenaghan'
p4093
(lp4094
I1
aI0
aI0
aI0
aI0
aI0
aI0
aI0
aI0
aI1
asS'NM Coulter-Nile'
p4095
(lp4096
I10
aI5
aI4
aI0
aI0
aI0
aI1
aI0
aI19
aI20
asS'Gurkeerat Singh'
p4097
(lp4098
I3
aI3
aI1
aI0
aI2
aI0
aI1
aI0
aI19
aI10
asS'Suresh Raina'
p4099
(lp4100
I2
aI1
aI0
aI0
aI0
aI0
aI0
aI0
aI1
aI3
asS'Jean-Paul Duminy'
p4101
(lp4102
I6
aI4
aI0
aI0
aI0
aI0
aI0
aI0
aI4
aI10
asS'Anureet Singh'
p4103
(lp4104
I7
aI2
aI0
aI0
aI4
aI0
aI1
aI0
aI24
aI14
asS'Varun Aaron'
p4105
(lp4106
I3
aI1
aI0
aI0
aI2
aI0
aI1
aI0
aI15
aI7
asS'Sandeep Sharma'
p4107
(lp4108
I15
aI3
aI0
aI1
aI5
aI0
aI0
aI0
aI26
aI24
asS'AN Ahmed'
p4109
(lp4110
I4
aI2
aI0
aI0
aI0
aI0
aI1
aI0
aI8
aI7
asS'Mitchell Starc'
p4111
(lp4112
I1
aI5
aI2
aI0
aI1
aI0
aI0
aI0
aI13
aI9
asS'Axar Patel'
p4113
(lp4114
I5
aI7
aI0
aI0
aI1
aI0
aI2
aI0
aI23
aI15
asS'Yuzvendra Chahal'
p4115
(lp4116
I2
aI4
aI1
aI0
aI1
aI0
aI2
aI0
aI22
aI10
asS'TG Southee'
p4117
(lp4118
I2
aI4
aI0
aI0
aI0
aI0
aI2
aI0
aI16
aI8
asS'Mitchell Johnson'
p4119
(lp4120
I0
aI2
aI0
aI0
aI4
aI0
aI1
aI0
aI24
aI7
asS'Dwayne Bravo'
p4121
(lp4122
I3
aI4
aI4
aI0
aI0
aI0
aI0
aI0
aI12
aI11
asS'M Vijay'
p4123
(lp4124
I3
aI4
aI1
aI0
aI0
aI0
aI0
aI0
aI6
aI8
asS'Harshal Patel'
p4125
(lp4126
I2
aI0
aI1
aI0
aI4
aI0
aI1
aI0
aI24
aI8
asS'Glenn Maxwell'
p4127
(lp4128
I3
aI3
aI0
aI0
aI0
aI0
aI0
aI0
aI3
aI6
asS'Chris Morris'
p4129
(lp4130
I13
aI1
aI1
aI0
aI7
aI0
aI0
aI0
aI31
aI22
asS'Darren Sammy'
p4131
(lp4132
I0
aI2
aI0
aI0
aI0
aI0
aI0
aI0
aI2
aI2
asS'J Yadav'
p4133
(lp4134
I1
aI2
aI0
aI0
aI1
aI0
aI0
aI0
aI6
aI4
asS'UT Yadav'
p4135
(lp4136
I6
aI6
aI4
aI0
aI1
aI0
aI2
aI0
aI30
aI19
asS'Sunil Narine'
p4137
(lp4138
I14
aI4
aI8
aI0
aI2
aI0
aI4
aI0
aI52
aI32
asS'Harbhajan Singh'
p4139
(lp4140
I2
aI0
aI0
aI0
aI1
aI0
aI0
aI0
aI4
aI3
asS'Morne Morkel'
p4141
(lp4142
I4
aI6
aI0
aI0
aI6
aI0
aI0
aI0
aI30
aI16
asS'Lasith Malinga'
p4143
(lp4144
I3
aI3
aI0
aI0
aI2
aI0
aI0
aI0
aI11
aI8
asS'Dhawal Kulkarni'
p4145
(lp4146
I5
aI3
aI0
aI0
aI0
aI0
aI0
aI0
aI3
aI8
asS'AB Dinda'
p4147
(lp4148
I1
aI5
aI1
aI0
aI0
aI0
aI0
aI0
aI7
aI7
asS'Ravichandran Ashwin'
p4149
(lp4150
I4
aI7
aI1
aI0
aI0
aI0
aI0
aI0
aI9
aI12
asS'DJ Hooda'
p4151
(lp4152
I3
aI0
aI0
aI0
aI2
aI0
aI0
aI0
aI8
aI5
asS'Piyush Chawla'
p4153
(lp4154
I0
aI2
aI0
aI0
aI2
aI0
aI0
aI0
aI10
aI4
asS'IC Pandey'
p4155
(lp4156
I6
aI2
aI0
aI0
aI1
aI0
aI2
aI0
aI18
aI11
asS'Zaheer Khan'
p4157
(lp4158
I3
aI1
aI0
aI1
aI0
aI0
aI0
aI0
aI4
aI5
asS'Shane Watson'
p4159
(lp4160
I1
aI0
aI0
aI0
aI2
aI0
aI0
aI0
aI8
aI3
assS'Bipul Sharma '
p4161
(dp4162
S'Piyush Chawla'
p4163
(lp4164
I1
aI1
aI0
aI0
aI0
aI0
aI0
aI0
aI1
aI2
assS'Moises Henriques '
p4165
(dp4166
S'YK Pathan'
p4167
(lp4168
I1
aI0
aI1
aI0
aI1
aI0
aI2
aI0
aI18
aI5
asS'D Wiese'
p4169
(lp4170
I1
aI1
aI0
aI0
aI0
aI0
aI0
aI0
aI1
aI2
asS'BE Hendricks'
p4171
(lp4172
I0
aI2
aI0
aI0
aI2
aI0
aI0
aI0
aI10
aI4
asS'Pawan Negi'
p4173
(lp4174
I1
aI2
aI0
aI0
aI1
aI0
aI0
aI0
aI6
aI4
asS'Johan Botha'
p4175
(lp4176
I0
aI4
aI0
aI0
aI0
aI0
aI0
aI0
aI4
aI4
asS'MJ McClenaghan'
p4177
(lp4178
I4
aI2
aI0
aI0
aI1
aI0
aI0
aI0
aI6
aI7
asS'Andre Russell'
p4179
(lp4180
I7
aI0
aI2
aI0
aI1
aI0
aI0
aI0
aI8
aI10
asS'Jean-Paul Duminy'
p4181
(lp4182
I1
aI2
aI3
aI0
aI0
aI0
aI0
aI0
aI8
aI6
asS'Gurkeerat Singh'
p4183
(lp4184
I3
aI2
aI0
aI0
aI1
aI0
aI0
aI0
aI6
aI6
asS'Suresh Raina'
p4185
(lp4186
I2
aI1
aI0
aI0
aI0
aI0
aI2
aI0
aI13
aI5
asS'Shikhar Dhawan'
p4187
(lp4188
I1
aI1
aI0
aI0
aI0
aI0
aI0
aI0
aI1
aI2
asS'NM Coulter-Nile'
p4189
(lp4190
I1
aI3
aI0
aI0
aI1
aI0
aI0
aI0
aI7
aI5
asS'Anureet Singh'
p4191
(lp4192
I1
aI5
aI0
aI0
aI0
aI0
aI0
aI0
aI5
aI6
asS'Sandeep Sharma'
p4193
(lp4194
I4
aI2
aI0
aI0
aI0
aI0
aI0
aI0
aI2
aI6
asS'James Faulkner'
p4195
(lp4196
I1
aI2
aI1
aI0
aI3
aI0
aI0
aI0
aI16
aI7
asS'Mitchell Starc'
p4197
(lp4198
I0
aI1
aI1
aI0
aI0
aI0
aI0
aI0
aI3
aI2
asS'PV Tambe'
p4199
(lp4200
I8
aI3
aI0
aI0
aI0
aI0
aI0
aI0
aI3
aI11
asS'Axar Patel'
p4201
(lp4202
I4
aI9
aI2
aI0
aI1
aI0
aI0
aI0
aI17
aI16
asS'Glenn Maxwell'
p4203
(lp4204
I2
aI3
aI0
aI0
aI1
aI0
aI0
aI0
aI7
aI6
asS'Yuzvendra Chahal'
p4205
(lp4206
I0
aI1
aI1
aI0
aI1
aI0
aI2
aI0
aI19
aI5
asS'M Vijay'
p4207
(lp4208
I0
aI7
aI0
aI0
aI0
aI0
aI0
aI0
aI7
aI7
asS'Harshal Patel'
p4209
(lp4210
I1
aI0
aI1
aI0
aI3
aI0
aI1
aI0
aI20
aI6
asS'Albie Morkel'
p4211
(lp4212
I1
aI3
aI3
aI0
aI0
aI0
aI2
aI0
aI21
aI9
asS'J Suchith'
p4213
(lp4214
I2
aI1
aI0
aI0
aI0
aI0
aI0
aI0
aI1
aI3
asS'J Yadav'
p4215
(lp4216
I7
aI3
aI1
aI0
aI0
aI0
aI0
aI0
aI5
aI11
asS'UT Yadav'
p4217
(lp4218
I0
aI5
aI0
aI0
aI2
aI0
aI0
aI0
aI13
aI7
asS'Brad Hogg'
p4219
(lp4220
I2
aI3
aI0
aI0
aI0
aI0
aI0
aI0
aI3
aI5
asS'Lasith Malinga'
p4221
(lp4222
I3
aI1
aI0
aI0
aI0
aI0
aI0
aI0
aI1
aI4
asS'RN ten Doeschate'
p4223
(lp4224
I1
aI2
aI0
aI0
aI0
aI0
aI0
aI0
aI2
aI3
asS'R Vinay Kumar'
p4225
(lp4226
I2
aI3
aI0
aI0
aI0
aI0
aI0
aI0
aI3
aI5
asS'AB Dinda'
p4227
(lp4228
I1
aI4
aI0
aI0
aI1
aI0
aI1
aI0
aI14
aI7
asS'Amit Mishra'
p4229
(lp4230
I1
aI2
aI4
aI0
aI0
aI0
aI2
aI0
aI22
aI9
asS'Mitchell Johnson'
p4231
(lp4232
I0
aI3
aI0
aI0
aI0
aI0
aI0
aI0
aI3
aI3
asS'Piyush Chawla'
p4233
(lp4234
I2
aI7
aI0
aI0
aI0
aI0
aI0
aI0
aI7
aI9
asS'Zaheer Khan'
p4235
(lp4236
I1
aI3
aI1
aI0
aI0
aI0
aI1
aI0
aI11
aI6
asS'Shane Watson'
p4237
(lp4238
I2
aI1
aI0
aI0
aI0
aI0
aI0
aI0
aI1
aI3
assS'Dhawal Kulkarni '
p4239
(dp4240
S'Mitchell Starc'
p4241
(lp4242
I5
aI1
aI0
aI0
aI0
aI0
aI0
aI0
aI1
aI6
asS'Yuzvendra Chahal'
p4243
(lp4244
I2
aI2
aI0
aI0
aI0
aI0
aI0
aI0
aI2
aI4
asS'Harshal Patel'
p4245
(lp4246
I0
aI1
aI0
aI0
aI0
aI0
aI0
aI0
aI1
aI1
assS'BE Hendricks '
p4247
(dp4248
S'Ashish Nehra'
p4249
(lp4250
I1
aI1
aI0
aI0
aI0
aI0
aI0
aI0
aI1
aI2
assS'Sandeep Sharma '
p4251
(dp4252
S'MM Sharma'
p4253
(lp4254
I3
aI1
aI0
aI0
aI0
aI0
aI0
aI0
aI1
aI4
asS'Yuzvendra Chahal'
p4255
(lp4256
I1
aI1
aI0
aI0
aI1
aI0
aI0
aI0
aI5
aI3
asS'Praveen Kumar'
p4257
(lp4258
I0
aI1
aI0
aI0
aI0
aI0
aI0
aI0
aI1
aI1
asS'D Wiese'
p4259
(lp4260
I2
aI2
aI0
aI0
aI0
aI0
aI0
aI0
aI2
aI4
asS'Mitchell Starc'
p4261
(lp4262
I2
aI0
aI0
aI0
aI0
aI0
aI0
aI0
aI0
aI2
assS'Kieron Pollard '
p4263
(dp4264
S'MM Sharma'
p4265
(lp4266
I5
aI5
aI1
aI0
aI1
aI0
aI1
aI0
aI17
aI13
asS'Ashish Nehra'
p4267
(lp4268
I3
aI3
aI2
aI0
aI1
aI0
aI3
aI0
aI29
aI12
asS'D Wiese'
p4269
(lp4270
I3
aI2
aI0
aI0
aI2
aI0
aI0
aI0
aI10
aI7
asS'TA Boult'
p4271
(lp4272
I3
aI4
aI1
aI0
aI0
aI0
aI0
aI0
aI6
aI8
asS'Pawan Negi'
p4273
(lp4274
I3
aI3
aI0
aI0
aI0
aI0
aI2
aI0
aI15
aI8
asS'Dale Steyn'
p4275
(lp4276
I2
aI2
aI1
aI0
aI1
aI0
aI0
aI0
aI8
aI6
asS'Angelo Mathews'
p4277
(lp4278
I2
aI1
aI0
aI0
aI0
aI0
aI0
aI0
aI1
aI3
asS'NM Coulter-Nile'
p4279
(lp4280
I1
aI1
aI1
aI0
aI0
aI0
aI1
aI0
aI9
aI4
asS'Shikhar Dhawan'
p4281
(lp4282
I2
aI3
aI0
aI0
aI0
aI0
aI1
aI0
aI9
aI6
asS'Andre Russell'
p4283
(lp4284
I5
aI5
aI1
aI0
aI1
aI0
aI0
aI0
aI11
aI12
asS'Anureet Singh'
p4285
(lp4286
I1
aI2
aI1
aI0
aI0
aI0
aI0
aI0
aI4
aI4
asS'Morne Morkel'
p4287
(lp4288
I4
aI0
aI0
aI0
aI0
aI0
aI0
aI0
aI0
aI4
asS'Sandeep Sharma'
p4289
(lp4290
I0
aI3
aI0
aI0
aI0
aI0
aI0
aI0
aI3
aI3
asS'James Faulkner'
p4291
(lp4292
I8
aI2
aI0
aI0
aI4
aI0
aI4
aI0
aI42
aI18
asS'Mitchell Starc'
p4293
(lp4294
I1
aI1
aI1
aI0
aI2
aI0
aI0
aI0
aI11
aI5
asS'PV Tambe'
p4295
(lp4296
I6
aI6
aI4
aI0
aI0
aI0
aI2
aI0
aI26
aI18
asS'Axar Patel'
p4297
(lp4298
I3
aI3
aI1
aI0
aI1
aI0
aI0
aI0
aI9
aI8
asS'S Aravind'
p4299
(lp4300
I1
aI1
aI1
aI0
aI3
aI0
aI0
aI0
aI15
aI6
asS'KV Sharma'
p4301
(lp4302
I1
aI2
aI0
aI0
aI0
aI0
aI0
aI0
aI2
aI3
asS'Ankit Sharma'
p4303
(lp4304
I0
aI2
aI0
aI0
aI0
aI0
aI0
aI0
aI2
aI2
asS'Ravichandran Ashwin'
p4305
(lp4306
I4
aI0
aI0
aI0
aI2
aI0
aI0
aI0
aI8
aI6
asS'Yuzvendra Chahal'
p4307
(lp4308
I0
aI4
aI0
aI0
aI0
aI0
aI1
aI0
aI10
aI5
asS'TG Southee'
p4309
(lp4310
I4
aI3
aI0
aI0
aI6
aI0
aI4
aI0
aI51
aI17
asS'Ravindra Jadeja'
p4311
(lp4312
I4
aI4
aI0
aI0
aI2
aI0
aI8
aI0
aI60
aI18
asS'Imran Tahir'
p4313
(lp4314
I2
aI2
aI0
aI0
aI0
aI0
aI2
aI0
aI14
aI6
asS'Dwayne Bravo'
p4315
(lp4316
I7
aI18
aI5
aI0
aI3
aI0
aI4
aI0
aI64
aI37
asS'Dhawal Kulkarni'
p4317
(lp4318
I3
aI4
aI0
aI0
aI2
aI0
aI0
aI0
aI12
aI9
asS'Harshal Patel'
p4319
(lp4320
I2
aI3
aI0
aI0
aI1
aI0
aI1
aI0
aI13
aI7
asS'IC Pandey'
p4321
(lp4322
I0
aI0
aI2
aI0
aI2
aI0
aI0
aI0
aI12
aI4
asS'UT Yadav'
p4323
(lp4324
I0
aI3
aI1
aI0
aI0
aI0
aI0
aI0
aI5
aI4
asS'Sunil Narine'
p4325
(lp4326
I2
aI7
aI1
aI0
aI0
aI0
aI1
aI0
aI15
aI11
asS'Shakib Al Hasan'
p4327
(lp4328
I4
aI2
aI0
aI0
aI0
aI0
aI0
aI0
aI2
aI6
asS'Chris Morris'
p4329
(lp4330
I4
aI2
aI0
aI0
aI2
aI0
aI0
aI0
aI10
aI8
asS'DR Smith'
p4331
(lp4332
I0
aI1
aI0
aI0
aI0
aI0
aI0
aI0
aI1
aI1
asS'Praveen Kumar'
p4333
(lp4334
I0
aI2
aI0
aI0
aI1
aI0
aI1
aI0
aI12
aI4
asS'Bhuvneshwar Kumar'
p4335
(lp4336
I1
aI1
aI0
aI0
aI1
aI0
aI0
aI0
aI5
aI3
asS'Amit Mishra'
p4337
(lp4338
I3
aI2
aI1
aI0
aI0
aI0
aI1
aI0
aI10
aI7
asS'Mitchell Johnson'
p4339
(lp4340
I5
aI2
aI0
aI0
aI0
aI0
aI0
aI0
aI2
aI7
asS'Piyush Chawla'
p4341
(lp4342
I1
aI0
aI0
aI0
aI0
aI0
aI0
aI0
aI0
aI1
asS'J Theron'
p4343
(lp4344
I2
aI2
aI1
aI0
aI1
aI0
aI0
aI0
aI8
aI6
asS'Zaheer Khan'
p4345
(lp4346
I0
aI2
aI0
aI0
aI0
aI0
aI0
aI0
aI2
aI2
asS'Shane Watson'
p4347
(lp4348
I0
aI1
aI1
aI0
aI1
aI0
aI1
aI0
aI13
aI4
assS'KM Jadhav '
p4349
(dp4350
S'MM Sharma'
p4351
(lp4352
I4
aI0
aI0
aI0
aI0
aI0
aI0
aI0
aI0
aI4
asS'D Wiese'
p4353
(lp4354
I1
aI3
aI1
aI0
aI0
aI0
aI0
aI0
aI5
aI5
asS'Dhawal Kulkarni'
p4355
(lp4356
I1
aI0
aI0
aI0
aI0
aI0
aI0
aI0
aI0
aI1
asS'Harbhajan Singh'
p4357
(lp4358
I3
aI2
aI0
aI1
aI0
aI0
aI0
aI0
aI5
aI6
asS'I Sharma'
p4359
(lp4360
I1
aI3
aI1
aI0
aI1
aI0
aI0
aI0
aI9
aI6
asS'Rajat Bhatia'
p4361
(lp4362
I1
aI1
aI0
aI0
aI0
aI0
aI1
aI0
aI7
aI3
asS'Stuart Binny'
p4363
(lp4364
I1
aI0
aI2
aI0
aI0
aI0
aI0
aI0
aI4
aI3
asS'Anureet Singh'
p4365
(lp4366
I2
aI4
aI0
aI0
aI0
aI0
aI0
aI0
aI4
aI6
asS'Varun Aaron'
p4367
(lp4368
I3
aI1
aI0
aI0
aI0
aI0
aI0
aI0
aI1
aI4
asS'A Ashish Reddy'
p4369
(lp4370
I4
aI2
aI0
aI0
aI0
aI0
aI0
aI0
aI2
aI6
asS'Mitchell Starc'
p4371
(lp4372
I0
aI2
aI0
aI0
aI2
aI0
aI0
aI0
aI10
aI4
asS'Axar Patel'
p4373
(lp4374
I2
aI2
aI0
aI0
aI0
aI0
aI0
aI0
aI2
aI4
asS'Parvez Rasool'
p4375
(lp4376
I0
aI2
aI0
aI0
aI0
aI0
aI0
aI0
aI2
aI2
asS'KV Sharma'
p4377
(lp4378
I0
aI3
aI0
aI0
aI0
aI0
aI0
aI0
aI3
aI3
asS'RS Bopara'
p4379
(lp4380
I1
aI1
aI0
aI0
aI3
aI0
aI0
aI0
aI13
aI5
asS'Andre Russell'
p4381
(lp4382
I0
aI2
aI0
aI0
aI0
aI0
aI0
aI0
aI2
aI2
asS'Ravindra Jadeja'
p4383
(lp4384
I0
aI1
aI0
aI0
aI0
aI0
aI0
aI0
aI1
aI1
asS'Dwayne Bravo'
p4385
(lp4386
I0
aI2
aI0
aI0
aI0
aI0
aI0
aI0
aI2
aI2
asS'Iqbal Abdulla'
p4387
(lp4388
I2
aI5
aI1
aI0
aI1
aI0
aI0
aI0
aI11
aI9
asS'Harshal Patel'
p4389
(lp4390
I5
aI2
aI0
aI0
aI1
aI0
aI0
aI0
aI6
aI8
asS'Moises Henriques'
p4391
(lp4392
I2
aI1
aI1
aI0
aI1
aI0
aI0
aI0
aI7
aI5
asS'J Suchith'
p4393
(lp4394
I4
aI2
aI1
aI0
aI0
aI0
aI1
aI0
aI10
aI8
asS'UT Yadav'
p4395
(lp4396
I4
aI2
aI0
aI0
aI0
aI0
aI0
aI0
aI2
aI6
asS'Sunil Narine'
p4397
(lp4398
I6
aI2
aI0
aI0
aI2
aI0
aI2
aI0
aI22
aI12
asS'Johan Botha'
p4399
(lp4400
I0
aI2
aI0
aI0
aI0
aI0
aI1
aI0
aI8
aI3
asS'Lasith Malinga'
p4401
(lp4402
I0
aI1
aI0
aI0
aI0
aI0
aI0
aI0
aI1
aI1
asS'IC Pandey'
p4403
(lp4404
I2
aI3
aI0
aI0
aI1
aI0
aI0
aI0
aI7
aI6
asS'Jasprit Bumrah'
p4405
(lp4406
I0
aI1
aI0
aI0
aI0
aI0
aI0
aI0
aI1
aI1
asS'Bhuvneshwar Kumar'
p4407
(lp4408
I3
aI12
aI2
aI0
aI4
aI0
aI0
aI0
aI32
aI21
asS'Ravichandran Ashwin'
p4409
(lp4410
I1
aI5
aI1
aI0
aI1
aI0
aI0
aI0
aI11
aI8
asS'Piyush Chawla'
p4411
(lp4412
I1
aI0
aI0
aI0
aI0
aI0
aI0
aI0
aI0
aI1
asS'Praveen Kumar'
p4413
(lp4414
I0
aI5
aI0
aI0
aI1
aI0
aI4
aI0
aI33
aI10
assS'AP Tare '
p4415
(dp4416
S'Sandeep Sharma'
p4417
(lp4418
I2
aI4
aI0
aI0
aI0
aI0
aI0
aI0
aI4
aI6
asS'Anureet Singh'
p4419
(lp4420
I2
aI1
aI1
aI0
aI0
aI0
aI0
aI0
aI3
aI4
asS'Morne Morkel'
p4421
(lp4422
I1
aI2
aI0
aI0
aI1
aI0
aI0
aI0
aI6
aI4
asS'Shakib Al Hasan'
p4423
(lp4424
I2
aI1
aI0
aI0
aI0
aI0
aI0
aI0
aI1
aI3
assS'Corey Anderson '
p4425
(dp4426
S'UT Yadav'
p4427
(lp4428
I0
aI1
aI1
aI0
aI0
aI0
aI0
aI0
aI3
aI2
asS'Ashish Nehra'
p4429
(lp4430
I12
aI0
aI0
aI0
aI2
aI0
aI0
aI0
aI8
aI14
asS'Chris Morris'
p4431
(lp4432
I14
aI2
aI2
aI0
aI4
aI0
aI2
aI0
aI34
aI24
asS'Morne Morkel'
p4433
(lp4434
I7
aI1
aI0
aI0
aI1
aI0
aI0
aI0
aI5
aI9
asS'Stuart Binny'
p4435
(lp4436
I4
aI0
aI0
aI0
aI2
aI0
aI0
aI0
aI8
aI6
asS'Dhawal Kulkarni'
p4437
(lp4438
I2
aI4
aI0
aI0
aI0
aI0
aI0
aI0
aI4
aI6
asS'Sandeep Sharma'
p4439
(lp4440
I3
aI1
aI0
aI0
aI1
aI0
aI0
aI0
aI5
aI5
asS'James Faulkner'
p4441
(lp4442
I12
aI0
aI2
aI0
aI0
aI0
aI2
aI0
aI16
aI16
asS'Andre Russell'
p4443
(lp4444
I5
aI4
aI0
aI0
aI0
aI0
aI1
aI0
aI10
aI10
asS'Shakib Al Hasan'
p4445
(lp4446
I1
aI3
aI2
aI0
aI1
aI0
aI2
aI0
aI23
aI9
asS'PV Tambe'
p4447
(lp4448
I2
aI6
aI0
aI0
aI2
aI0
aI0
aI0
aI14
aI10
asS'Axar Patel'
p4449
(lp4450
I2
aI0
aI0
aI0
aI0
aI0
aI0
aI0
aI0
aI2
asS'DJ Hooda'
p4451
(lp4452
I4
aI2
aI0
aI0
aI0
aI0
aI0
aI0
aI2
aI6
asS'Sunil Narine'
p4453
(lp4454
I2
aI4
aI0
aI0
aI0
aI0
aI0
aI0
aI4
aI6
asS'Piyush Chawla'
p4455
(lp4456
I1
aI2
aI0
aI0
aI2
aI0
aI0
aI0
aI10
aI5
asS'TG Southee'
p4457
(lp4458
I2
aI2
aI0
aI0
aI2
aI0
aI2
aI0
aI22
aI8
asS'Mitchell Johnson'
p4459
(lp4460
I4
aI0
aI0
aI0
aI0
aI0
aI0
aI0
aI0
aI4
assS'Sunil Narine'
p4461
(dp4462
S'Anureet Singh'
p4463
(lp4464
I1
aI0
aI0
aI0
aI0
aI0
aI0
aI0
aI0
aI1
assS'David Miller'
p4465
(dp4466
S'R Tewatia'
p4467
(lp4468
I0
aI2
aI0
aI0
aI0
aI0
aI0
aI0
aI2
aI2
asS'TA Boult'
p4469
(lp4470
I3
aI4
aI1
aI0
aI0
aI0
aI2
aI0
aI18
aI10
asS'Pawan Negi'
p4471
(lp4472
I3
aI0
aI0
aI0
aI0
aI0
aI0
aI0
aI0
aI3
asS'Harbhajan Singh'
p4473
(lp4474
I8
aI9
aI1
aI0
aI4
aI0
aI0
aI0
aI27
aI22
asS'I Sharma'
p4475
(lp4476
I4
aI0
aI0
aI0
aI2
aI0
aI3
aI0
aI26
aI9
asS'MJ McClenaghan'
p4477
(lp4478
I3
aI0
aI0
aI0
aI0
aI0
aI0
aI0
aI0
aI3
asS'Angelo Mathews'
p4479
(lp4480
I3
aI4
aI0
aI0
aI2
aI0
aI0
aI0
aI12
aI9
asS'Jean-Paul Duminy'
p4481
(lp4482
I8
aI11
aI1
aI0
aI0
aI0
aI0
aI0
aI13
aI20
asS'Stuart Binny'
p4483
(lp4484
I4
aI0
aI1
aI0
aI2
aI0
aI0
aI0
aI10
aI7
asS'NM Coulter-Nile'
p4485
(lp4486
I3
aI2
aI0
aI0
aI0
aI0
aI0
aI0
aI2
aI5
asS'James Faulkner'
p4487
(lp4488
I12
aI0
aI0
aI0
aI0
aI0
aI4
aI0
aI24
aI16
asS'Mitchell Starc'
p4489
(lp4490
I2
aI2
aI0
aI0
aI0
aI0
aI0
aI0
aI2
aI4
asS'PV Tambe'
p4491
(lp4492
I1
aI8
aI2
aI0
aI0
aI0
aI0
aI0
aI12
aI11
asS'S Aravind'
p4493
(lp4494
I4
aI1
aI0
aI0
aI1
aI0
aI0
aI0
aI5
aI6
asS'KV Sharma'
p4495
(lp4496
I4
aI6
aI1
aI0
aI1
aI0
aI2
aI0
aI24
aI14
asS'Amit Mishra'
p4497
(lp4498
I1
aI5
aI0
aI0
aI1
aI0
aI0
aI0
aI9
aI7
asS'Yuzvendra Chahal'
p4499
(lp4500
I0
aI1
aI0
aI0
aI0
aI0
aI2
aI0
aI13
aI3
asS'TG Southee'
p4501
(lp4502
I3
aI1
aI0
aI0
aI1
aI0
aI1
aI0
aI11
aI6
asS'Ravindra Jadeja'
p4503
(lp4504
I3
aI4
aI1
aI0
aI1
aI0
aI0
aI0
aI10
aI9
asS'Imran Tahir'
p4505
(lp4506
I3
aI4
aI0
aI0
aI1
aI0
aI1
aI0
aI14
aI9
asS'Kieron Pollard'
p4507
(lp4508
I1
aI2
aI2
aI0
aI1
aI0
aI0
aI0
aI10
aI6
asS'Dhawal Kulkarni'
p4509
(lp4510
I1
aI0
aI0
aI0
aI0
aI0
aI0
aI0
aI0
aI1
asS'Harshal Patel'
p4511
(lp4512
I0
aI1
aI0
aI0
aI0
aI0
aI0
aI0
aI1
aI1
asS'Moises Henriques'
p4513
(lp4514
I3
aI12
aI1
aI0
aI0
aI0
aI0
aI0
aI14
aI16
asS'J Suchith'
p4515
(lp4516
I4
aI10
aI1
aI0
aI1
aI0
aI1
aI0
aI22
aI17
asS'UT Yadav'
p4517
(lp4518
I0
aI3
aI1
aI0
aI0
aI0
aI0
aI0
aI5
aI4
asS'Brad Hogg'
p4519
(lp4520
I1
aI1
aI0
aI0
aI0
aI0
aI0
aI0
aI1
aI2
asS'Chris Morris'
p4521
(lp4522
I4
aI2
aI0
aI0
aI0
aI0
aI0
aI0
aI2
aI6
asS'Lasith Malinga'
p4523
(lp4524
I3
aI4
aI1
aI0
aI0
aI0
aI0
aI0
aI6
aI8
asS'Andre Russell'
p4525
(lp4526
I0
aI1
aI0
aI0
aI2
aI0
aI2
aI0
aI21
aI5
asS'R Vinay Kumar'
p4527
(lp4528
I2
aI2
aI0
aI0
aI0
aI0
aI0
aI0
aI2
aI4
asS'Bhuvneshwar Kumar'
p4529
(lp4530
I1
aI2
aI4
aI0
aI0
aI0
aI2
aI0
aI22
aI9
asS'Ravichandran Ashwin'
p4531
(lp4532
I8
aI4
aI0
aI0
aI0
aI0
aI0
aI0
aI4
aI12
asS'DJ Hooda'
p4533
(lp4534
I6
aI8
aI4
aI0
aI2
aI0
aI4
aI0
aI48
aI24
asS'Zaheer Khan'
p4535
(lp4536
I3
aI2
aI0
aI0
aI0
aI0
aI0
aI0
aI2
aI5
asS'Shane Watson'
p4537
(lp4538
I0
aI2
aI4
aI0
aI0
aI0
aI2
aI0
aI22
aI8
assS'PV Tambe '
p4539
(dp4540
S'Mitchell Starc'
p4541
(lp4542
I2
aI2
aI0
aI0
aI0
aI0
aI0
aI0
aI2
aI4
asS'Dwayne Bravo'
p4543
(lp4544
I0
aI1
aI0
aI0
aI0
aI0
aI0
aI0
aI1
aI1
assS'LMP Simmons '
p4545
(dp4546
S'MM Sharma'
p4547
(lp4548
I4
aI6
aI3
aI0
aI2
aI0
aI1
aI0
aI26
aI16
asS'Ashish Nehra'
p4549
(lp4550
I22
aI7
aI4
aI0
aI5
aI0
aI2
aI0
aI47
aI40
asS'D Wiese'
p4551
(lp4552
I10
aI9
aI0
aI0
aI3
aI0
aI1
aI0
aI27
aI23
asS'DJ Muthuswami'
p4553
(lp4554
I2
aI1
aI0
aI0
aI0
aI0
aI0
aI0
aI1
aI3
asS'Pawan Negi'
p4555
(lp4556
I4
aI9
aI1
aI0
aI1
aI0
aI1
aI0
aI21
aI16
asS'Iqbal Abdulla'
p4557
(lp4558
I14
aI8
aI2
aI0
aI0
aI0
aI2
aI0
aI24
aI26
asS'Dale Steyn'
p4559
(lp4560
I2
aI7
aI1
aI0
aI5
aI0
aI0
aI0
aI29
aI15
asS'Karanveer Singh'
p4561
(lp4562
I5
aI3
aI0
aI1
aI3
aI0
aI0
aI0
aI18
aI12
asS'Jean-Paul Duminy'
p4563
(lp4564
I0
aI1
aI0
aI0
aI1
aI0
aI0
aI0
aI5
aI2
asS'Stuart Binny'
p4565
(lp4566
I1
aI2
aI0
aI0
aI0
aI0
aI0
aI0
aI2
aI3
asS'NM Coulter-Nile'
p4567
(lp4568
I6
aI1
aI0
aI0
aI2
aI0
aI0
aI0
aI9
aI9
asS'Anureet Singh'
p4569
(lp4570
I8
aI1
aI1
aI0
aI2
aI0
aI0
aI0
aI11
aI12
asS'Varun Aaron'
p4571
(lp4572
I20
aI0
aI0
aI0
aI12
aI0
aI2
aI0
aI60
aI34
asS'Sandeep Sharma'
p4573
(lp4574
I1
aI4
aI0
aI0
aI3
aI0
aI0
aI0
aI16
aI8
asS'AN Ahmed'
p4575
(lp4576
I2
aI2
aI0
aI0
aI4
aI0
aI0
aI0
aI18
aI8
asS'TA Boult'
p4577
(lp4578
I5
aI2
aI1
aI0
aI2
aI0
aI0
aI0
aI12
aI10
asS'Mitchell Starc'
p4579
(lp4580
I1
aI5
aI0
aI0
aI1
aI0
aI0
aI0
aI9
aI7
asS'Axar Patel'
p4581
(lp4582
I2
aI4
aI2
aI0
aI0
aI0
aI1
aI0
aI14
aI9
asS'S Aravind'
p4583
(lp4584
I8
aI4
aI1
aI0
aI1
aI0
aI0
aI0
aI10
aI14
asS'KV Sharma'
p4585
(lp4586
I4
aI9
aI1
aI0
aI2
aI0
aI3
aI0
aI37
aI19
asS'Ankit Sharma'
p4587
(lp4588
I3
aI1
aI1
aI0
aI1
aI0
aI0
aI0
aI7
aI6
asS'Yuzvendra Chahal'
p4589
(lp4590
I5
aI8
aI1
aI0
aI2
aI0
aI1
aI0
aI24
aI17
asS'TG Southee'
p4591
(lp4592
I4
aI2
aI1
aI0
aI1
aI0
aI0
aI0
aI8
aI8
asS'Ravindra Jadeja'
p4593
(lp4594
I10
aI5
aI1
aI0
aI5
aI0
aI2
aI0
aI39
aI23
asS'Dwayne Bravo'
p4595
(lp4596
I2
aI3
aI0
aI0
aI0
aI0
aI0
aI0
aI3
aI5
asS'M Vijay'
p4597
(lp4598
I0
aI1
aI1
aI0
aI1
aI0
aI0
aI0
aI7
aI3
asS'Harshal Patel'
p4599
(lp4600
I4
aI6
aI1
aI0
aI0
aI0
aI1
aI0
aI14
aI12
asS'Moises Henriques'
p4601
(lp4602
I5
aI4
aI0
aI0
aI0
aI0
aI0
aI0
aI4
aI9
asS'Glenn Maxwell'
p4603
(lp4604
I3
aI1
aI0
aI0
aI0
aI0
aI0
aI0
aI1
aI4
asS'IC Pandey'
p4605
(lp4606
I18
aI0
aI0
aI0
aI2
aI0
aI0
aI0
aI8
aI20
asS'UT Yadav'
p4607
(lp4608
I2
aI1
aI0
aI0
aI0
aI0
aI0
aI0
aI1
aI3
asS'Shakib Al Hasan'
p4609
(lp4610
I1
aI1
aI0
aI0
aI1
aI0
aI0
aI0
aI5
aI3
asS'Morne Morkel'
p4611
(lp4612
I7
aI2
aI0
aI0
aI0
aI0
aI1
aI0
aI8
aI10
asS'DR Smith'
p4613
(lp4614
I1
aI0
aI0
aI0
aI0
aI0
aI0
aI0
aI0
aI1
asS'Praveen Kumar'
p4615
(lp4616
I9
aI8
aI0
aI0
aI1
aI0
aI0
aI0
aI12
aI18
asS'Dhawal Kulkarni'
p4617
(lp4618
I2
aI1
aI1
aI0
aI1
aI0
aI0
aI0
aI7
aI5
asS'Bhuvneshwar Kumar'
p4619
(lp4620
I11
aI3
aI1
aI0
aI0
aI0
aI0
aI0
aI5
aI15
asS'Ravichandran Ashwin'
p4621
(lp4622
I18
aI9
aI0
aI0
aI1
aI0
aI4
aI0
aI37
aI32
asS'Mitchell Johnson'
p4623
(lp4624
I5
aI2
aI1
aI0
aI0
aI0
aI0
aI0
aI4
aI8
asS'J Theron'
p4625
(lp4626
I0
aI2
aI0
aI0
aI0
aI0
aI0
aI0
aI2
aI2
asS'Zaheer Khan'
p4627
(lp4628
I1
aI0
aI0
aI0
aI0
aI0
aI0
aI0
aI0
aI1
asS'Shane Watson'
p4629
(lp4630
I3
aI2
aI0
aI0
aI1
aI0
aI1
aI0
aI12
aI7
assS'SA Abbott '
p4631
(dp4632
S'Bhuvneshwar Kumar'
p4633
(lp4634
I1
aI2
aI0
aI0
aI0
aI0
aI0
aI0
aI2
aI3
asS'TA Boult'
p4635
(lp4636
I1
aI0
aI0
aI0
aI0
aI0
aI0
aI0
aI0
aI1
asS'Praveen Kumar'
p4637
(lp4638
I2
aI0
aI1
aI0
aI1
aI0
aI1
aI0
aI12
aI5
asS'Shakib Al Hasan'
p4639
(lp4640
I2
aI0
aI0
aI0
aI0
aI0
aI0
aI0
aI0
aI2
asS'YK Pathan'
p4641
(lp4642
I1
aI1
aI0
aI0
aI0
aI0
aI0
aI0
aI1
aI2
assS'SA Yadav '
p4643
(dp4644
S'MM Sharma'
p4645
(lp4646
I2
aI0
aI0
aI0
aI0
aI0
aI0
aI0
aI0
aI2
asS'RG More'
p4647
(lp4648
I1
aI0
aI0
aI0
aI0
aI0
aI0
aI0
aI0
aI1
asS'Suresh Raina'
p4649
(lp4650
I3
aI4
aI1
aI0
aI0
aI0
aI0
aI0
aI6
aI8
asS'BE Hendricks'
p4651
(lp4652
I1
aI0
aI0
aI0
aI1
aI0
aI0
aI0
aI4
aI2
asS'Pawan Negi'
p4653
(lp4654
I0
aI2
aI0
aI0
aI0
aI0
aI0
aI0
aI2
aI2
asS'Harbhajan Singh'
p4655
(lp4656
I0
aI2
aI1
aI0
aI0
aI0
aI0
aI0
aI4
aI3
asS'MJ McClenaghan'
p4657
(lp4658
I1
aI0
aI0
aI0
aI0
aI0
aI0
aI0
aI0
aI1
asS'Angelo Mathews'
p4659
(lp4660
I0
aI4
aI0
aI0
aI0
aI0
aI0
aI0
aI4
aI4
asS'Jean-Paul Duminy'
p4661
(lp4662
I4
aI2
aI2
aI0
aI0
aI0
aI2
aI0
aI18
aI10
asS'Gurkeerat Singh'
p4663
(lp4664
I2
aI3
aI0
aI0
aI0
aI0
aI0
aI0
aI3
aI5
asS'NM Coulter-Nile'
p4665
(lp4666
I4
aI2
aI0
aI0
aI2
aI0
aI0
aI0
aI10
aI8
asS'Sandeep Sharma'
p4667
(lp4668
I4
aI0
aI0
aI0
aI2
aI0
aI0
aI0
aI8
aI6
asS'Mitchell Starc'
p4669
(lp4670
I2
aI0
aI0
aI0
aI0
aI0
aI0
aI0
aI0
aI2
asS'Ravichandran Ashwin'
p4671
(lp4672
I1
aI2
aI0
aI0
aI0
aI0
aI0
aI0
aI2
aI3
asS'Yuzvendra Chahal'
p4673
(lp4674
I2
aI2
aI0
aI0
aI1
aI0
aI0
aI0
aI6
aI5
asS'Ravindra Jadeja'
p4675
(lp4676
I8
aI4
aI0
aI0
aI1
aI0
aI0
aI0
aI8
aI13
asS'SA Abbott'
p4677
(lp4678
I1
aI1
aI0
aI0
aI1
aI0
aI0
aI0
aI5
aI3
asS'Imran Tahir'
p4679
(lp4680
I0
aI11
aI0
aI0
aI2
aI0
aI0
aI0
aI19
aI13
asS'Harshal Patel'
p4681
(lp4682
I1
aI0
aI0
aI0
aI0
aI0
aI0
aI0
aI0
aI1
asS'Glenn Maxwell'
p4683
(lp4684
I0
aI2
aI0
aI0
aI0
aI0
aI0
aI0
aI2
aI2
asS'Chris Morris'
p4685
(lp4686
I1
aI0
aI0
aI0
aI0
aI0
aI0
aI0
aI0
aI1
asS'Lasith Malinga'
p4687
(lp4688
I1
aI2
aI2
aI0
aI0
aI0
aI1
aI0
aI12
aI6
asS'NLTC Perera'
p4689
(lp4690
I2
aI2
aI0
aI0
aI2
aI0
aI0
aI0
aI10
aI6
asS'Jasprit Bumrah'
p4691
(lp4692
I2
aI2
aI0
aI0
aI0
aI0
aI3
aI0
aI20
aI7
asS'R Vinay Kumar'
p4693
(lp4694
I1
aI3
aI0
aI0
aI3
aI0
aI1
aI0
aI21
aI8
asS'Bhuvneshwar Kumar'
p4695
(lp4696
I1
aI4
aI1
aI0
aI1
aI0
aI0
aI0
aI10
aI7
asS'Amit Mishra'
p4697
(lp4698
I1
aI1
aI1
aI0
aI0
aI0
aI0
aI0
aI3
aI3
asS'Mitchell Johnson'
p4699
(lp4700
I2
aI0
aI2
aI0
aI0
aI0
aI4
aI0
aI28
aI8
asS'Zaheer Khan'
p4701
(lp4702
I0
aI1
aI0
aI0
aI0
aI0
aI0
aI0
aI1
aI1
assS'Ajinkya Rahane'
p4703
(dp4704
S'MM Sharma'
p4705
(lp4706
I8
aI9
aI8
aI0
aI1
aI0
aI2
aI0
aI41
aI28
asS'Ashish Nehra'
p4707
(lp4708
I12
aI16
aI2
aI0
aI9
aI0
aI0
aI0
aI56
aI39
asS'D Wiese'
p4709
(lp4710
I1
aI4
aI2
aI0
aI2
aI0
aI0
aI0
aI16
aI9
asS'Shivam Sharma'
p4711
(lp4712
I2
aI6
aI4
aI0
aI0
aI0
aI2
aI0
aI26
aI14
asS'TA Boult'
p4713
(lp4714
I14
aI4
aI2
aI0
aI6
aI0
aI0
aI0
aI32
aI26
asS'MJ McClenaghan'
p4715
(lp4716
I1
aI4
aI0
aI0
aI1
aI0
aI0
aI0
aI8
aI6
asS'Angelo Mathews'
p4717
(lp4718
I7
aI9
aI2
aI0
aI1
aI0
aI0
aI0
aI17
aI19
asS'JD Unadkat'
p4719
(lp4720
I6
aI4
aI1
aI0
aI1
aI0
aI1
aI0
aI16
aI13
asS'NM Coulter-Nile'
p4721
(lp4722
I5
aI9
aI0
aI0
aI2
aI0
aI3
aI0
aI35
aI19
asS'Anureet Singh'
p4723
(lp4724
I8
aI10
aI0
aI0
aI0
aI0
aI2
aI0
aI22
aI20
asS'Morne Morkel'
p4725
(lp4726
I4
aI1
aI3
aI0
aI2
aI0
aI1
aI0
aI21
aI11
asS'Mitchell Starc'
p4727
(lp4728
I4
aI4
aI0
aI0
aI0
aI0
aI0
aI0
aI4
aI8
asS'Azhar Mahmood'
p4729
(lp4730
I2
aI3
aI0
aI0
aI1
aI0
aI1
aI0
aI13
aI7
asS'Sandeep Sharma'
p4731
(lp4732
I10
aI6
aI4
aI0
aI2
aI0
aI0
aI0
aI22
aI22
asS'Corey Anderson'
p4733
(lp4734
I0
aI4
aI0
aI0
aI2
aI0
aI0
aI0
aI12
aI6
asS'A Ashish Reddy'
p4735
(lp4736
I2
aI2
aI0
aI0
aI0
aI0
aI0
aI0
aI2
aI4
asS'Axar Patel'
p4737
(lp4738
I8
aI16
aI6
aI0
aI0
aI0
aI0
aI0
aI28
aI30
asS'S Aravind'
p4739
(lp4740
I5
aI5
aI0
aI0
aI1
aI0
aI0
aI0
aI9
aI11
asS'KV Sharma'
p4741
(lp4742
I8
aI8
aI4
aI0
aI2
aI0
aI0
aI0
aI24
aI22
asS'RS Bopara'
p4743
(lp4744
I14
aI8
aI0
aI0
aI4
aI0
aI0
aI0
aI24
aI26
asS'Yuzvendra Chahal'
p4745
(lp4746
I3
aI4
aI1
aI0
aI0
aI0
aI0
aI0
aI6
aI8
asS'Ravindra Jadeja'
p4747
(lp4748
I4
aI12
aI2
aI0
aI0
aI0
aI0
aI0
aI16
aI18
asS'Imran Tahir'
p4749
(lp4750
I4
aI2
aI0
aI0
aI0
aI0
aI0
aI0
aI2
aI6
asS'Dwayne Bravo'
p4751
(lp4752
I2
aI6
aI0
aI0
aI2
aI0
aI2
aI0
aI26
aI12
asS'Iqbal Abdulla'
p4753
(lp4754
I1
aI2
aI0
aI0
aI1
aI0
aI1
aI0
aI12
aI5
asS'Harshal Patel'
p4755
(lp4756
I3
aI5
aI0
aI0
aI2
aI0
aI0
aI0
aI13
aI10
asS'Glenn Maxwell'
p4757
(lp4758
I0
aI4
aI0
aI0
aI0
aI0
aI0
aI0
aI4
aI4
asS'J Suchith'
p4759
(lp4760
I6
aI14
aI6
aI0
aI2
aI0
aI0
aI0
aI34
aI28
asS'UT Yadav'
p4761
(lp4762
I1
aI3
aI0
aI0
aI0
aI0
aI0
aI0
aI3
aI4
asS'P Suyal'
p4763
(lp4764
I4
aI4
aI2
aI0
aI2
aI0
aI0
aI0
aI16
aI12
asS'S Gopal'
p4765
(lp4766
I4
aI4
aI4
aI0
aI0
aI0
aI0
aI0
aI12
aI12
asS'Lasith Malinga'
p4767
(lp4768
I1
aI4
aI3
aI0
aI1
aI0
aI0
aI0
aI14
aI9
asS'IC Pandey'
p4769
(lp4770
I8
aI6
aI0
aI0
aI2
aI0
aI0
aI0
aI14
aI16
asS'GS Sandhu'
p4771
(lp4772
I3
aI3
aI3
aI0
aI3
aI0
aI0
aI0
aI21
aI12
asS'R Vinay Kumar'
p4773
(lp4774
I11
aI4
aI0
aI0
aI2
aI0
aI0
aI0
aI12
aI17
asS'Bhuvneshwar Kumar'
p4775
(lp4776
I14
aI8
aI2
aI0
aI8
aI0
aI0
aI0
aI44
aI32
asS'Yuvraj Singh'
p4777
(lp4778
I0
aI3
aI0
aI0
aI0
aI0
aI1
aI0
aI9
aI4
asS'Amit Mishra'
p4779
(lp4780
I2
aI6
aI3
aI0
aI1
aI0
aI1
aI0
aI22
aI13
asS'Mitchell Johnson'
p4781
(lp4782
I10
aI6
aI0
aI0
aI10
aI0
aI0
aI0
aI46
aI26
asS'Ravichandran Ashwin'
p4783
(lp4784
I0
aI10
aI2
aI0
aI2
aI0
aI0
aI0
aI22
aI14
asS'Praveen Kumar'
p4785
(lp4786
I2
aI6
aI0
aI0
aI0
aI0
aI0
aI0
aI6
aI8
asS'Zaheer Khan'
p4787
(lp4788
I1
aI2
aI1
aI0
aI3
aI0
aI0
aI0
aI16
aI7
assS'Chris Morris '
p4789
(dp4790
S'Imran Tahir'
p4791
(lp4792
I1
aI1
aI0
aI0
aI0
aI0
aI1
aI0
aI7
aI3
asS'MM Sharma'
p4793
(lp4794
I1
aI3
aI0
aI0
aI0
aI0
aI0
aI0
aI3
aI4
asS'Dwayne Bravo'
p4795
(lp4796
I0
aI3
aI2
aI0
aI0
aI0
aI1
aI0
aI13
aI6
asS'Anureet Singh'
p4797
(lp4798
I2
aI2
aI1
aI0
aI0
aI0
aI0
aI0
aI4
aI5
asS'Morne Morkel'
p4799
(lp4800
I0
aI2
aI0
aI0
aI0
aI0
aI0
aI0
aI2
aI2
asS'Harshal Patel'
p4801
(lp4802
I0
aI2
aI0
aI0
aI0
aI0
aI0
aI0
aI2
aI2
asS'UT Yadav'
p4803
(lp4804
I1
aI2
aI0
aI0
aI0
aI0
aI0
aI0
aI2
aI3
asS'Mitchell Starc'
p4805
(lp4806
I2
aI1
aI0
aI0
aI0
aI0
aI0
aI0
aI1
aI3
asS'Axar Patel'
p4807
(lp4808
I1
aI1
aI0
aI0
aI0
aI0
aI0
aI0
aI1
aI2
asS'Mitchell Johnson'
p4809
(lp4810
I0
aI1
aI0
aI0
aI0
aI0
aI0
aI0
aI1
aI1
asS'Angelo Mathews'
p4811
(lp4812
I0
aI2
aI0
aI0
aI1
aI0
aI0
aI0
aI6
aI3
asS'Praveen Kumar'
p4813
(lp4814
I0
aI1
aI1
aI0
aI0
aI0
aI3
aI0
aI21
aI5
asS'Bhuvneshwar Kumar'
p4815
(lp4816
I0
aI3
aI1
aI0
aI2
aI0
aI0
aI0
aI13
aI6
asS'S Aravind'
p4817
(lp4818
I1
aI0
aI0
aI0
aI0
aI0
aI0
aI0
aI0
aI1
assS'Darren Sammy '
p4819
(dp4820
S'YK Pathan'
p4821
(lp4822
I0
aI2
aI0
aI0
aI0
aI0
aI0
aI0
aI2
aI2
asS'A Ashish Reddy'
p4823
(lp4824
I1
aI0
aI0
aI0
aI0
aI0
aI0
aI0
aI0
aI1
asS'Sunil Narine'
p4825
(lp4826
I0
aI2
aI0
aI0
aI0
aI0
aI0
aI0
aI2
aI2
asS'Shakib Al Hasan'
p4827
(lp4828
I2
aI1
aI0
aI0
aI0
aI0
aI0
aI0
aI1
aI3
asS'KV Sharma'
p4829
(lp4830
I2
aI4
aI0
aI0
aI0
aI0
aI0
aI0
aI4
aI6
asS'RS Bopara'
p4831
(lp4832
I0
aI2
aI0
aI0
aI0
aI0
aI0
aI0
aI2
aI2
asS'Piyush Chawla'
p4833
(lp4834
I0
aI2
aI0
aI0
aI0
aI0
aI0
aI0
aI2
aI2
assS'Angelo Mathews '
p4835
(dp4836
S'Harbhajan Singh'
p4837
(lp4838
I0
aI1
aI0
aI0
aI0
aI0
aI0
aI0
aI1
aI1
asS'MJ McClenaghan'
p4839
(lp4840
I2
aI2
aI2
aI0
aI2
aI0
aI0
aI0
aI14
aI8
asS'Rajat Bhatia'
p4841
(lp4842
I0
aI1
aI0
aI0
aI0
aI0
aI0
aI0
aI1
aI1
asS'Stuart Binny'
p4843
(lp4844
I2
aI0
aI0
aI0
aI1
aI0
aI0
aI0
aI4
aI3
asS'Anureet Singh'
p4845
(lp4846
I0
aI2
aI0
aI0
aI0
aI0
aI0
aI0
aI2
aI2
asS'Harshal Patel'
p4847
(lp4848
I2
aI1
aI0
aI0
aI0
aI0
aI0
aI0
aI1
aI3
asS'James Faulkner'
p4849
(lp4850
I5
aI2
aI3
aI0
aI2
aI0
aI1
aI0
aI22
aI13
asS'A Ashish Reddy'
p4851
(lp4852
I0
aI4
aI0
aI0
aI0
aI0
aI0
aI0
aI4
aI4
asS'Axar Patel'
p4853
(lp4854
I2
aI2
aI0
aI0
aI2
aI0
aI0
aI0
aI10
aI6
asS'Andre Russell'
p4855
(lp4856
I10
aI3
aI0
aI0
aI1
aI0
aI0
aI0
aI7
aI14
asS'TG Southee'
p4857
(lp4858
I0
aI3
aI0
aI0
aI1
aI0
aI0
aI0
aI7
aI4
asS'Varun Aaron'
p4859
(lp4860
I1
aI0
aI0
aI0
aI0
aI0
aI0
aI0
aI0
aI1
asS'J Suchith'
p4861
(lp4862
I1
aI2
aI0
aI0
aI0
aI0
aI0
aI0
aI2
aI3
asS'UT Yadav'
p4863
(lp4864
I7
aI9
aI0
aI0
aI0
aI0
aI0
aI0
aI9
aI16
asS'Brad Hogg'
p4865
(lp4866
I0
aI1
aI1
aI0
aI0
aI0
aI1
aI0
aI9
aI3
asS'Sunil Narine'
p4867
(lp4868
I2
aI5
aI2
aI0
aI2
aI0
aI4
aI0
aI41
aI15
asS'HH Pandya'
p4869
(lp4870
I2
aI1
aI0
aI0
aI0
aI0
aI1
aI0
aI7
aI4
asS'Chris Morris'
p4871
(lp4872
I1
aI3
aI0
aI0
aI0
aI0
aI0
aI0
aI3
aI4
asS'Morne Morkel'
p4873
(lp4874
I0
aI2
aI0
aI0
aI0
aI0
aI0
aI0
aI2
aI2
asS'Lasith Malinga'
p4875
(lp4876
I0
aI1
aI0
aI0
aI1
aI0
aI0
aI0
aI5
aI2
asS'Bhuvneshwar Kumar'
p4877
(lp4878
I2
aI10
aI0
aI0
aI0
aI0
aI0
aI0
aI10
aI12
asS'Piyush Chawla'
p4879
(lp4880
I0
aI6
aI0
aI0
aI1
aI0
aI0
aI0
aI10
aI7
asS'Praveen Kumar'
p4881
(lp4882
I0
aI4
aI0
aI0
aI0
aI0
aI2
aI0
aI16
aI6
asS'Shane Watson'
p4883
(lp4884
I4
aI0
aI1
aI0
aI1
aI0
aI0
aI0
aI6
aI6
ass.