(dp0
S'clustervscluster'
p1
(lp2
(lp3
(lp4
I0
aI0
aI0
aI0
aI0
aI0
aI0
aI0
aI0
aI0
aI0
aa(lp5
I0
aI0
aI0
aI0
aI0
aI0
aI0
aI0
aI0
aI0
aI0
aa(lp6
I0
aI0
aI0
aI0
aI0
aI0
aI0
aI0
aI0
aI0
aI0
aa(lp7
I88
aI116
aI26
aI0
aI49
aI0
aI10
aI0
aI424
aI289
aI11
aa(lp8
I6
aI7
aI1
aI0
aI3
aI0
aI2
aI0
aI33
aI19
aI1
aa(lp9
I55
aI69
aI21
aI0
aI21
aI0
aI7
aI0
aI237
aI173
aI4
aa(lp10
I826
aI936
aI175
aI6
aI294
aI0
aI104
aI0
aI3104
aI2341
aI70
aa(lp11
I483
aI475
aI93
aI6
aI170
aI0
aI50
aI0
aI1659
aI1277
aI49
aaa(lp12
(lp13
I0
aI0
aI0
aI0
aI0
aI0
aI0
aI0
aI0
aI0
aI0
aa(lp14
I0
aI0
aI0
aI0
aI0
aI0
aI0
aI0
aI0
aI0
aI0
aa(lp15
I0
aI0
aI0
aI0
aI0
aI0
aI0
aI0
aI0
aI0
aI0
aa(lp16
I37
aI30
aI2
aI0
aI6
aI0
aI0
aI0
aI58
aI75
aI5
aa(lp17
I0
aI1
aI0
aI0
aI0
aI0
aI0
aI0
aI1
aI1
aI0
aa(lp18
I34
aI72
aI13
aI0
aI14
aI0
aI8
aI0
aI202
aI141
aI6
aa(lp19
I391
aI405
aI52
aI1
aI113
aI0
aI56
aI0
aI1300
aI1018
aI44
aa(lp20
I298
aI218
aI47
aI2
aI74
aI0
aI47
aI0
aI896
aI686
aI70
aaa(lp21
(lp22
I0
aI0
aI0
aI0
aI0
aI0
aI0
aI0
aI0
aI0
aI0
aa(lp23
I0
aI0
aI0
aI0
aI0
aI0
aI0
aI0
aI0
aI0
aI0
aa(lp24
I0
aI0
aI0
aI0
aI0
aI0
aI0
aI0
aI0
aI0
aI0
aa(lp25
I51
aI79
aI22
aI0
aI23
aI0
aI6
aI0
aI251
aI181
aI8
aa(lp26
I2
aI4
aI0
aI0
aI1
aI0
aI2
aI0
aI20
aI9
aI0
aa(lp27
I31
aI53
aI4
aI0
aI7
aI0
aI7
aI0
aI131
aI102
aI7
aa(lp28
I406
aI453
aI103
aI3
aI102
aI0
aI47
aI0
aI1358
aI1114
aI51
aa(lp29
I224
aI245
aI62
aI2
aI85
aI0
aI29
aI0
aI889
aI647
aI36
aaa(lp30
(lp31
I0
aI0
aI0
aI0
aI0
aI0
aI0
aI0
aI0
aI0
aI0
aa(lp32
I0
aI0
aI0
aI0
aI0
aI0
aI0
aI0
aI0
aI0
aI0
aa(lp33
I0
aI0
aI0
aI0
aI0
aI0
aI0
aI0
aI0
aI0
aI0
aa(lp34
I118
aI117
aI15
aI0
aI47
aI0
aI12
aI0
aI407
aI309
aI13
aa(lp35
I10
aI10
aI1
aI0
aI3
aI0
aI0
aI0
aI24
aI24
aI1
aa(lp36
I76
aI122
aI33
aI0
aI27
aI0
aI20
aI0
aI416
aI278
aI6
aa(lp37
I971
aI1012
aI183
aI4
aI328
aI1
aI143
aI0
aI3565
aI2642
aI78
aa(lp38
I640
aI587
aI106
aI10
aI204
aI0
aI104
aI0
aI2269
aI1651
aI38
aaa(lp39
(lp40
I0
aI0
aI0
aI0
aI0
aI0
aI0
aI0
aI0
aI0
aI0
aa(lp41
I0
aI0
aI0
aI0
aI0
aI0
aI0
aI0
aI0
aI0
aI0
aa(lp42
I0
aI0
aI0
aI0
aI0
aI0
aI0
aI0
aI0
aI0
aI0
aa(lp43
I37
aI24
aI2
aI0
aI6
aI0
aI1
aI0
aI58
aI70
aI9
aa(lp44
I0
aI3
aI0
aI0
aI1
aI0
aI0
aI0
aI7
aI4
aI0
aa(lp45
I25
aI70
aI13
aI0
aI20
aI0
aI6
aI0
aI212
aI134
aI6
aa(lp46
I362
aI361
aI29
aI2
aI70
aI0
aI42
aI0
aI957
aI866
aI52
aa(lp47
I301
aI202
aI50
aI0
aI72
aI0
aI43
aI0
aI848
aI668
aI120
aaa(lp48
(lp49
I0
aI0
aI0
aI0
aI0
aI0
aI0
aI0
aI0
aI0
aI0
aa(lp50
I0
aI0
aI0
aI0
aI0
aI0
aI0
aI0
aI0
aI0
aI0
aa(lp51
I0
aI0
aI0
aI0
aI0
aI0
aI0
aI0
aI0
aI0
aI0
aa(lp52
I99
aI83
aI13
aI0
aI35
aI0
aI10
aI0
aI309
aI240
aI13
aa(lp53
I10
aI13
aI1
aI0
aI3
aI0
aI2
aI0
aI39
aI29
aI0
aa(lp54
I37
aI55
aI14
aI0
aI14
aI0
aI12
aI0
aI211
aI132
aI2
aa(lp55
I550
aI561
aI90
aI3
aI192
aI1
aI71
aI0
aI1949
aI1468
aI54
aa(lp56
I359
aI329
aI51
aI9
aI112
aI0
aI46
aI0
aI1182
aI906
aI25
aaa(lp57
(lp58
I0
aI0
aI0
aI0
aI0
aI0
aI0
aI0
aI0
aI0
aI0
aa(lp59
I0
aI0
aI0
aI0
aI0
aI0
aI0
aI0
aI0
aI0
aI0
aa(lp60
I0
aI0
aI0
aI0
aI0
aI0
aI0
aI0
aI0
aI0
aI0
aa(lp61
I79
aI49
aI9
aI0
aI18
aI0
aI6
aI0
aI175
aI161
aI9
aa(lp62
I10
aI12
aI0
aI0
aI0
aI0
aI4
aI0
aI36
aI26
aI0
aa(lp63
I14
aI36
aI5
aI0
aI7
aI0
aI11
aI0
aI140
aI73
aI0
aa(lp64
I313
aI274
aI43
aI0
aI93
aI1
aI65
aI0
aI1127
aI789
aI36
aa(lp65
I247
aI177
aI28
aI3
aI68
aI0
aI36
aI0
aI730
aI559
aI10
aaa(lp66
(lp67
I0
aI0
aI0
aI0
aI0
aI0
aI0
aI0
aI0
aI0
aI0
aa(lp68
I0
aI0
aI0
aI0
aI0
aI0
aI0
aI0
aI0
aI0
aI0
aa(lp69
I0
aI0
aI0
aI0
aI0
aI0
aI0
aI0
aI0
aI0
aI0
aa(lp70
I52
aI66
aI22
aI0
aI29
aI0
aI6
aI0
aI262
aI175
aI7
aa(lp71
I4
aI4
aI0
aI0
aI1
aI0
aI2
aI0
aI20
aI11
aI1
aa(lp72
I28
aI45
aI14
aI0
aI13
aI0
aI4
aI0
aI149
aI104
aI2
aa(lp73
I456
aI537
aI105
aI2
aI149
aI0
aI75
aI0
aI1799
aI1324
aI44
aa(lp74
I289
aI305
aI79
aI1
aI103
aI0
aI38
aI0
aI1106
aI815
aI27
aaasS'bowlmap'
p75
(dp76
S'Lokesh Rahul'
p77
I5
sS'Sanju Samson'
p78
I5
sS'Quinton de Kock'
p79
I5
sS'Jean-Paul Duminy'
p80
I6
sS'Rajat Bhatia'
p81
I6
sS'Chris Morris'
p82
I7
sS'Morne Morkel'
p83
I6
sS'Virat Kohli'
p84
I7
sS'Sarfaraz Khan'
p85
I5
sS'Manish Pandey'
p86
I5
sS'Mitchell Starc'
p87
I6
sS'Virender Sehwag'
p88
I5
sS'Yuzvendra Chahal'
p89
I6
sS'Ravindra Jadeja'
p90
I7
sS'Shaun Marsh'
p91
I5
sS'Kieron Pollard'
p92
I6
sS'Harshal Patel'
p93
I7
sS'Glenn Maxwell'
p94
I6
sS'Parvinder Awana'
p95
I6
sS'Lasith Malinga'
p96
I3
sS'Yuvraj Singh'
p97
I6
sS'Mitchell Johnson'
p98
I6
sS'George Bailey'
p99
I5
sS'Rohit Sharma'
p100
I7
sS'Suresh Raina'
p101
I4
sS'Angelo Mathews'
p102
I6
sS'S Badrinath'
p103
I5
sS'MS Dhoni'
p104
I5
sS'Faf du Plessis'
p105
I7
sS'Karanveer Singh'
p106
I5
sS'Corey Anderson'
p107
I7
sS'Ankit Sharma'
p108
I7
sS'Amit Mishra'
p109
I6
sS'Imran Tahir'
p110
I7
sS'Shikhar Dhawan'
p111
I5
sS'Pragyan Ojha'
p112
I7
sS'Albie Morkel'
p113
I3
sS'Bhuvneshwar Kumar'
p114
I6
sS'Azhar Mahmood'
p115
I3
sS'Kuldeep Yadav'
p116
I7
sS'Ashish Nehra'
p117
I7
sS'Steven Smith'
p118
I7
sS'Manoj Tiwary'
p119
I5
sS'Pawan Negi'
p120
I7
sS'Dale Steyn'
p121
I6
sS'Eoin Morgan'
p122
I5
sS'Aiden Blizzard'
p123
I5
sS'Stuart Binny'
p124
I7
sS'Naman Ojha'
p125
I5
sS'Ben Cutting'
p126
I7
sS'Unmukt Chand'
p127
I5
sS'Gautam Gambhir'
p128
I5
sS'Chris Gayle'
p129
I6
sS'Andre Russell'
p130
I6
sS'Brad Hogg'
p131
I7
sS'AB de Villiers'
p132
I5
sS'Harbhajan Singh'
p133
I6
sS'Parthiv Patel'
p134
I5
sS'Ben Hilfenhaus'
p135
I6
sS'Kyle Abbott'
p136
I6
sS'Shane Watson'
p137
I6
sS'Dinesh Karthik'
p138
I5
sS'Mayank Agarwal'
p139
I5
sS'Dhawal Kulkarni'
p140
I6
sS'Johan Botha'
p141
I6
sS'Samuel Badree'
p142
I7
sS'Kane Williamson'
p143
I7
sS'Darren Sammy'
p144
I7
sS'Brendon McCullum'
p145
I5
sS'Anureet Singh'
p146
I7
sS'Robin Uthappa'
p147
I5
sS'James Faulkner'
p148
I7
sS'David Warner'
p149
I5
sS'Axar Patel'
p150
I6
sS'Ravichandran Ashwin'
p151
I6
sS'Mohammed Shami'
p152
I7
sS'Dwayne Bravo'
p153
I5
sS'Varun Aaron'
p154
I7
sS'Moises Henriques'
p155
I3
sS'Kevin Pietersen'
p156
I5
sS'Sunil Narine'
p157
I6
sS'David Miller'
p158
I5
sS'Ajinkya Rahane'
p159
I5
sS'Jasprit Bumrah'
p160
I6
sS'Wriddhiman Saha'
p161
I5
sS'Piyush Chawla'
p162
I6
sS'Praveen Kumar'
p163
I6
sS'Zaheer Khan'
p164
I7
ssS'batmap'
p165
(dp166
S'Lokesh Rahul'
p167
I4
sS'Sanju Samson'
p168
I2
sS'Quinton de Kock'
p169
I5
sS'Jean-Paul Duminy'
p170
I3
sS'Rajat Bhatia'
p171
I4
sS'Chris Morris'
p172
I7
sS'Morne Morkel'
p173
I4
sS'Azhar Mahmood'
p174
I5
sS'Sarfaraz Khan'
p175
I4
sS'Manish Pandey'
p176
I5
sS'Mitchell Starc'
p177
I4
sS'Virender Sehwag'
p178
I5
sS'Johan Botha'
p179
I2
sS'Yuzvendra Chahal'
p180
I4
sS'Ravindra Jadeja'
p181
I2
sS'Shaun Marsh'
p182
I6
sS'Kieron Pollard'
p183
I3
sS'Harshal Patel'
p184
I4
sS'Glenn Maxwell'
p185
I7
sS'Parvinder Awana'
p186
I4
sS'Lasith Malinga'
p187
I4
sS'Amit Mishra'
p188
I7
sS'Mitchell Johnson'
p189
I4
sS'George Bailey'
p190
I7
sS'Rohit Sharma'
p191
I7
sS'Suresh Raina'
p192
I3
sS'S Badrinath'
p193
I7
sS'MS Dhoni'
p194
I6
sS'Faf du Plessis'
p195
I5
sS'Samuel Badree'
p196
I4
sS'Eoin Morgan'
p197
I6
sS'Corey Anderson'
p198
I4
sS'Ankit Sharma'
p199
I4
sS'Yuvraj Singh'
p200
I5
sS'Imran Tahir'
p201
I4
sS'Harbhajan Singh'
p202
I4
sS'Shikhar Dhawan'
p203
I6
sS'Pragyan Ojha'
p204
I4
sS'Albie Morkel'
p205
I5
sS'Bhuvneshwar Kumar'
p206
I4
sS'Virat Kohli'
p207
I7
sS'Kuldeep Yadav'
p208
I4
sS'Ashish Nehra'
p209
I4
sS'Steven Smith'
p210
I7
sS'Manoj Tiwary'
p211
I7
sS'Pawan Negi'
p212
I7
sS'Dale Steyn'
p213
I4
sS'Karanveer Singh'
p214
I4
sS'Aiden Blizzard'
p215
I2
sS'Stuart Binny'
p216
I4
sS'Naman Ojha'
p217
I7
sS'Ben Cutting'
p218
I7
sS'Unmukt Chand'
p219
I4
sS'Gautam Gambhir'
p220
I3
sS'Chris Gayle'
p221
I6
sS'Andre Russell'
p222
I7
sS'Brad Hogg'
p223
I7
sS'AB de Villiers'
p224
I6
sS'Kane Williamson'
p225
I7
sS'Parthiv Patel'
p226
I5
sS'Ben Hilfenhaus'
p227
I4
sS'Kyle Abbott'
p228
I4
sS'Shane Watson'
p229
I6
sS'Dinesh Karthik'
p230
I5
sS'Mayank Agarwal'
p231
I4
sS'Dhawal Kulkarni'
p232
I4
sS'Wriddhiman Saha'
p233
I7
sS'Angelo Mathews'
p234
I7
sS'Darren Sammy'
p235
I7
sS'Brendon McCullum'
p236
I7
sS'Anureet Singh'
p237
I4
sS'Robin Uthappa'
p238
I6
sS'James Faulkner'
p239
I4
sS'David Warner'
p240
I7
sS'Axar Patel'
p241
I7
sS'Mohammed Shami'
p242
I4
sS'Dwayne Bravo'
p243
I5
sS'Varun Aaron'
p244
I4
sS'Moises Henriques'
p245
I7
sS'Kevin Pietersen'
p246
I6
sS'Sunil Narine'
p247
I7
sS'David Miller'
p248
I6
sS'Ajinkya Rahane'
p249
I5
sS'Jasprit Bumrah'
p250
I4
sS'Ravichandran Ashwin'
p251
I7
sS'Piyush Chawla'
p252
I4
sS'Praveen Kumar'
p253
I7
sS'Zaheer Khan'
p254
I4
ss.